MPASM  5.36                      MB_STDIM.ASM   5-24-2019  13:22:05         PAGE  1


LOC  OBJECT CODE     LINE SOURCE TEXT
  VALUE

                      00001 
                      00002 ; PICBASIC PRO(TM) Compiler 2.60C, (c) 1998, 2011 microEngineering Labs, Inc. All Rights Reserved. 
  00000001            00003 MPASMWIN_USED                   EQU     1
                      00004 
                      00005         INCLUDE "C:\PBP260\16F886.INC"
                      00001 ;****************************************************************
                      00002 ;*  16F886.INC                                                  *
                      00003 ;*                                                              *
                      00004 ;*  By        : Leonard Zerman, Jeff Schmoyer                   *
                      00005 ;*  Notice    : Copyright (c) 2009 microEngineering Labs, Inc.  *
                      00006 ;*              All Rights Reserved                             *
                      00007 ;*  Date      : 07/02/09                                        *
                      00008 ;*  Version   : 2.60                                            *
                      00009 ;*  Notes     :                                                 *
                      00010 ;****************************************************************
                      00019         LIST
                      00020         LIST p = 16F886, r = dec, w = -302
                      00021         INCLUDE "P16F886.INC"   ; MPASM  Header
                      00001         LIST
                      00002 ; P16F886.INC  Standard Header File, Version 1.00    Microchip Technology, Inc.
                      00614         LIST
                      00022 ;        __config _CONFIG1, _INTRC_OSC_NOCLKOUT & _WDT_ON & _MCLRE_ON & _LVP_OFF & _CP_OFF
                      00025         LIST
                      00006 
                      00007 
                      00008 ; Define statements.
                      00009 ; C:\PBP260\16F886.BAS          00018   DEFINE  CODE_SIZE 8
                      00010 #define         CODE_SIZE                8
                      00011 ; C:\USERS\JESSADA\DESKTOP\LED DIMMER PROJECT\PIC16F886\MB_STDIM.BAS    00011   DEFINE  OSC 20          
                            ; 20 MHZ
                      00012 #define         OSC              20             ; 20 MHZ
                      00013 ; C:\USERS\JESSADA\DESKTOP\LED DIMMER PROJECT\PIC16F886\MB_STDIM.BAS    00013   DEFINE  DEBUG_REG   PORT
                            B       '
                      00014 #define         DEBUG_REG                  PORTB        
                      00015 ; C:\USERS\JESSADA\DESKTOP\LED DIMMER PROJECT\PIC16F886\MB_STDIM.BAS    00014   DEFINE  DEBUG_BIT   3   
                                     
                      00016 #define         DEBUG_BIT                  3            
                      00017 ; C:\USERS\JESSADA\DESKTOP\LED DIMMER PROJECT\PIC16F886\MB_STDIM.BAS    00015   DEFINE  DEBUG_BAUD  5760
                            0       ' Baudrate = 9600 bps <8N1>
                      00018 #define         DEBUG_BAUD                57600 
                      00019 ; C:\USERS\JESSADA\DESKTOP\LED DIMMER PROJECT\PIC16F886\MB_STDIM.BAS    00016   DEFINE  DEBUG_MODE  0   
                                ' Non-invert mode <drive through MAX232> 
                      00020 #define         DEBUG_MODE                0       
                      00021 ; C:\USERS\JESSADA\DESKTOP\LED DIMMER PROJECT\PIC16F886\MB_STDIM.BAS    00020   DEFINE  LCD
                      00022 #define         LCD             
                      00023 ; C:\USERS\JESSADA\DESKTOP\LED DIMMER PROJECT\PIC16F886\MB_STDIM.BAS    00023   DEFINE LCD_DREG PORTB   
                              ' LCD data port 
                      00024 #define         LCD_DREG                 PORTB     
                      00025 ; C:\USERS\JESSADA\DESKTOP\LED DIMMER PROJECT\PIC16F886\MB_STDIM.BAS    00024   DEFINE LCD_DBIT 4       
                              ' LCD data starting bit 0 or 4 
                      00026 #define         LCD_DBIT                 4         
                      00027 ; C:\USERS\JESSADA\DESKTOP\LED DIMMER PROJECT\PIC16F886\MB_STDIM.BAS    00025   DEFINE LCD_RSREG PORTC  
                              ' LCD register select port 
MPASM  5.36                      MB_STDIM.ASM   5-24-2019  13:22:05         PAGE  2


LOC  OBJECT CODE     LINE SOURCE TEXT
  VALUE

                      00028 #define         LCD_RSREG                PORTC    
                      00029 ; C:\USERS\JESSADA\DESKTOP\LED DIMMER PROJECT\PIC16F886\MB_STDIM.BAS    00026   DEFINE LCD_RSBIT 1      
                              ' LCD register select bit 
                      00030 #define         LCD_RSBIT                1        
                      00031 ; C:\USERS\JESSADA\DESKTOP\LED DIMMER PROJECT\PIC16F886\MB_STDIM.BAS    00027   DEFINE LCD_EREG PORTC   
                              ' LCD enable port 
                      00032 #define         LCD_EREG                 PORTC     
                      00033 ; C:\USERS\JESSADA\DESKTOP\LED DIMMER PROJECT\PIC16F886\MB_STDIM.BAS    00028   DEFINE LCD_EBIT 0       
                              ' LCD enable bit 
                      00034 #define         LCD_EBIT                 0         
                      00035 ; C:\USERS\JESSADA\DESKTOP\LED DIMMER PROJECT\PIC16F886\MB_STDIM.BAS    00029   DEFINE LCD_BITS 4       
                              ' LCD bus size 4 or 8 
                      00036 #define         LCD_BITS                 4         
                      00037 ; C:\USERS\JESSADA\DESKTOP\LED DIMMER PROJECT\PIC16F886\MB_STDIM.BAS    00030   DEFINE LCD_LINES 2      
                              ' Number lines on LCD 
                      00038 #define         LCD_LINES                2        
                      00039 ; C:\USERS\JESSADA\DESKTOP\LED DIMMER PROJECT\PIC16F886\MB_STDIM.BAS    00031   DEFINE LCD_COMMANDUS 200
                            0 ' Command delay time in us 
                      00040 #define         LCD_COMMANDUS            2000 
                      00041 ; C:\USERS\JESSADA\DESKTOP\LED DIMMER PROJECT\PIC16F886\MB_STDIM.BAS    00032   DEFINE LCD_DATAUS 50    
                              ' Data delay time in us
                      00042 #define         LCD_DATAUS               50      
                      00043 ; C:\USERS\JESSADA\DESKTOP\LED DIMMER PROJECT\PIC16F886\MB_STDIM.BAS    00054   define  INTHAND Int_prog
                      00044 #define         INTHAND          Int_prog
                      00045 
  00000020            00046 RAM_START                       EQU     00020h
  000001EF            00047 RAM_END                         EQU     001EFh
  00000004            00048 RAM_BANKS                       EQU     00004h
  00000020            00049 BANK0_START                     EQU     00020h
  0000007F            00050 BANK0_END                       EQU     0007Fh
  000000A0            00051 BANK1_START                     EQU     000A0h
  000000EF            00052 BANK1_END                       EQU     000EFh
  00000110            00053 BANK2_START                     EQU     00110h
  0000016F            00054 BANK2_END                       EQU     0016Fh
  00000190            00055 BANK3_START                     EQU     00190h
  000001EF            00056 BANK3_END                       EQU     001EFh
  00002100            00057 EEPROM_START                    EQU     02100h
  000021FF            00058 EEPROM_END                      EQU     021FFh
                      00059 
                      00060 ; C:\PBP260\PBPPIC14.RAM        00012   A00020  R0      VAR     WORD BANK0 SYSTEM       ' System Registe
                            r
  00000020            00061 R0                              EQU     RAM_START + 000h
                      00062 ; C:\PBP260\PBPPIC14.RAM        00013   A00022  R1      VAR     WORD BANK0 SYSTEM       ' System Registe
                            r
  00000022            00063 R1                              EQU     RAM_START + 002h
                      00064 ; C:\PBP260\PBPPIC14.RAM        00014   A00024  R2      VAR     WORD BANK0 SYSTEM       ' System Registe
                            r
  00000024            00065 R2                              EQU     RAM_START + 004h
                      00066 ; C:\PBP260\PBPPIC14.RAM        00015   A00026  R3      VAR     WORD BANK0 SYSTEM       ' System Registe
                            r
  00000026            00067 R3                              EQU     RAM_START + 006h
                      00068 ; C:\PBP260\PBPPIC14.RAM        00016   A00028  R4      VAR     WORD BANK0 SYSTEM       ' System Registe
                            r
MPASM  5.36                      MB_STDIM.ASM   5-24-2019  13:22:05         PAGE  3


LOC  OBJECT CODE     LINE SOURCE TEXT
  VALUE

  00000028            00069 R4                              EQU     RAM_START + 008h
                      00070 ; C:\PBP260\PBPPIC14.RAM        00017   A0002A  R5      VAR     WORD BANK0 SYSTEM       ' System Registe
                            r
  0000002A            00071 R5                              EQU     RAM_START + 00Ah
                      00072 ; C:\PBP260\PBPPIC14.RAM        00018   A0002C  R6      VAR     WORD BANK0 SYSTEM       ' System Registe
                            r
  0000002C            00073 R6                              EQU     RAM_START + 00Ch
                      00074 ; C:\PBP260\PBPPIC14.RAM        00019   A0002E  R7      VAR     WORD BANK0 SYSTEM       ' System Registe
                            r
  0000002E            00075 R7                              EQU     RAM_START + 00Eh
                      00076 ; C:\PBP260\PBPPIC14.RAM        00020   A00030  R8      VAR     WORD BANK0 SYSTEM       ' System Registe
                            r
  00000030            00077 R8                              EQU     RAM_START + 010h
                      00078 ; C:\PBP260\PBPPIC14.RAM        00026   A00032  FLAGS   VAR     BYTE BANK0 SYSTEM       ' Static flags
  00000032            00079 FLAGS                           EQU     RAM_START + 012h
                      00080 ; C:\PBP260\PBPPIC14.RAM        00025   A00033  GOP     VAR     BYTE BANK0 SYSTEM       ' Gen Op Paramet
                            er
  00000033            00081 GOP                             EQU     RAM_START + 013h
                      00082 ; C:\PBP260\PBPPIC14.RAM        00022   A00034  RM1     VAR     BYTE BANK0 SYSTEM       ' Pin 1 Mask
  00000034            00083 RM1                             EQU     RAM_START + 014h
                      00084 ; C:\PBP260\PBPPIC14.RAM        00024   A00035  RM2     VAR     BYTE BANK0 SYSTEM       ' Pin 2 Mask
  00000035            00085 RM2                             EQU     RAM_START + 015h
                      00086 ; C:\PBP260\PBPPIC14.RAM        00021   A00036  RR1     VAR     BYTE BANK0 SYSTEM       ' Pin 1 Register
  00000036            00087 RR1                             EQU     RAM_START + 016h
                      00088 ; C:\PBP260\PBPPIC14.RAM        00023   A00037  RR2     VAR     BYTE BANK0 SYSTEM       ' Pin 2 Register
  00000037            00089 RR2                             EQU     RAM_START + 017h
                      00090 ; C:\USERS\JESSADA\DESKTOP\LED DIMMER PROJECT\PIC16F886\MB_STDIM.BAS    00129   A00038  ix              
                            var     word
  00000038            00091 _ix                             EQU     RAM_START + 018h
                      00092 ; C:\USERS\JESSADA\DESKTOP\LED DIMMER PROJECT\PIC16F886\MB_STDIM.BAS    00127   A0003A  secCnt  var WORD
  0000003A            00093 _secCnt                         EQU     RAM_START + 01Ah
                      00094 ; C:\USERS\JESSADA\DESKTOP\LED DIMMER PROJECT\PIC16F886\MB_STDIM.BAS    00001   A0003C  
  0000003C            00095 T1                              EQU     RAM_START + 01Ch
                      00096 ; C:\USERS\JESSADA\DESKTOP\LED DIMMER PROJECT\PIC16F886\MB_STDIM.BAS    00133   A0003E  d               
                            var     byte
  0000003E            00097 _d                              EQU     RAM_START + 01Eh
                      00098 ; C:\USERS\JESSADA\DESKTOP\LED DIMMER PROJECT\PIC16F886\MB_STDIM.BAS    00134   A0003F  d1              
                            var     byte
  0000003F            00099 _d1                             EQU     RAM_START + 01Fh
                      00100 ; C:\USERS\JESSADA\DESKTOP\LED DIMMER PROJECT\PIC16F886\MB_STDIM.BAS    00135   A00040  d2              
                            var     byte
  00000040            00101 _d2                             EQU     RAM_START + 020h
                      00102 ; C:\USERS\JESSADA\DESKTOP\LED DIMMER PROJECT\PIC16F886\MB_STDIM.BAS    00136   A00041  d3              
                            var     byte
  00000041            00103 _d3                             EQU     RAM_START + 021h
                      00104 ; C:\USERS\JESSADA\DESKTOP\LED DIMMER PROJECT\PIC16F886\MB_STDIM.BAS    00140   A00042  DatRcv_Fg       
                            var     byte
  00000042            00105 _DatRcv_Fg                      EQU     RAM_START + 022h
                      00106 ; C:\USERS\JESSADA\DESKTOP\LED DIMMER PROJECT\PIC16F886\MB_STDIM.BAS    00121   A00043  i               
                            var     byte
  00000043            00107 _i                              EQU     RAM_START + 023h
                      00108 ; C:\USERS\JESSADA\DESKTOP\LED DIMMER PROJECT\PIC16F886\MB_STDIM.BAS    00122   A00044  j               
                            var     byte
MPASM  5.36                      MB_STDIM.ASM   5-24-2019  13:22:05         PAGE  4


LOC  OBJECT CODE     LINE SOURCE TEXT
  VALUE

  00000044            00109 _j                              EQU     RAM_START + 024h
                      00110 ; C:\USERS\JESSADA\DESKTOP\LED DIMMER PROJECT\PIC16F886\MB_STDIM.BAS    00123   A00045  k               
                            var     byte
  00000045            00111 _k                              EQU     RAM_START + 025h
                      00112 ; C:\USERS\JESSADA\DESKTOP\LED DIMMER PROJECT\PIC16F886\MB_STDIM.BAS    00126   A00046  kcnt    var     
                            byte
  00000046            00113 _kcnt                           EQU     RAM_START + 026h
                      00114 ; C:\USERS\JESSADA\DESKTOP\LED DIMMER PROJECT\PIC16F886\MB_STDIM.BAS    00124   A00047  l               
                            var     byte
  00000047            00115 _l                              EQU     RAM_START + 027h
                      00116 ; C:\USERS\JESSADA\DESKTOP\LED DIMMER PROJECT\PIC16F886\MB_STDIM.BAS    00125   A00048  m               
                            var     byte
  00000048            00117 _m                              EQU     RAM_START + 028h
                      00118 ; C:\USERS\JESSADA\DESKTOP\LED DIMMER PROJECT\PIC16F886\MB_STDIM.BAS    00119   A00049  p               
                            var     byte
  00000049            00119 _p                              EQU     RAM_START + 029h
                      00120 ; C:\USERS\JESSADA\DESKTOP\LED DIMMER PROJECT\PIC16F886\MB_STDIM.BAS    00150   A0004A  Rpt             
                            var     byte
  0000004A            00121 _Rpt                            EQU     RAM_START + 02Ah
                      00122 ; C:\USERS\JESSADA\DESKTOP\LED DIMMER PROJECT\PIC16F886\MB_STDIM.BAS    00118   A0004B  w               
                            var     byte
  0000004B            00123 _w                              EQU     RAM_START + 02Bh
                      00124 ; C:\USERS\JESSADA\DESKTOP\LED DIMMER PROJECT\PIC16F886\MB_STDIM.BAS    00116   A0004C  x               
                            var byte
  0000004C            00125 _x                              EQU     RAM_START + 02Ch
                      00126 ; C:\USERS\JESSADA\DESKTOP\LED DIMMER PROJECT\PIC16F886\MB_STDIM.BAS    00117   A0004D  y               
                            var     byte
  0000004D            00127 _y                              EQU     RAM_START + 02Dh
                      00128 ; C:\USERS\JESSADA\DESKTOP\LED DIMMER PROJECT\PIC16F886\MB_STDIM.BAS    00106   A00070  temp    var     
                            byte $70
  00000070            00129 _temp                           EQU     RAM_START + 050h
                      00130 ; C:\USERS\JESSADA\DESKTOP\LED DIMMER PROJECT\PIC16F886\MB_STDIM.BAS    00107   A00071  temp1   var     
                            byte $71
  00000071            00131 _temp1                          EQU     RAM_START + 051h
                      00132 ; C:\USERS\JESSADA\DESKTOP\LED DIMMER PROJECT\PIC16F886\MB_STDIM.BAS    00108   A00072  temp2   var     
                            byte $72
  00000072            00133 _temp2                          EQU     RAM_START + 052h
                      00134 ; C:\USERS\JESSADA\DESKTOP\LED DIMMER PROJECT\PIC16F886\MB_STDIM.BAS    00109   A00073  temp3   var     
                            byte $73
  00000073            00135 _temp3                          EQU     RAM_START + 053h
                      00136 ; C:\USERS\JESSADA\DESKTOP\LED DIMMER PROJECT\PIC16F886\MB_STDIM.BAS    00110   A00074  temp4   var     
                            byte $74
  00000074            00137 _temp4                          EQU     RAM_START + 054h
                      00138 ; C:\USERS\JESSADA\DESKTOP\LED DIMMER PROJECT\PIC16F886\MB_STDIM.BAS    00111   A00075  temp5   var     
                            byte $75
  00000075            00139 _temp5                          EQU     RAM_START + 055h
                      00140 ; C:\USERS\JESSADA\DESKTOP\LED DIMMER PROJECT\PIC16F886\MB_STDIM.BAS    00112   A00076  temp6   var     
                            byte $76
  00000076            00141 _temp6                          EQU     RAM_START + 056h
                      00142 ; C:\USERS\JESSADA\DESKTOP\LED DIMMER PROJECT\PIC16F886\MB_STDIM.BAS    00113   A00077  temp7   var     
                            byte $77
  00000077            00143 _temp7                          EQU     RAM_START + 057h
                      00144 ; C:\USERS\JESSADA\DESKTOP\LED DIMMER PROJECT\PIC16F886\MB_STDIM.BAS    00143   A00078  charCnt var     
MPASM  5.36                      MB_STDIM.ASM   5-24-2019  13:22:05         PAGE  5


LOC  OBJECT CODE     LINE SOURCE TEXT
  VALUE

                            byte $78
  00000078            00145 _charCnt                        EQU     RAM_START + 058h
                      00146 ; C:\USERS\JESSADA\DESKTOP\LED DIMMER PROJECT\PIC16F886\MB_STDIM.BAS    00144   A00079  dlyCnt  var     
                            byte $79
  00000079            00147 _dlyCnt                         EQU     RAM_START + 059h
                      00148 ; C:\USERS\JESSADA\DESKTOP\LED DIMMER PROJECT\PIC16F886\MB_STDIM.BAS    00145   A0007A  Dat             
                            var     byte $7a
  0000007A            00149 _Dat                            EQU     RAM_START + 05Ah
                      00150 ; C:\USERS\JESSADA\DESKTOP\LED DIMMER PROJECT\PIC16F886\MB_STDIM.BAS    00147   A0007D  wsave   var byte
                             $7d system
  0000007D            00151 wsave                           EQU     RAM_START + 05Dh
                      00152 ; C:\USERS\JESSADA\DESKTOP\LED DIMMER PROJECT\PIC16F886\MB_STDIM.BAS    00148   A0007E  ssave   var byte
                             $7e system
  0000007E            00153 ssave                           EQU     RAM_START + 05Eh
                      00154 ; C:\USERS\JESSADA\DESKTOP\LED DIMMER PROJECT\PIC16F886\MB_STDIM.BAS    00149   A0007F  psave   var byte
                             $7f system
  0000007F            00155 psave                           EQU     RAM_START + 05Fh
                      00156 ; C:\USERS\JESSADA\DESKTOP\LED DIMMER PROJECT\PIC16F886\MB_STDIM.BAS    00089   A000A0  commBuf         
                            var byte[32] $a0
  000000A0            00157 _commBuf                        EQU     RAM_START + 080h
                      00158 ; C:\USERS\JESSADA\DESKTOP\LED DIMMER PROJECT\PIC16F886\MB_STDIM.BAS    00090   A000C0  intBuffer       
                            var byte[16] $c0        
  000000C0            00159 _intBuffer                      EQU     RAM_START + 0A0h
                      00160 ; C:\USERS\JESSADA\DESKTOP\LED DIMMER PROJECT\PIC16F886\MB_STDIM.BAS    00097   A00120  txB             
                            var byte[60] $120
  00000120            00161 _txB                            EQU     RAM_START + 00100h
                      00162 ; C:\USERS\JESSADA\DESKTOP\LED DIMMER PROJECT\PIC16F886\MB_STDIM.BAS    00098   A00190  rxB             
                                    var     byte[60] $190
  00000190            00163 _rxB                            EQU     RAM_START + 00170h
                      00164 ; C:\USERS\JESSADA\DESKTOP\LED DIMMER PROJECT\PIC16F886\MB_STDIM.BAS    00092   grp                     
                            var     intBuffer[1]
  000000C1            00165 _grp                            EQU     _intBuffer + 001h
                      00166 ; C:\USERS\JESSADA\DESKTOP\LED DIMMER PROJECT\PIC16F886\MB_STDIM.BAS    00093   cmd                     
                            var     intBuffer[2]
  000000C2            00167 _cmd                            EQU     _intBuffer + 002h
                      00168 ; C:\USERS\JESSADA\DESKTOP\LED DIMMER PROJECT\PIC16F886\MB_STDIM.BAS    00094   scr_val         var     
                            intBuffer[3]
  000000C3            00169 _scr_val                        EQU     _intBuffer + 003h
                      00170 ; C:\USERS\JESSADA\DESKTOP\LED DIMMER PROJECT\PIC16F886\MB_STDIM.BAS    00095   val                     
                            var     intBuffer[4]
  000000C4            00171 _val                            EQU     _intBuffer + 004h
                      00172 ; C:\PBP260\16F886.BAS          00022   PORTL   VAR     PORTB
  00000006            00173 _PORTL                          EQU      PORTB
                      00174 ; C:\PBP260\16F886.BAS          00023   PORTH   VAR     PORTC
  00000007            00175 _PORTH                          EQU      PORTC
                      00176 ; C:\PBP260\16F886.BAS          00024   TRISL   VAR     TRISB
  00000086            00177 _TRISL                          EQU      TRISB
                      00178 ; C:\PBP260\16F886.BAS          00025   TRISH   VAR     TRISC
  00000087            00179 _TRISH                          EQU      TRISC
                      00180 #define _P_SI                   _PORTB??5
                      00181 #define _P_SCLK                 _PORTB??4
                      00182 #define _P_SO                   _PORTB??3
                      00183 #define _P_GD0                  _PORTB??2
MPASM  5.36                      MB_STDIM.ASM   5-24-2019  13:22:05         PAGE  6


LOC  OBJECT CODE     LINE SOURCE TEXT
  VALUE

                      00184 #define _P_CS                   _PORTB??1
                      00185 #define _TX_EN                  _PORTB??0
                      00186 #define _rx_loc                 _PORTA??2
                      00187 #define _txen_loc               _PORTA??1
                      00188 #define _tx_loc                 _PORTA??0
                      00189 #define _led1                   _PORTA??3
                      00190 #define _rst                    _PORTC??4
                      00191 #define _TMR1IF                 _PIR1??0
                      00192 #define _TXIF                   _PIR1??4
                      00193 #define _TMR1ON                 _T1CON??0
                      00194 #define _TXEN                   _TXSTA??5
                      00195 #define _BRGH                   _TXSTA??2
                      00196 #define _SYNC                   _TXSTA??4
                      00197 #define _SPEN                   _RCSTA??7
                      00198 #define _CREN                   _RCSTA??4
                      00199 #define _BRG16                  _BAUDCTL??3
                      00200 #define _RCIE                   _PIE1??5
                      00201 #define _TXIE                   _PIE1??4
                      00202 #define _RCIF                   _PIR1??5
                      00203 #define _GIE                    _INTCON??7
                      00204 #define _PEIE                   _INTCON??6
                      00205 #define _INTE                   _INTCON??4
                      00206 #define _RBIE                   _INTCON??3
                      00207 #define _RBIF                   _INTCON??0
                      00208 #define _DataRdy                _DatRcv_Fg??7
                      00209 #define _PORTB??5                PORTB, 005h
                      00210 #define _PORTB??4                PORTB, 004h
                      00211 #define _PORTB??3                PORTB, 003h
                      00212 #define _PORTB??2                PORTB, 002h
                      00213 #define _PORTB??1                PORTB, 001h
                      00214 #define _PORTB??0                PORTB, 000h
                      00215 #define _PORTA??2                PORTA, 002h
                      00216 #define _PORTA??1                PORTA, 001h
                      00217 #define _PORTA??0                PORTA, 000h
                      00218 #define _PORTA??3                PORTA, 003h
                      00219 #define _PORTC??4                PORTC, 004h
                      00220 #define _PIR1??0                 PIR1, 000h
                      00221 #define _PIR1??4                 PIR1, 004h
                      00222 #define _T1CON??0                T1CON, 000h
                      00223 #define _TXSTA??5                TXSTA, 005h
                      00224 #define _TXSTA??2                TXSTA, 002h
                      00225 #define _TXSTA??4                TXSTA, 004h
                      00226 #define _RCSTA??7                RCSTA, 007h
                      00227 #define _RCSTA??4                RCSTA, 004h
                      00228 #define _BAUDCTL??3              BAUDCTL, 003h
                      00229 #define _PIE1??5                 PIE1, 005h
                      00230 #define _PIE1??4                 PIE1, 004h
                      00231 #define _PIR1??5                 PIR1, 005h
                      00232 #define _INTCON??7               INTCON, 007h
                      00233 #define _INTCON??6               INTCON, 006h
                      00234 #define _INTCON??4               INTCON, 004h
                      00235 #define _INTCON??3               INTCON, 003h
                      00236 #define _INTCON??0               INTCON, 000h
MPASM  5.36                      MB_STDIM.ASM   5-24-2019  13:22:05         PAGE  7


LOC  OBJECT CODE     LINE SOURCE TEXT
  VALUE

                      00237 #define _DatRcv_Fg??7           _DatRcv_Fg, 007h
                      00238 #define _TRISC??7                TRISC, 007h
                      00239 #define _TRISC??6                TRISC, 006h
                      00240         INCLUDE "MB_STDIM.MAC"
                      00001 
                      00250         LIST
                      00241         INCLUDE "C:\PBP260\PBPPIC14.LIB"
                      00001 ;******************************************************************
                      00002 ;*  PBPPIC14.LIB                                                  *
                      00003 ;*                                                                *
                      00004 ;*  By        : Leonard Zerman, Jeff Schmoyer                     *
                      00005 ;*  Notice    : Copyright (c) 2011 microEngineering Labs, Inc.    *
                      00006 ;*              All Rights Reserved                               *
                      00007 ;*  Date      : 02/04/11                                          *
                      00008 ;*  Version   : 2.60b                                             *
                      00009 ;*  Notes     :                                                   *
                      00010 ;******************************************************************
                      00084   LIST
                      00085 ; Oscillator is 20MHz
                      01133   LIST
0000                  01134     ORG RESET_ORG               ; Reset vector usually at 0
                      01144   LIST
0000   01B2           01145         clrf    FLAGS           ; Clear all flags on reset
                      01149   LIST
0001   28E4           01150         goto    INIT            ; Finish initialization
                      01160   LIST
0004                  01161     ORG RESET_ORG + 4           ; Interrupt vector at 4
                      01168   LIST
                      01169 ;
                      01170 ; If device has more than 2K of code space, an interrupt stub to save
                      01171 ; W, STATUS and PCLATH must be inserted before the jump to the handler.
                      01172 ; W, STATUS and PCLATH must be restored before returning.
                      01173 ; wsave, ssave and psave must be defined as shown in the interrupt
                      01174 ; section of the manual or the readme file.
                      01175 ;
                      01176 ; If RESET_ORG is something other than 0 and interrupts are used,
                      01177 ; the values of W, STATUS and PCLATH must have already been saved
                      01178 ; to do the jump to the new vector.  They cannot be saved again.
                      01179 ;
                      01180           if (RESET_ORG == 0)
0004   00FD           01181         movwf   wsave           ; 1 (10) Save the W register
0005   0E03           01182         swapf   STATUS, W       ; 1 Get STATUS to W without wrecking it
0006   0183           01183         clrf    STATUS          ; 1 Point to bank 0
0007   00FE           01184         movwf   ssave           ; 1 Save the STATUS register
0008   080A           01185         movf    PCLATH, W       ; 1 Save PCLATH
0009   00FF           01186         movwf   psave           ; 1
                      01187           else
                      01188             ifdef PM_USED
                      01189 ;       "Warning: W, STATUS and PCLATH must have been saved to known locations."
                      01190             else
                      01191         messg "W, STATUS and PCLATH must have been saved to known locations."
                      01192             endif
                      01193           endif
MPASM  5.36                      MB_STDIM.ASM   5-24-2019  13:22:05         PAGE  8


LOC  OBJECT CODE     LINE SOURCE TEXT
  VALUE

000A   3001           01194         movlw   high (INTHAND)  ; 1 Set PCLATH for jump
000B   008A           01195         movwf   PCLATH          ; 1
000C   2916           01196         goto    INTHAND         ; 2 Goto user interrupt handler
                      01694   LIST
000D   00A2           01695 DEBUG   movwf   R1              ; Save data to send
000E   1683           01696         bsf     STATUS, RP0
000F   1186           01697         bcf     DEBUG_REG, DEBUG_BIT    ; Set pin to output
0010   1283           01698         bcf     STATUS, RP0
0011   3009           01699         movlw   9               ; 1 start bit + 8 data bits
0012   00A3           01700         movwf   R1 + 1
0013   1003           01701         bcf     STATUS, C       ; Start bit low
0014   201C           01702 debugloop call  debugbit        ; 9 (13) Send the bit
0015   0CA2           01703         rrf     R1, F           ; 1 Move to next bit
0016   0BA3           01704         decfsz  R1 + 1, F       ; 1 / 2 Do next bit, if any
0017   2814           01705         goto    debugloop       ; 2 / 0
0018   1403           01706         bsf     STATUS, C       ; 1 Stop bit high
0019   201C           01707         call    debugbit        ; 9 Send the bit
                      01708       ifdef DEBUG_PACING
                      01709         movlw   (DEBUG_PACING) >> 8
                      01710         movwf   R0 + 1
                      01711         movlw   low (DEBUG_PACING)
                      01712         call    PAUSEUSL        ; Delay for character pacing
                      01713       endif
001A   1403           01714         bsf     STATUS, C       ; Set no timeout for Serout2mod
001B   28DF           01715         goto    DONE
                      01716 
001C   1803           01717 debugbit btfsc  STATUS, C       ; 1 / 2 (7) Bit on or off?
001D   2821           01718         goto    debugbh         ; 2
001E   0000           01719         nop                     ; 1 Nominalize time
                      01720       if (DEBUG_MODE == 1)
                      01721         bsf     DEBUG_REG, DEBUG_BIT    ; 1 Set inverted low bit
                      01722       else
001F   1186           01723         bcf     DEBUG_REG, DEBUG_BIT    ; 1 Set true low bit
                      01724       endif
0020   2823           01725         goto    debugdelay      ; 3 Delay rest of bit time
0021                  01726 debugbh
                      01727       if (DEBUG_MODE == 1)
                      01728         bcf     DEBUG_REG, DEBUG_BIT    ; 1 Set inverted high bit
                      01729       else
0021   1586           01730         bsf     DEBUG_REG, DEBUG_BIT    ; 1 Set true high bit
                      01731       endif
0022   2823           01732         goto    debugdelay      ; 3 Delay rest of bit time
                      01850   LIST
0023   3000           01851 debugdelay movlw (DEBUG_DELAY) >> 8     ; 1 (1) Delay rest of bit time
0024   00A1           01852         movwf   R0 + 1          ; 1
0025   300F           01853         movlw   low (DEBUG_DELAY)       ; 1
0026   289C           01854         goto    PAUSEUSL        ; -2 (PAUSEUSL gives you 2 less than you ask for)
                      02407   LIST
                      02408 HSEROUT CLRWDT?                 ; Keep Watchdog clear
                          M     ifndef NO_CLRWDT
0027   0064               M         clrwdt
                          M     endif
0028   1E0C           02409         btfss   PIR1, TXIF      ; Wait till ready
MPASM  5.36                      MB_STDIM.ASM   5-24-2019  13:22:05         PAGE  9


LOC  OBJECT CODE     LINE SOURCE TEXT
  VALUE

0029   2827           02410         goto    HSEROUT
                      02411 
                      02412       ifdef HSERPARITY_USED
                      02413           if (HSER_BITS != 9)
                      02414         andlw   7fh             ; Clear top bit
                      02415         call    HSERPARITY      ; Calculate the parity
                      02416             ifdef HSER_ODD
                      02417         btfss   GOP, 0
                      02418             else
                      02419         btfsc   GOP, 0
                      02420             endif
                      02421         iorlw   80h             ; Set parity
                      02422           else
                      02423         call    HSERPARITY      ; Calculate the parity
                      02424         rrf     GOP, F          ; Move the parity bit to C
                      02425             if (TXSTA > 7fh)
                      02426         bsf     STATUS, RP0     ; Switch to bank 1
                      02427             endif
                      02428         bcf     TXSTA, TX9D     ; Start parity at 0
                      02429             ifdef HSER_ODD
                      02430         btfss   STATUS, C
                      02431             else
                      02432         btfsc   STATUS, C
                      02433             endif
                      02434         bsf     TXSTA, TX9D     ; Set parity in 9th bit
                      02435             if (TXSTA > 7fh)
                      02436         bcf     STATUS, RP0     ; Switch back to bank 0
                      02437             endif
                      02438           endif
                      02439       endif
                      02440 
002A   0099           02441         movwf   TXREG           ; Send the char
002B   1403           02442         bsf     STATUS, C       ; Set no timeout for Serout2mod
002C   28DF           02443         goto    DONE            ; That's it
                      02865   LIST
002D   01A5           02866 LCDOUTDEC clrf  R2 + 1          ; Zero high value
                      02872   LIST
002E   00A4           02873 LCDOUTDECL movwf R2             ; Save low value
002F   17B3           02874         bsf     GOP, 7          ; Set blanking on
0030   3027           02875         movlw   high 10000      ; Find 10,000s
0031   00A3           02876         movwf   R1 + 1
0032   3010           02877         movlw   low 10000
0033   2040           02878         call    lcdoutdig       ; Do the work
0034   3003           02879         movlw   high 1000       ; Find 1,000s
0035   00A3           02880         movwf   R1 + 1
0036   30E8           02881         movlw   low 1000
0037   2040           02882         call    lcdoutdig       ; Do the work
0038   01A3           02883         clrf    R1 + 1          ; Find 100s
0039   3064           02884         movlw   100
003A   2040           02885         call    lcdoutdig       ; Do the work
003B   01A3           02886         clrf    R1 + 1          ; Find 10s
003C   300A           02887         movlw   10
003D   2040           02888         call    lcdoutdig       ; Do the work
MPASM  5.36                      MB_STDIM.ASM   5-24-2019  13:22:05         PAGE 10


LOC  OBJECT CODE     LINE SOURCE TEXT
  VALUE

003E   0824           02889         movf    R2, W           ; Get the 1s
003F   284B           02890         goto    lcdouta         ; Send the 1s
                      02891 
0040   00A2           02892 lcdoutdig movwf R1              ; Save last piece
0041   0825           02893         movf    R2 + 1, W       ; Move remainder to dividend
0042   00A1           02894         movwf   R0 + 1
0043   0824           02895         movf    R2, W
0044   00A0           02896         movwf   R0
0045   20C3           02897         call    DIV             ; Do the math
0046   0820           02898         movf    R0, W           ; Get the result
0047   1D03           02899         btfss   STATUS, Z       ; If zero, goto blank check
0048   13B3           02900         bcf     GOP, 7          ; Not zero so clear blank
0049   1BB3           02901         btfsc   GOP, 7          ; If blanking on, don't send
004A   0008           02902         return
004B   3E30           02903 lcdouta addlw   '0'             ; Add ASCII offset
                      02931   LIST
004C   00A7           02932 LCDOUT  movwf   R3 + 1          ; Save char
                      02933 
004D   1007           02934         bcf     LCD_EREG, LCD_EBIT      ; Set E low
004E   1087           02935         bcf     LCD_RSREG, LCD_RSBIT    ; Set command register select
004F   1087           02936         bcf     LCD_RWREG, LCD_RWBIT    ; Set RW low (write)
                      02937 
0050   1683           02938         bsf     STATUS, RP0     ; Point to TRISes
0051   1007           02939         bcf     LCD_EREG, LCD_EBIT      ; Set E to output
0052   1087           02940         bcf     LCD_RSREG, LCD_RSBIT    ; Set RS to output
0053   1087           02941         bcf     LCD_RWREG, LCD_RWBIT    ; Set RW to output
                      02942     if ((LCD_BITS) == 8)
                      02943         clrf    LCD_DREG        ; Set port to all output
                      02944     else
                      02945       if ((LCD_DBIT) == 0)
                      02946         movlw   0f0h
                      02947       else
0054   300F           02948         movlw   0fh
                      02949       endif
0055   0586           02950         andwf   LCD_DREG, F     ; Set proper half of port to output
                      02951     endif
0056   1283           02952         bcf     STATUS, RP0     ; Point back to ports
                      02953 
0057   0827           02954         movf    R3 + 1, W       ; Get back char
                      02955 
0058   18B2           02956         btfsc   LCDINITFLAG     ; Has lcd been inititalized?
0059   2878           02957         goto    lcdout1         ; Yes
                      02958 
005A   303A           02959         movlw   high 15100      ; Wait at least 15ms
005B   00A1           02960         movwf   R0 + 1
005C   30FC           02961         movlw   low 15100
005D   209C           02962         call    PAUSEUSL
                      02963 
005E   3033           02964         movlw   33h             ; Init lcd
005F   00A6           02965         movwf   R3              ; Save char
0060   208C           02966         call    lcdloop         ; Send init
                      02967 
0061   3010           02968         movlw   high 4200       ; Wait at least 4.1ms
MPASM  5.36                      MB_STDIM.ASM   5-24-2019  13:22:05         PAGE 11


LOC  OBJECT CODE     LINE SOURCE TEXT
  VALUE

0062   00A1           02969         movwf   R0 + 1
0063   3068           02970         movlw   low 4200
0064   209C           02971         call    PAUSEUSL
                      02972 
0065   208C           02973         call    lcdloop         ; Send init (33) again
                      02974 
0066   3064           02975         movlw   100             ; Wait at least 100us
0067   209B           02976         call    PAUSEUS
                      02977 
0068   208C           02978         call    lcdloop         ; Send init (33) one more time
                      02979 
                      02980     if ((LCD_BITS) == 8)
                      02981       if ((LCD_LINES) == 1)
                      02982         movlw   30h             ; 8-bit mode, 1 line, 5x7 font
                      02983       else
                      02984         movlw   38h             ; 8-bit mode, 2+ lines, 5x7 font
                      02985       endif
                      02986     else
0069   3022           02987         movlw   22h             ; Send init to 4-bit mode
006A   00A6           02988         movwf   R3              ; Save character
006B   208C           02989         call    lcdloop         ; Set interface to 4-bit mode
                      02990       if ((LCD_LINES) == 1)
                      02991         movlw   20h             ; 4-bit mode, 1 line, 5x7 font
                      02992       else
006C   3028           02993         movlw   28h             ; 4-bit mode, 2+ lines, 5x7 font
                      02994       endif
                      02995     endif
006D   2077           02996         call    lcdoutcom       ; Send function set
                      02997 
006E   300C           02998         movlw   0ch             ; Display on, no cursor, no blink
006F   2077           02999         call    lcdoutcom
                      03000 
0070   3001           03001         movlw   01h             ; Display clear
0071   2077           03002         call    lcdoutcom
                      03003 
0072   3006           03004         movlw   06h             ; Lcd entry mode set, increment, no shift
0073   2077           03005         call    lcdoutcom
                      03006 
0074   14B2           03007         bsf     LCDINITFLAG     ; Set to initialized
                      03008 
0075   0827           03009         movf    R3 + 1, W       ; Get saved char back (again)
0076   2878           03010         goto    lcdout1
                      03011 
0077   1432           03012 lcdoutcom bsf   LCDCDFLAG       ; Set for command
                      03013 
0078   00A6           03014 lcdout1 movwf   R3              ; Save char
0079   1C32           03015         btfss   LCDCDFLAG       ; Command this time?
007A   2886           03016         goto    lcdchkcd        ; No
                      03017 
007B   1087           03018         bcf     LCD_RSREG, LCD_RSBIT    ; Set command register select
007C   3C03           03019         sublw   3               ; Is it a slow command (clear screen or home)?
007D   1C03           03020         btfss   STATUS, C       ; Long or short delay?
007E   288B           03021         goto    lcdsend         ; Short delay
MPASM  5.36                      MB_STDIM.ASM   5-24-2019  13:22:05         PAGE 12


LOC  OBJECT CODE     LINE SOURCE TEXT
  VALUE

                      03022 
007F   208B           03023         call    lcdsend         ; Long delay (includes short delay)
0080   3007           03024         movlw   high LCD_COMMANDUS      ; Wait for command to complete
0081   00A1           03025         movwf   R0 + 1
0082   30D0           03026         movlw   low LCD_COMMANDUS
0083   209C           03027         call    PAUSEUSL
0084   1403           03028         bsf     STATUS, C       ; Set no timeout for Serout2mod
0085   0008           03029         return
                      03030 
0086   1432           03031 lcdchkcd bsf    LCDCDFLAG       ; Indicate first nibble (or command next time)
0087   3CFE           03032         sublw   0feh            ; Command next time? (char still in W)
0088   1903           03033         btfsc   STATUS, Z
0089   28DF           03034         goto    DONE            ; Yes - nothing to do this time (C set for no timeout for Serout2mod)
                      03035 
008A   1487           03036         bsf     LCD_RSREG, LCD_RSBIT    ; Set data register select
                      03037 
008B                  03038 lcdsend
                      03039     if ((LCD_BITS) == 8)
                      03040 lcdloop bsf     LCD_EREG, LCD_EBIT      ; Enabled
                      03041         movf    R3, W           ; Get char back
                      03042         movwf   LCD_DREG        ; Write char to the port
                      03043       if (OSC > 16)
                      03044         nop                     ; Minimum 1us enable time
                      03045       endif
                      03046       if (OSC > 20)
                      03047         nop
                      03048       endif
                      03049         bcf     LCDCDFLAG       ; Indicate data next time
                      03050         bcf     LCD_EREG, LCD_EBIT      ; Not enabled
                      03051     else
                      03052 
                      03053       if ((LCD_DBIT) == 0)
                      03054         swapf   R3, F           ; Swap top and bottom nibbles
                      03055       endif
                      03056 
008B   1C32           03057         btfss   LCDCDFLAG       ; First time through only
008C   1032           03058 lcdloop bcf     LCDCDFLAG       ; Indicate second nibble (and data next time)
                      03059 
008D   1407           03060         bsf     LCD_EREG, LCD_EBIT      ; Enabled
                      03061 
                      03062       if ((LCD_DBIT) == 0)
                      03063         movlw   0f0h            ; Clear lcd data port
                      03064       else
008E   300F           03065         movlw   0fh             ; Clear lcd data port
                      03066       endif
008F   0586           03067         andwf   LCD_DREG, F
                      03068 
0090   0826           03069         movf    R3, W           ; Isolate proper nibble of char
                      03070       if ((LCD_DBIT) == 0)
                      03071         andlw   0fh
                      03072       else
0091   39F0           03073         andlw   0f0h
                      03074       endif
MPASM  5.36                      MB_STDIM.ASM   5-24-2019  13:22:05         PAGE 13


LOC  OBJECT CODE     LINE SOURCE TEXT
  VALUE

0092   0486           03075         iorwf   LCD_DREG, F     ; Write char to port
0093   1007           03076         bcf     LCD_EREG, LCD_EBIT      ; Not enabled - that's four
0094   0EA6           03077         swapf   R3, F           ; Get to other nibble
                      03078 
0095   1832           03079         btfsc   LCDCDFLAG       ; Need to send 4 more?
0096   288C           03080         goto    lcdloop         ; Send lower 4 to lcd
                      03081     endif
                      03082 
0097   3032           03083         movlw   LCD_DATAUS      ; Wait for data operation to complete
0098   209B           03084         call    PAUSEUS
0099   1403           03085         bsf     STATUS, C       ; Set no timeout for Serout2mod
009A   0008           03086         return
                      06557   LIST
009B   01A1           06558 PAUSEUS clrf    R0 + 1          ; 1
009C   3EFC           06559 PAUSEUSL addlw  -4              ; 1 Subtract overhead
009D   00A0           06560         movwf   R0              ; 1
009E   09A1           06561         comf    R0 + 1, F       ; 1
009F   1C03           06562         btfss   STATUS, C       ; 1 / 2
00A0   28A7           06563         goto    pauseush        ; 2 / 0
00A1   30FF           06564 pauseusloop0 movlw -1           ; 1
00A2   0000           06565 pauseusloop nop                 ; 1
00A3   07A0           06566         addwf   R0, F           ; 1
00A4   1803           06567         btfsc   STATUS, C       ; 1 / 2
00A5   28A2           06568         goto    pauseusloop     ; 2 / 0
00A6   07A0           06569         addwf   R0, F           ; 1 Do an extra countdown
                      06570 pauseush CLRWDT?NOP             ; 1 Keep Watchdog clear
                          M     ifndef NO_CLRWDT
00A7   0064               M         clrwdt
                          M     else
                          M         nop
                          M     endif
00A8   0FA1           06571         incfsz  R0 + 1, F       ; 1 / 2
00A9   28A1           06572         goto    pauseusloop0    ; 2 / 0
00AA   0008           06573         return                  ; 2 + 3 (call + setup)
                      07272   LIST
00AB   00A2           07273 CMPGT   movwf   R1
00AC   3001           07274         movlw   1               ; Mask for >
00AD   28B3           07275         goto    CMP
                      07305   LIST
00AE   00A2           07306 CMPLE   movwf   R1
00AF   3006           07307         movlw   6               ; Mask for < =
00B0   28B3           07308         goto    CMP
                      07371   LIST
00B1   00A2           07372 CMPNE   movwf   R1
00B2   3005           07373         movlw   5               ; Mask for < >
                      07374 ;       goto    CMP             ; Fall through
                      07390   LIST
00B3   00A8           07391 CMP     movwf   R4              ; Save compare state
00B4   0823           07392         movf    R1 + 1, W       ; Flags = MSB(R0) - MSB(R1)
00B5   0221           07393         subwf   R0 + 1, W
00B6   1D03           07394         btfss   STATUS, Z       ; If unequal then done
00B7   28BA           07395         goto    cmpnoteq
00B8   0822           07396         movf    R1, W           ; Flags = LSB(R0) - LSB(R1)
MPASM  5.36                      MB_STDIM.ASM   5-24-2019  13:22:05         PAGE 14


LOC  OBJECT CODE     LINE SOURCE TEXT
  VALUE

00B9   0220           07397         subwf   R0, W
00BA   3004           07398 cmpnoteq movlw  4               ; W = 4 if R0 < R1
00BB   1803           07399         btfsc   STATUS, C
00BC   3001           07400         movlw   1               ; W = 1 if R0 > R1
00BD   1903           07401         btfsc   STATUS, Z
00BE   3002           07402         movlw   2               ; W = 2 if R0 == R1
00BF   0528           07403         andwf   R4, W           ; Mask for compare state
00C0   1D03           07404         btfss   STATUS, Z
00C1   30FF           07405         movlw   -1
00C2   28DF           07406         goto    DONE
                      07622   LIST
00C3   01A5           07623 DIV     clrf    R2 + 1
00C4   01A4           07624         clrf    R2
                      07625 
00C5   3010           07626 DIV32DIV movlw   16
00C6   00A6           07627         movwf   R3
                      07628 
00C7   0D21           07629 divloop rlf     R0 + 1, W
00C8   0DA4           07630         rlf     R2, F
00C9   0DA5           07631         rlf     R2 + 1, F
00CA   0822           07632         movf    R1, W
00CB   02A4           07633         subwf   R2, F
00CC   0823           07634         movf    R1 + 1, W
00CD   1C03           07635         btfss   STATUS, C
00CE   0F23           07636         incfsz  R1 + 1, W
00CF   02A5           07637         subwf   R2 + 1, F
                      07638 
00D0   1803           07639         btfsc   STATUS, C
00D1   28D9           07640         goto    divok
00D2   0822           07641         movf    R1, W
00D3   07A4           07642         addwf   R2, F
00D4   0823           07643         movf    R1 + 1, W
00D5   1803           07644         btfsc   STATUS, C
00D6   0F23           07645         incfsz  R1 + 1, W
00D7   07A5           07646         addwf   R2 + 1, F
                      07647 
00D8   1003           07648         bcf     STATUS, C
                      07649 
00D9   0DA0           07650 divok   rlf     R0, F
00DA   0DA1           07651         rlf     R0 + 1, F
                      07652 
00DB   0BA6           07653         decfsz  R3, F
00DC   28C7           07654         goto    divloop
00DD   0820           07655         movf    R0, W           ; Get low byte to W
00DE   28DF           07656         goto    DONE
                      07767   LIST
00DF   1383           07768 DONE    bcf     STATUS, IRP     ; 1 Set FSR to bank 0/1
00E0   1303           07769         bcf     STATUS, RP1     ; 1 Show direct bank 0
00E1   1283           07770         bcf     STATUS, RP0     ; 1
                      07771         CLRWDT?NOP              ; 1 Hit Watchdog timer
                          M     ifndef NO_CLRWDT
00E2   0064               M         clrwdt
                          M     else
MPASM  5.36                      MB_STDIM.ASM   5-24-2019  13:22:05         PAGE 15


LOC  OBJECT CODE     LINE SOURCE TEXT
  VALUE

                          M         nop
                          M     endif
00E3   0008           07772 DONERET return                  ; 2 Done
                      07798   LIST
00E4                  07799 INIT
                      07802   LIST
                      07803         MOVE?CB HSER_SPBRG, SPBRG       ; Set baud rate generator reg
                          M         CHK?RP  SPBRG
                          M     if (((SPBRG) & 180h) == 0)
                          M       if (PREV_BANK == 1)
                          M         bcf     STATUS, RP0
                          M       endif
                          M       if (PREV_BANK == 2)
                          M         bcf     STATUS, RP1
                          M       endif
                          M       if (PREV_BANK == 3)
                          M         bcf     STATUS, RP0
                          M         bcf     STATUS, RP1
                          M       endif
                          M PREV_BANK = 0
                          M     endif
                          M 
                          M     if (((SPBRG) & 180h) == 80h)
                          M       if (PREV_BANK == 0)
00E4   1683               M         bsf     STATUS, RP0
                          M       endif
                          M       if (PREV_BANK == 2)
                          M         bsf     STATUS, RP0
                          M         bcf     STATUS, RP1
                          M       endif
                          M       if (PREV_BANK == 3)
                          M         bcf     STATUS, RP1
                          M       endif
  00000001                M PREV_BANK = 1
                          M     endif
                          M 
                          M     if (((SPBRG) & 180h) == 100h)
                          M       if (PREV_BANK == 0)
                          M         bsf     STATUS, RP1
                          M       endif
                          M       if (PREV_BANK == 1)
                          M         bcf     STATUS, RP0
                          M         bsf     STATUS, RP1
                          M       endif
                          M       if (PREV_BANK == 3)
                          M         bcf     STATUS, RP0
                          M       endif
                          M PREV_BANK = 2
                          M     endif
                          M 
                          M     if (((SPBRG) & 180h) == 180h)
                          M       if (PREV_BANK == 0)
                          M         bsf     STATUS, RP0
MPASM  5.36                      MB_STDIM.ASM   5-24-2019  13:22:05         PAGE 16


LOC  OBJECT CODE     LINE SOURCE TEXT
  VALUE

                          M         bsf     STATUS, RP1
                          M       endif
                          M       if (PREV_BANK == 1)
                          M         bsf     STATUS, RP1
                          M       endif
                          M       if (PREV_BANK == 2)
                          M         bsf     STATUS, RP0
                          M       endif
                          M PREV_BANK = 3
                          M     endif
                          M     if (low (HSER_SPBRG) == 0)
                          M         clrf    SPBRG
                          M     else
00E5   3081               M         movlw   low (HSER_SPBRG)
00E6   0099               M         movwf   SPBRG
                          M     endif
                      07804     ifdef HSER_SPBRGH
                      07805       ifdef SPBRGH
                      07806         MOVE?CB HSER_SPBRGH, SPBRGH     ; Set baud rate generator reg high
                      07807       endif
                      07808     endif
                      07809         MOVE?CB HSER_TXSTA, TXSTA       ; Set transmit control reg
                          M         CHK?RP  TXSTA
                          M     if (((TXSTA) & 180h) == 0)
                          M       if (PREV_BANK == 1)
                          M         bcf     STATUS, RP0
                          M       endif
                          M       if (PREV_BANK == 2)
                          M         bcf     STATUS, RP1
                          M       endif
                          M       if (PREV_BANK == 3)
                          M         bcf     STATUS, RP0
                          M         bcf     STATUS, RP1
                          M       endif
                          M PREV_BANK = 0
                          M     endif
                          M 
                          M     if (((TXSTA) & 180h) == 80h)
                          M       if (PREV_BANK == 0)
                          M         bsf     STATUS, RP0
                          M       endif
                          M       if (PREV_BANK == 2)
                          M         bsf     STATUS, RP0
                          M         bcf     STATUS, RP1
                          M       endif
                          M       if (PREV_BANK == 3)
                          M         bcf     STATUS, RP1
                          M       endif
  00000001                M PREV_BANK = 1
                          M     endif
                          M 
                          M     if (((TXSTA) & 180h) == 100h)
                          M       if (PREV_BANK == 0)
MPASM  5.36                      MB_STDIM.ASM   5-24-2019  13:22:05         PAGE 17


LOC  OBJECT CODE     LINE SOURCE TEXT
  VALUE

                          M         bsf     STATUS, RP1
                          M       endif
                          M       if (PREV_BANK == 1)
                          M         bcf     STATUS, RP0
                          M         bsf     STATUS, RP1
                          M       endif
                          M       if (PREV_BANK == 3)
                          M         bcf     STATUS, RP0
                          M       endif
                          M PREV_BANK = 2
                          M     endif
                          M 
                          M     if (((TXSTA) & 180h) == 180h)
                          M       if (PREV_BANK == 0)
                          M         bsf     STATUS, RP0
                          M         bsf     STATUS, RP1
                          M       endif
                          M       if (PREV_BANK == 1)
                          M         bsf     STATUS, RP1
                          M       endif
                          M       if (PREV_BANK == 2)
                          M         bsf     STATUS, RP0
                          M       endif
                          M PREV_BANK = 3
                          M     endif
                          M     if (low (HSER_TXSTA) == 0)
                          M         clrf    TXSTA
                          M     else
00E7   3020               M         movlw   low (HSER_TXSTA)
00E8   0098               M         movwf   TXSTA
                          M     endif
                      07810         MOVE?CB HSER_RCSTA, RCSTA       ; Set receive control reg
                          M         CHK?RP  RCSTA
                          M     if (((RCSTA) & 180h) == 0)
                          M       if (PREV_BANK == 1)
00E9   1283               M         bcf     STATUS, RP0
                          M       endif
                          M       if (PREV_BANK == 2)
                          M         bcf     STATUS, RP1
                          M       endif
                          M       if (PREV_BANK == 3)
                          M         bcf     STATUS, RP0
                          M         bcf     STATUS, RP1
                          M       endif
  00000000                M PREV_BANK = 0
                          M     endif
                          M 
                          M     if (((RCSTA) & 180h) == 80h)
                          M       if (PREV_BANK == 0)
                          M         bsf     STATUS, RP0
                          M       endif
                          M       if (PREV_BANK == 2)
                          M         bsf     STATUS, RP0
MPASM  5.36                      MB_STDIM.ASM   5-24-2019  13:22:05         PAGE 18


LOC  OBJECT CODE     LINE SOURCE TEXT
  VALUE

                          M         bcf     STATUS, RP1
                          M       endif
                          M       if (PREV_BANK == 3)
                          M         bcf     STATUS, RP1
                          M       endif
                          M PREV_BANK = 1
                          M     endif
                          M 
                          M     if (((RCSTA) & 180h) == 100h)
                          M       if (PREV_BANK == 0)
                          M         bsf     STATUS, RP1
                          M       endif
                          M       if (PREV_BANK == 1)
                          M         bcf     STATUS, RP0
                          M         bsf     STATUS, RP1
                          M       endif
                          M       if (PREV_BANK == 3)
                          M         bcf     STATUS, RP0
                          M       endif
                          M PREV_BANK = 2
                          M     endif
                          M 
                          M     if (((RCSTA) & 180h) == 180h)
                          M       if (PREV_BANK == 0)
                          M         bsf     STATUS, RP0
                          M         bsf     STATUS, RP1
                          M       endif
                          M       if (PREV_BANK == 1)
                          M         bsf     STATUS, RP1
                          M       endif
                          M       if (PREV_BANK == 2)
                          M         bsf     STATUS, RP0
                          M       endif
                          M PREV_BANK = 3
                          M     endif
                          M     if (low (HSER_RCSTA) == 0)
                          M         clrf    RCSTA
                          M     else
00EA   3090               M         movlw   low (HSER_RCSTA)
00EB   0098               M         movwf   RCSTA
                          M     endif
                      07837   LIST
00EC                  07838 main
                      00242 
                      00243 
                      00244 ; C:\PBP260\16F886.BAS          00012   Z00002  BANK0   $0020, $007F
00EC                  00245 Z00002
                      00246 ; C:\PBP260\16F886.BAS          00013   Z00003  BANK1   $00A0, $00EF
00EC                  00247 Z00003
                      00248 ; C:\PBP260\16F886.BAS          00014   Z00004  BANK2   $0110, $016F
00EC                  00249 Z00004
                      00250 ; C:\PBP260\16F886.BAS          00015   Z00005  BANK3   $0190, $01EF
00EC                  00251 Z00005
MPASM  5.36                      MB_STDIM.ASM   5-24-2019  13:22:05         PAGE 19


LOC  OBJECT CODE     LINE SOURCE TEXT
  VALUE

                      00252 ; C:\PBP260\16F886.BAS          00016   Z00006  EEPROM  $2100, $21FF
00EC                  00253 Z00006
                      00254 ; C:\PBP260\16F886.BAS          00017   Z00007  LIBRARY "PBPPIC14"
00EC                  00255 Z00007
                      00256 ; C:\PBP260\16F886.BAS          00018   Z00008  DEFINE  CODE_SIZE 8
00EC                  00257 Z00008
                      00258 
                      00259 ; C:\PBP260\16F886.BAS          00020   Z00009          include "PIC14EXT.BAS"
00EC                  00260 Z00009
                      00261 
                      00262 ; C:\PBP260\16F886.BAS          00027   Z0000A          include "PBPPIC14.RAM"
00EC                  00263 Z0000A
                      00264 
                      00265 ; C:\PBP260\16F886.BAS          00029   Z0000B          ADCON0 = $c0    ' Start off with RC
00EC                  00266 Z0000B
                      00267         MOVE?CB 0C0h, ADCON0
                          M         CHK?RP  ADCON0
                          M     if (((ADCON0) & 180h) == 0)
                          M       if (PREV_BANK == 1)
                          M         bcf     STATUS, RP0
                          M       endif
                          M       if (PREV_BANK == 2)
                          M         bcf     STATUS, RP1
                          M       endif
                          M       if (PREV_BANK == 3)
                          M         bcf     STATUS, RP0
                          M         bcf     STATUS, RP1
                          M       endif
  00000000                M PREV_BANK = 0
                          M     endif
                          M 
                          M     if (((ADCON0) & 180h) == 80h)
                          M       if (PREV_BANK == 0)
                          M         bsf     STATUS, RP0
                          M       endif
                          M       if (PREV_BANK == 2)
                          M         bsf     STATUS, RP0
                          M         bcf     STATUS, RP1
                          M       endif
                          M       if (PREV_BANK == 3)
                          M         bcf     STATUS, RP1
                          M       endif
                          M PREV_BANK = 1
                          M     endif
                          M 
                          M     if (((ADCON0) & 180h) == 100h)
                          M       if (PREV_BANK == 0)
                          M         bsf     STATUS, RP1
                          M       endif
                          M       if (PREV_BANK == 1)
                          M         bcf     STATUS, RP0
                          M         bsf     STATUS, RP1
                          M       endif
MPASM  5.36                      MB_STDIM.ASM   5-24-2019  13:22:05         PAGE 20


LOC  OBJECT CODE     LINE SOURCE TEXT
  VALUE

                          M       if (PREV_BANK == 3)
                          M         bcf     STATUS, RP0
                          M       endif
                          M PREV_BANK = 2
                          M     endif
                          M 
                          M     if (((ADCON0) & 180h) == 180h)
                          M       if (PREV_BANK == 0)
                          M         bsf     STATUS, RP0
                          M         bsf     STATUS, RP1
                          M       endif
                          M       if (PREV_BANK == 1)
                          M         bsf     STATUS, RP1
                          M       endif
                          M       if (PREV_BANK == 2)
                          M         bsf     STATUS, RP0
                          M       endif
                          M PREV_BANK = 3
                          M     endif
                          M     if (low (0C0h) == 0)
                          M         clrf    ADCON0
                          M     else
00EC   30C0               M         movlw   low (0C0h)
00ED   009F               M         movwf   ADCON0
                          M     endif
                      00268 
                      00269 ; C:\USERS\JESSADA\DESKTOP\LED DIMMER PROJECT\PIC16F886\MB_STDIM.BAS    00008   Z0000C  @ ERRORLEVEL -30
                            6   ; turn off crossing page boundary message
00EE                  00270 Z0000C
                      00271 
                      00272         ASM?
                          M         RST?RP
                          M     if ((PREV_BANK & 1) != 0)
                          M         bcf     STATUS, RP0
                          M     endif
                          M     if ((PREV_BANK & 2) != 0)
                          M         bcf     STATUS, RP1
                          M     endif
  00000000                M PREV_BANK = 0
                      00273  ERRORLEVEL -306   ; turn off crossing page boundary message
                      00274 
                      00275         ENDASM?
                      00276 
                      00277 ; C:\USERS\JESSADA\DESKTOP\LED DIMMER PROJECT\PIC16F886\MB_STDIM.BAS    00011   Z0000D  DEFINE  OSC 20  
                                    ; 20 MHZ
00EE                  00278 Z0000D
                      00279 ; C:\USERS\JESSADA\DESKTOP\LED DIMMER PROJECT\PIC16F886\MB_STDIM.BAS    00013   Z0000E  DEFINE  DEBUG_RE
                            G   PORTB       '
00EE                  00280 Z0000E
                      00281 ; C:\USERS\JESSADA\DESKTOP\LED DIMMER PROJECT\PIC16F886\MB_STDIM.BAS    00014   Z0000F  DEFINE  DEBUG_BI
                            T   3            
00EE                  00282 Z0000F
                      00283 ; C:\USERS\JESSADA\DESKTOP\LED DIMMER PROJECT\PIC16F886\MB_STDIM.BAS    00015   Z00010  DEFINE  DEBUG_BA
MPASM  5.36                      MB_STDIM.ASM   5-24-2019  13:22:05         PAGE 21


LOC  OBJECT CODE     LINE SOURCE TEXT
  VALUE

                            UD  57600       ' Baudrate = 9600 bps <8N1>
00EE                  00284 Z00010
                      00285 ; C:\USERS\JESSADA\DESKTOP\LED DIMMER PROJECT\PIC16F886\MB_STDIM.BAS    00016   Z00011  DEFINE  DEBUG_MO
                            DE  0       ' Non-invert mode <drive through MAX232> 
00EE                  00286 Z00011
                      00287 ; C:\USERS\JESSADA\DESKTOP\LED DIMMER PROJECT\PIC16F886\MB_STDIM.BAS    00020   Z00012  DEFINE  LCD
00EE                  00288 Z00012
                      00289 ; C:\USERS\JESSADA\DESKTOP\LED DIMMER PROJECT\PIC16F886\MB_STDIM.BAS    00023   Z00013  DEFINE LCD_DREG 
                            PORTB     ' LCD data port 
00EE                  00290 Z00013
                      00291 ; C:\USERS\JESSADA\DESKTOP\LED DIMMER PROJECT\PIC16F886\MB_STDIM.BAS    00024   Z00014  DEFINE LCD_DBIT 
                            4         ' LCD data starting bit 0 or 4 
00EE                  00292 Z00014
                      00293 ; C:\USERS\JESSADA\DESKTOP\LED DIMMER PROJECT\PIC16F886\MB_STDIM.BAS    00025   Z00015  DEFINE LCD_RSREG
                             PORTC    ' LCD register select port 
00EE                  00294 Z00015
                      00295 ; C:\USERS\JESSADA\DESKTOP\LED DIMMER PROJECT\PIC16F886\MB_STDIM.BAS    00026   Z00016  DEFINE LCD_RSBIT
                             1        ' LCD register select bit 
00EE                  00296 Z00016
                      00297 ; C:\USERS\JESSADA\DESKTOP\LED DIMMER PROJECT\PIC16F886\MB_STDIM.BAS    00027   Z00017  DEFINE LCD_EREG 
                            PORTC     ' LCD enable port 
00EE                  00298 Z00017
                      00299 ; C:\USERS\JESSADA\DESKTOP\LED DIMMER PROJECT\PIC16F886\MB_STDIM.BAS    00028   Z00018  DEFINE LCD_EBIT 
                            0         ' LCD enable bit 
00EE                  00300 Z00018
                      00301 ; C:\USERS\JESSADA\DESKTOP\LED DIMMER PROJECT\PIC16F886\MB_STDIM.BAS    00029   Z00019  DEFINE LCD_BITS 
                            4         ' LCD bus size 4 or 8 
00EE                  00302 Z00019
                      00303 ; C:\USERS\JESSADA\DESKTOP\LED DIMMER PROJECT\PIC16F886\MB_STDIM.BAS    00030   Z0001A  DEFINE LCD_LINES
                             2        ' Number lines on LCD 
00EE                  00304 Z0001A
                      00305 ; C:\USERS\JESSADA\DESKTOP\LED DIMMER PROJECT\PIC16F886\MB_STDIM.BAS    00031   Z0001B  DEFINE LCD_COMMA
                            NDUS 2000 ' Command delay time in us 
00EE                  00306 Z0001B
                      00307 ; C:\USERS\JESSADA\DESKTOP\LED DIMMER PROJECT\PIC16F886\MB_STDIM.BAS    00032   Z0001C  DEFINE LCD_DATAU
                            S 50      ' Data delay time in us
00EE                  00308 Z0001C
                      00309 ; C:\USERS\JESSADA\DESKTOP\LED DIMMER PROJECT\PIC16F886\MB_STDIM.BAS    00054   Z0001D  define  INTHAND 
                            Int_prog
00EE                  00310 Z0001D
                      00311 
                      00312 ; C:\USERS\JESSADA\DESKTOP\LED DIMMER PROJECT\PIC16F886\MB_STDIM.BAS    00155   Z0001E  INI_0:
00EE                  00313 Z0001E
                      00314 
                      00315         LABEL?L _INI_0  
                          M         RST?RP
                          M     if ((PREV_BANK & 1) != 0)
                          M         bcf     STATUS, RP0
                          M     endif
                          M     if ((PREV_BANK & 2) != 0)
                          M         bcf     STATUS, RP1
                          M     endif
  00000000                M PREV_BANK = 0
MPASM  5.36                      MB_STDIM.ASM   5-24-2019  13:22:05         PAGE 22


LOC  OBJECT CODE     LINE SOURCE TEXT
  VALUE

                          M     ifdef PM_USED
                          M         LALL
                          M _INI_0
                          M         XALL
                          M     else
00EE                      M _INI_0
                          M     endif
                      00316 
                      00317 ; C:\USERS\JESSADA\DESKTOP\LED DIMMER PROJECT\PIC16F886\MB_STDIM.BAS    00156   Z0001F          gosub in
                            it_IO
00EE                  00318 Z0001F
                      00319         GOSUB?L _init_IO
  0000                    M     local dlabel
                          M     ifdef DEBUG_STACK
                          M         CHK?RP  DEBUG_STACK
                          M       ifdef DEBUG_STACK_ADDR
                          M         bcf     STATUS, C
                          M         rlf     DEBUG_STACK, W
                          M         addlw   DEBUG_STACK_ADDR
                          M         movwf   FSR
                          M         movlw   low (dlabel)
                          M         movwf   INDF
                          M         incf    FSR, F
                          M         movlw   high (dlabel)
                          M         movwf   INDF
                          M       endif
                          M         incf    DEBUG_STACK, F
                          M     endif
                          M         L?CALL  _init_IO
                          M         RST?RP
                          M     if ((PREV_BANK & 1) != 0)
                          M         bcf     STATUS, RP0
                          M     endif
                          M     if ((PREV_BANK & 2) != 0)
                          M         bcf     STATUS, RP1
                          M     endif
  00000000                M PREV_BANK = 0
                          M 
                          M     ifdef USE_LINKER
                          M       if (CODE_SIZE > 2)
                          M         pagesel _init_IO
                          M       endif
                          M     else
                          M       if ((_init_IO) < 1)
                          M         if (CODE_SIZE > 2)
                          M           if (((_init_IO) & 800h) == 0)
                          M         bcf     PCLATH, 3
                          M         else
                          M         bsf     PCLATH, 3
                          M         endif
                          M         endif
                          M         if (CODE_SIZE > 4)
                          M           if (((_init_IO) & 1000h) == 0)
MPASM  5.36                      MB_STDIM.ASM   5-24-2019  13:22:05         PAGE 23


LOC  OBJECT CODE     LINE SOURCE TEXT
  VALUE

                          M         bcf     PCLATH, 4
                          M           else
                          M         bsf     PCLATH, 4
                          M           endif
                          M         endif
                          M       else
                          M         if ((_init_IO) > $)
                          M           if (CODE_SIZE > 2)
                          M             if (((_init_IO) & 800h) == 0)
00EE   118A               M         bcf     PCLATH, 3
                          M             else
                          M         bsf     PCLATH, 3
                          M             endif
                          M           endif
                          M           if (CODE_SIZE > 4)
                          M             if (((_init_IO) & 1000h) == 0)
00EF   120A               M         bcf     PCLATH, 4
                          M             else
                          M         bsf     PCLATH, 4
                          M             endif
                          M           endif
                          M         else
                          M           if (CODE_SIZE > 2)
                          M             if (((_init_IO) & 1800h) == 0)
                          M         clrf    PCLATH
                          M             else
                          M               if (((_init_IO) & 800h) == 0)
                          M         bcf     PCLATH, 3
                          M               else
                          M         bsf     PCLATH, 3
                          M               endif
                          M               if (CODE_SIZE > 4)
                          M                 if (((_init_IO) & 1000h) == 0)
                          M         bcf     PCLATH, 4
                          M                 else
                          M         bsf     PCLATH, 4
                          M                 endif   
                          M               endif
                          M             endif
                          M           endif
                          M         endif
                          M       endif
                          M     endif
                          M 
00F0   2295               M         call    _init_IO
00F1                      M dlabel
                      00320 
                      00321 ; C:\USERS\JESSADA\DESKTOP\LED DIMMER PROJECT\PIC16F886\MB_STDIM.BAS    00157   Z00020          gosub in
                            it_PWM
00F1                  00322 Z00020
                      00323         GOSUB?L _init_PWM
  0000                    M     local dlabel
                          M     ifdef DEBUG_STACK
MPASM  5.36                      MB_STDIM.ASM   5-24-2019  13:22:05         PAGE 24


LOC  OBJECT CODE     LINE SOURCE TEXT
  VALUE

                          M         CHK?RP  DEBUG_STACK
                          M       ifdef DEBUG_STACK_ADDR
                          M         bcf     STATUS, C
                          M         rlf     DEBUG_STACK, W
                          M         addlw   DEBUG_STACK_ADDR
                          M         movwf   FSR
                          M         movlw   low (dlabel)
                          M         movwf   INDF
                          M         incf    FSR, F
                          M         movlw   high (dlabel)
                          M         movwf   INDF
                          M       endif
                          M         incf    DEBUG_STACK, F
                          M     endif
                          M         L?CALL  _init_PWM
                          M         RST?RP
                          M     if ((PREV_BANK & 1) != 0)
                          M         bcf     STATUS, RP0
                          M     endif
                          M     if ((PREV_BANK & 2) != 0)
                          M         bcf     STATUS, RP1
                          M     endif
  00000000                M PREV_BANK = 0
                          M 
                          M     ifdef USE_LINKER
                          M       if (CODE_SIZE > 2)
                          M         pagesel _init_PWM
                          M       endif
                          M     else
                          M       if ((_init_PWM) < 1)
                          M         if (CODE_SIZE > 2)
                          M           if (((_init_PWM) & 800h) == 0)
                          M         bcf     PCLATH, 3
                          M         else
                          M         bsf     PCLATH, 3
                          M         endif
                          M         endif
                          M         if (CODE_SIZE > 4)
                          M           if (((_init_PWM) & 1000h) == 0)
                          M         bcf     PCLATH, 4
                          M           else
                          M         bsf     PCLATH, 4
                          M           endif
                          M         endif
                          M       else
                          M         if ((_init_PWM) > $)
                          M           if (CODE_SIZE > 2)
                          M             if (((_init_PWM) & 800h) == 0)
00F1   118A               M         bcf     PCLATH, 3
                          M             else
                          M         bsf     PCLATH, 3
                          M             endif
                          M           endif
MPASM  5.36                      MB_STDIM.ASM   5-24-2019  13:22:05         PAGE 25


LOC  OBJECT CODE     LINE SOURCE TEXT
  VALUE

                          M           if (CODE_SIZE > 4)
                          M             if (((_init_PWM) & 1000h) == 0)
00F2   120A               M         bcf     PCLATH, 4
                          M             else
                          M         bsf     PCLATH, 4
                          M             endif
                          M           endif
                          M         else
                          M           if (CODE_SIZE > 2)
                          M             if (((_init_PWM) & 1800h) == 0)
                          M         clrf    PCLATH
                          M             else
                          M               if (((_init_PWM) & 800h) == 0)
                          M         bcf     PCLATH, 3
                          M               else
                          M         bsf     PCLATH, 3
                          M               endif
                          M               if (CODE_SIZE > 4)
                          M                 if (((_init_PWM) & 1000h) == 0)
                          M         bcf     PCLATH, 4
                          M                 else
                          M         bsf     PCLATH, 4
                          M                 endif   
                          M               endif
                          M             endif
                          M           endif
                          M         endif
                          M       endif
                          M     endif
                          M 
00F3   228B               M         call    _init_PWM
00F4                      M dlabel
                      00324 
                      00325 ; C:\USERS\JESSADA\DESKTOP\LED DIMMER PROJECT\PIC16F886\MB_STDIM.BAS    00158   Z00021          gosub in
                            it_EUSART
00F4                  00326 Z00021
                      00327         GOSUB?L _init_EUSART
  0000                    M     local dlabel
                          M     ifdef DEBUG_STACK
                          M         CHK?RP  DEBUG_STACK
                          M       ifdef DEBUG_STACK_ADDR
                          M         bcf     STATUS, C
                          M         rlf     DEBUG_STACK, W
                          M         addlw   DEBUG_STACK_ADDR
                          M         movwf   FSR
                          M         movlw   low (dlabel)
                          M         movwf   INDF
                          M         incf    FSR, F
                          M         movlw   high (dlabel)
                          M         movwf   INDF
                          M       endif
                          M         incf    DEBUG_STACK, F
                          M     endif
MPASM  5.36                      MB_STDIM.ASM   5-24-2019  13:22:05         PAGE 26


LOC  OBJECT CODE     LINE SOURCE TEXT
  VALUE

                          M         L?CALL  _init_EUSART
                          M         RST?RP
                          M     if ((PREV_BANK & 1) != 0)
                          M         bcf     STATUS, RP0
                          M     endif
                          M     if ((PREV_BANK & 2) != 0)
                          M         bcf     STATUS, RP1
                          M     endif
  00000000                M PREV_BANK = 0
                          M 
                          M     ifdef USE_LINKER
                          M       if (CODE_SIZE > 2)
                          M         pagesel _init_EUSART
                          M       endif
                          M     else
                          M       if ((_init_EUSART) < 1)
                          M         if (CODE_SIZE > 2)
                          M           if (((_init_EUSART) & 800h) == 0)
                          M         bcf     PCLATH, 3
                          M         else
                          M         bsf     PCLATH, 3
                          M         endif
                          M         endif
                          M         if (CODE_SIZE > 4)
                          M           if (((_init_EUSART) & 1000h) == 0)
                          M         bcf     PCLATH, 4
                          M           else
                          M         bsf     PCLATH, 4
                          M           endif
                          M         endif
                          M       else
                          M         if ((_init_EUSART) > $)
                          M           if (CODE_SIZE > 2)
                          M             if (((_init_EUSART) & 800h) == 0)
00F4   118A               M         bcf     PCLATH, 3
                          M             else
                          M         bsf     PCLATH, 3
                          M             endif
                          M           endif
                          M           if (CODE_SIZE > 4)
                          M             if (((_init_EUSART) & 1000h) == 0)
00F5   120A               M         bcf     PCLATH, 4
                          M             else
                          M         bsf     PCLATH, 4
                          M             endif
                          M           endif
                          M         else
                          M           if (CODE_SIZE > 2)
                          M             if (((_init_EUSART) & 1800h) == 0)
                          M         clrf    PCLATH
                          M             else
                          M               if (((_init_EUSART) & 800h) == 0)
                          M         bcf     PCLATH, 3
MPASM  5.36                      MB_STDIM.ASM   5-24-2019  13:22:05         PAGE 27


LOC  OBJECT CODE     LINE SOURCE TEXT
  VALUE

                          M               else
                          M         bsf     PCLATH, 3
                          M               endif
                          M               if (CODE_SIZE > 4)
                          M                 if (((_init_EUSART) & 1000h) == 0)
                          M         bcf     PCLATH, 4
                          M                 else
                          M         bsf     PCLATH, 4
                          M                 endif   
                          M               endif
                          M             endif
                          M           endif
                          M         endif
                          M       endif
                          M     endif
                          M 
00F6   22C6               M         call    _init_EUSART
00F7                      M dlabel
                      00328 
                      00329 ; C:\USERS\JESSADA\DESKTOP\LED DIMMER PROJECT\PIC16F886\MB_STDIM.BAS    00159   Z00022          OPTION_R
                            EG = %1001111           ; /RAPU INTEDG T0CS T0SE PSA PS2 PS1 PS0                ; for wdt,  int 
00F7                  00330 Z00022
                      00331         MOVE?CB 04Fh, OPTION_REG
                          M         CHK?RP  OPTION_REG
                          M     if (((OPTION_REG) & 180h) == 0)
                          M       if (PREV_BANK == 1)
                          M         bcf     STATUS, RP0
                          M       endif
                          M       if (PREV_BANK == 2)
                          M         bcf     STATUS, RP1
                          M       endif
                          M       if (PREV_BANK == 3)
                          M         bcf     STATUS, RP0
                          M         bcf     STATUS, RP1
                          M       endif
                          M PREV_BANK = 0
                          M     endif
                          M 
                          M     if (((OPTION_REG) & 180h) == 80h)
                          M       if (PREV_BANK == 0)
00F7   1683               M         bsf     STATUS, RP0
                          M       endif
                          M       if (PREV_BANK == 2)
                          M         bsf     STATUS, RP0
                          M         bcf     STATUS, RP1
                          M       endif
                          M       if (PREV_BANK == 3)
                          M         bcf     STATUS, RP1
                          M       endif
  00000001                M PREV_BANK = 1
                          M     endif
                          M 
                          M     if (((OPTION_REG) & 180h) == 100h)
MPASM  5.36                      MB_STDIM.ASM   5-24-2019  13:22:05         PAGE 28


LOC  OBJECT CODE     LINE SOURCE TEXT
  VALUE

                          M       if (PREV_BANK == 0)
                          M         bsf     STATUS, RP1
                          M       endif
                          M       if (PREV_BANK == 1)
                          M         bcf     STATUS, RP0
                          M         bsf     STATUS, RP1
                          M       endif
                          M       if (PREV_BANK == 3)
                          M         bcf     STATUS, RP0
                          M       endif
                          M PREV_BANK = 2
                          M     endif
                          M 
                          M     if (((OPTION_REG) & 180h) == 180h)
                          M       if (PREV_BANK == 0)
                          M         bsf     STATUS, RP0
                          M         bsf     STATUS, RP1
                          M       endif
                          M       if (PREV_BANK == 1)
                          M         bsf     STATUS, RP1
                          M       endif
                          M       if (PREV_BANK == 2)
                          M         bsf     STATUS, RP0
                          M       endif
                          M PREV_BANK = 3
                          M     endif
                          M     if (low (04Fh) == 0)
                          M         clrf    OPTION_REG
                          M     else
00F8   304F               M         movlw   low (04Fh)
00F9   0081               M         movwf   OPTION_REG
                          M     endif
                      00332 
                      00333 ; C:\USERS\JESSADA\DESKTOP\LED DIMMER PROJECT\PIC16F886\MB_STDIM.BAS    00161   Z00023          high rst
                                                                    ; RST (ESP8266)
00FA                  00334 Z00023
                      00335         HIGH?T  _rst
                          M         MOVE?CT 1, PORTC, 004h
                          M         CHK?RP  PORTC
                          M     if (((PORTC) & 180h) == 0)
                          M       if (PREV_BANK == 1)
00FA   1283               M         bcf     STATUS, RP0
                          M       endif
                          M       if (PREV_BANK == 2)
                          M         bcf     STATUS, RP1
                          M       endif
                          M       if (PREV_BANK == 3)
                          M         bcf     STATUS, RP0
                          M         bcf     STATUS, RP1
                          M       endif
  00000000                M PREV_BANK = 0
                          M     endif
                          M 
MPASM  5.36                      MB_STDIM.ASM   5-24-2019  13:22:05         PAGE 29


LOC  OBJECT CODE     LINE SOURCE TEXT
  VALUE

                          M     if (((PORTC) & 180h) == 80h)
                          M       if (PREV_BANK == 0)
                          M         bsf     STATUS, RP0
                          M       endif
                          M       if (PREV_BANK == 2)
                          M         bsf     STATUS, RP0
                          M         bcf     STATUS, RP1
                          M       endif
                          M       if (PREV_BANK == 3)
                          M         bcf     STATUS, RP1
                          M       endif
                          M PREV_BANK = 1
                          M     endif
                          M 
                          M     if (((PORTC) & 180h) == 100h)
                          M       if (PREV_BANK == 0)
                          M         bsf     STATUS, RP1
                          M       endif
                          M       if (PREV_BANK == 1)
                          M         bcf     STATUS, RP0
                          M         bsf     STATUS, RP1
                          M       endif
                          M       if (PREV_BANK == 3)
                          M         bcf     STATUS, RP0
                          M       endif
                          M PREV_BANK = 2
                          M     endif
                          M 
                          M     if (((PORTC) & 180h) == 180h)
                          M       if (PREV_BANK == 0)
                          M         bsf     STATUS, RP0
                          M         bsf     STATUS, RP1
                          M       endif
                          M       if (PREV_BANK == 1)
                          M         bsf     STATUS, RP1
                          M       endif
                          M       if (PREV_BANK == 2)
                          M         bsf     STATUS, RP0
                          M       endif
                          M PREV_BANK = 3
                          M     endif
                          M     if (((1)   & 1) == 1)
00FB   1607               M         bsf     PORTC,  004h
                          M     else
                          M         bcf     PORTC,  004h
                          M     endif
                          M         MOVE?CT 0, ((PORTC) + 80h), 004h
                          M         CHK?RP  ((PORTC) + 80h)
                          M     if (((((PORTC) + 80h)) & 180h) == 0)
                          M       if (PREV_BANK == 1)
                          M         bcf     STATUS, RP0
                          M       endif
                          M       if (PREV_BANK == 2)
MPASM  5.36                      MB_STDIM.ASM   5-24-2019  13:22:05         PAGE 30


LOC  OBJECT CODE     LINE SOURCE TEXT
  VALUE

                          M         bcf     STATUS, RP1
                          M       endif
                          M       if (PREV_BANK == 3)
                          M         bcf     STATUS, RP0
                          M         bcf     STATUS, RP1
                          M       endif
                          M PREV_BANK = 0
                          M     endif
                          M 
                          M     if (((((PORTC) + 80h)) & 180h) == 80h)
                          M       if (PREV_BANK == 0)
00FC   1683               M         bsf     STATUS, RP0
                          M       endif
                          M       if (PREV_BANK == 2)
                          M         bsf     STATUS, RP0
                          M         bcf     STATUS, RP1
                          M       endif
                          M       if (PREV_BANK == 3)
                          M         bcf     STATUS, RP1
                          M       endif
  00000001                M PREV_BANK = 1
                          M     endif
                          M 
                          M     if (((((PORTC) + 80h)) & 180h) == 100h)
                          M       if (PREV_BANK == 0)
                          M         bsf     STATUS, RP1
                          M       endif
                          M       if (PREV_BANK == 1)
                          M         bcf     STATUS, RP0
                          M         bsf     STATUS, RP1
                          M       endif
                          M       if (PREV_BANK == 3)
                          M         bcf     STATUS, RP0
                          M       endif
                          M PREV_BANK = 2
                          M     endif
                          M 
                          M     if (((((PORTC) + 80h)) & 180h) == 180h)
                          M       if (PREV_BANK == 0)
                          M         bsf     STATUS, RP0
                          M         bsf     STATUS, RP1
                          M       endif
                          M       if (PREV_BANK == 1)
                          M         bsf     STATUS, RP1
                          M       endif
                          M       if (PREV_BANK == 2)
                          M         bsf     STATUS, RP0
                          M       endif
                          M PREV_BANK = 3
                          M     endif
                          M     if (((0)   & 1) == 1)
                          M         bsf     ((PORTC) + 80h), 004h
                          M     else
MPASM  5.36                      MB_STDIM.ASM   5-24-2019  13:22:05         PAGE 31


LOC  OBJECT CODE     LINE SOURCE TEXT
  VALUE

00FD   1207               M         bcf     ((PORTC) + 80h), 004h
                          M     endif
                      00336 
                      00337 ; C:\USERS\JESSADA\DESKTOP\LED DIMMER PROJECT\PIC16F886\MB_STDIM.BAS    00162   Z00024          gosub On
                            Tm1                                     ;start timer
00FE                  00338 Z00024
                      00339         GOSUB?L _OnTm1
  0000                    M     local dlabel
                          M     ifdef DEBUG_STACK
                          M         CHK?RP  DEBUG_STACK
                          M       ifdef DEBUG_STACK_ADDR
                          M         bcf     STATUS, C
                          M         rlf     DEBUG_STACK, W
                          M         addlw   DEBUG_STACK_ADDR
                          M         movwf   FSR
                          M         movlw   low (dlabel)
                          M         movwf   INDF
                          M         incf    FSR, F
                          M         movlw   high (dlabel)
                          M         movwf   INDF
                          M       endif
                          M         incf    DEBUG_STACK, F
                          M     endif
                          M         L?CALL  _OnTm1
                          M         RST?RP
                          M     if ((PREV_BANK & 1) != 0)
00FE   1283               M         bcf     STATUS, RP0
                          M     endif
                          M     if ((PREV_BANK & 2) != 0)
                          M         bcf     STATUS, RP1
                          M     endif
  00000000                M PREV_BANK = 0
                          M 
                          M     ifdef USE_LINKER
                          M       if (CODE_SIZE > 2)
                          M         pagesel _OnTm1
                          M       endif
                          M     else
                          M       if ((_OnTm1) < 1)
                          M         if (CODE_SIZE > 2)
                          M           if (((_OnTm1) & 800h) == 0)
                          M         bcf     PCLATH, 3
                          M         else
                          M         bsf     PCLATH, 3
                          M         endif
                          M         endif
                          M         if (CODE_SIZE > 4)
                          M           if (((_OnTm1) & 1000h) == 0)
                          M         bcf     PCLATH, 4
                          M           else
                          M         bsf     PCLATH, 4
                          M           endif
                          M         endif
MPASM  5.36                      MB_STDIM.ASM   5-24-2019  13:22:05         PAGE 32


LOC  OBJECT CODE     LINE SOURCE TEXT
  VALUE

                          M       else
                          M         if ((_OnTm1) > $)
                          M           if (CODE_SIZE > 2)
                          M             if (((_OnTm1) & 800h) == 0)
00FF   118A               M         bcf     PCLATH, 3
                          M             else
                          M         bsf     PCLATH, 3
                          M             endif
                          M           endif
                          M           if (CODE_SIZE > 4)
                          M             if (((_OnTm1) & 1000h) == 0)
0100   120A               M         bcf     PCLATH, 4
                          M             else
                          M         bsf     PCLATH, 4
                          M             endif
                          M           endif
                          M         else
                          M           if (CODE_SIZE > 2)
                          M             if (((_OnTm1) & 1800h) == 0)
                          M         clrf    PCLATH
                          M             else
                          M               if (((_OnTm1) & 800h) == 0)
                          M         bcf     PCLATH, 3
                          M               else
                          M         bsf     PCLATH, 3
                          M               endif
                          M               if (CODE_SIZE > 4)
                          M                 if (((_OnTm1) & 1000h) == 0)
                          M         bcf     PCLATH, 4
                          M                 else
                          M         bsf     PCLATH, 4
                          M                 endif   
                          M               endif
                          M             endif
                          M           endif
                          M         endif
                          M       endif
                          M     endif
                          M 
0101   2316               M         call    _OnTm1
0102                      M dlabel
                      00340 
                      00341 ; C:\USERS\JESSADA\DESKTOP\LED DIMMER PROJECT\PIC16F886\MB_STDIM.BAS    00163   Z00025          secCnt =
                             100
0102                  00342 Z00025
                      00343         MOVE?CW 064h, _secCnt
                          M     ifdef USE_LINKER
                          M         CHK?RP  _secCnt
                          M         movlw   low (064h)
                          M         movwf   _secCnt
                          M         movlw   high (064h)
                          M         movwf   (_secCnt) + 1
                          M     else
MPASM  5.36                      MB_STDIM.ASM   5-24-2019  13:22:05         PAGE 33


LOC  OBJECT CODE     LINE SOURCE TEXT
  VALUE

                          M         MOVE?CB low (064h), _secCnt
                          M         CHK?RP  _secCnt
                          M     if (((_secCnt) & 180h) == 0)
                          M       if (PREV_BANK == 1)
                          M         bcf     STATUS, RP0
                          M       endif
                          M       if (PREV_BANK == 2)
                          M         bcf     STATUS, RP1
                          M       endif
                          M       if (PREV_BANK == 3)
                          M         bcf     STATUS, RP0
                          M         bcf     STATUS, RP1
                          M       endif
  00000000                M PREV_BANK = 0
                          M     endif
                          M 
                          M     if (((_secCnt) & 180h) == 80h)
                          M       if (PREV_BANK == 0)
                          M         bsf     STATUS, RP0
                          M       endif
                          M       if (PREV_BANK == 2)
                          M         bsf     STATUS, RP0
                          M         bcf     STATUS, RP1
                          M       endif
                          M       if (PREV_BANK == 3)
                          M         bcf     STATUS, RP1
                          M       endif
                          M PREV_BANK = 1
                          M     endif
                          M 
                          M     if (((_secCnt) & 180h) == 100h)
                          M       if (PREV_BANK == 0)
                          M         bsf     STATUS, RP1
                          M       endif
                          M       if (PREV_BANK == 1)
                          M         bcf     STATUS, RP0
                          M         bsf     STATUS, RP1
                          M       endif
                          M       if (PREV_BANK == 3)
                          M         bcf     STATUS, RP0
                          M       endif
                          M PREV_BANK = 2
                          M     endif
                          M 
                          M     if (((_secCnt) & 180h) == 180h)
                          M       if (PREV_BANK == 0)
                          M         bsf     STATUS, RP0
                          M         bsf     STATUS, RP1
                          M       endif
                          M       if (PREV_BANK == 1)
                          M         bsf     STATUS, RP1
                          M       endif
                          M       if (PREV_BANK == 2)
MPASM  5.36                      MB_STDIM.ASM   5-24-2019  13:22:05         PAGE 34


LOC  OBJECT CODE     LINE SOURCE TEXT
  VALUE

                          M         bsf     STATUS, RP0
                          M       endif
                          M PREV_BANK = 3
                          M     endif
                          M     if (low (low (064h)) == 0)
                          M         clrf    _secCnt
                          M     else
0102   3064               M         movlw   low (low (064h))
0103   00BA               M         movwf   _secCnt
                          M     endif
                          M         MOVE?CB high (064h), (_secCnt) + 1
                          M         CHK?RP  (_secCnt) + 1
                          M     if ((((_secCnt) + 1) & 180h) == 0)
                          M       if (PREV_BANK == 1)
                          M         bcf     STATUS, RP0
                          M       endif
                          M       if (PREV_BANK == 2)
                          M         bcf     STATUS, RP1
                          M       endif
                          M       if (PREV_BANK == 3)
                          M         bcf     STATUS, RP0
                          M         bcf     STATUS, RP1
                          M       endif
  00000000                M PREV_BANK = 0
                          M     endif
                          M 
                          M     if ((((_secCnt) + 1) & 180h) == 80h)
                          M       if (PREV_BANK == 0)
                          M         bsf     STATUS, RP0
                          M       endif
                          M       if (PREV_BANK == 2)
                          M         bsf     STATUS, RP0
                          M         bcf     STATUS, RP1
                          M       endif
                          M       if (PREV_BANK == 3)
                          M         bcf     STATUS, RP1
                          M       endif
                          M PREV_BANK = 1
                          M     endif
                          M 
                          M     if ((((_secCnt) + 1) & 180h) == 100h)
                          M       if (PREV_BANK == 0)
                          M         bsf     STATUS, RP1
                          M       endif
                          M       if (PREV_BANK == 1)
                          M         bcf     STATUS, RP0
                          M         bsf     STATUS, RP1
                          M       endif
                          M       if (PREV_BANK == 3)
                          M         bcf     STATUS, RP0
                          M       endif
                          M PREV_BANK = 2
                          M     endif
MPASM  5.36                      MB_STDIM.ASM   5-24-2019  13:22:05         PAGE 35


LOC  OBJECT CODE     LINE SOURCE TEXT
  VALUE

                          M 
                          M     if ((((_secCnt) + 1) & 180h) == 180h)
                          M       if (PREV_BANK == 0)
                          M         bsf     STATUS, RP0
                          M         bsf     STATUS, RP1
                          M       endif
                          M       if (PREV_BANK == 1)
                          M         bsf     STATUS, RP1
                          M       endif
                          M       if (PREV_BANK == 2)
                          M         bsf     STATUS, RP0
                          M       endif
                          M PREV_BANK = 3
                          M     endif
                          M     if (low (high (064h)) == 0)
0104   01BB               M         clrf    (_secCnt) + 1
                          M     else
                          M         movlw   low (high (064h))
                          M         movwf   (_secCnt) + 1
                          M     endif
                          M     endif
                      00344 
                      00345 ; C:\USERS\JESSADA\DESKTOP\LED DIMMER PROJECT\PIC16F886\MB_STDIM.BAS    00165   Z00026          high PIE
                            1.5                             ;ENABLE RCIE
0105                  00346 Z00026
                      00347         HIGH?T  _PIE1??5
                          M         MOVE?CT 1, PIE1,  005h
                          M         CHK?RP  PIE1
                          M     if (((PIE1)  & 180h) == 0)
                          M       if (PREV_BANK == 1)
                          M         bcf     STATUS, RP0
                          M       endif
                          M       if (PREV_BANK == 2)
                          M         bcf     STATUS, RP1
                          M       endif
                          M       if (PREV_BANK == 3)
                          M         bcf     STATUS, RP0
                          M         bcf     STATUS, RP1
                          M       endif
                          M PREV_BANK = 0
                          M     endif
                          M 
                          M     if (((PIE1)  & 180h) == 80h)
                          M       if (PREV_BANK == 0)
0105   1683               M         bsf     STATUS, RP0
                          M       endif
                          M       if (PREV_BANK == 2)
                          M         bsf     STATUS, RP0
                          M         bcf     STATUS, RP1
                          M       endif
                          M       if (PREV_BANK == 3)
                          M         bcf     STATUS, RP1
                          M       endif
MPASM  5.36                      MB_STDIM.ASM   5-24-2019  13:22:05         PAGE 36


LOC  OBJECT CODE     LINE SOURCE TEXT
  VALUE

  00000001                M PREV_BANK = 1
                          M     endif
                          M 
                          M     if (((PIE1)  & 180h) == 100h)
                          M       if (PREV_BANK == 0)
                          M         bsf     STATUS, RP1
                          M       endif
                          M       if (PREV_BANK == 1)
                          M         bcf     STATUS, RP0
                          M         bsf     STATUS, RP1
                          M       endif
                          M       if (PREV_BANK == 3)
                          M         bcf     STATUS, RP0
                          M       endif
                          M PREV_BANK = 2
                          M     endif
                          M 
                          M     if (((PIE1)  & 180h) == 180h)
                          M       if (PREV_BANK == 0)
                          M         bsf     STATUS, RP0
                          M         bsf     STATUS, RP1
                          M       endif
                          M       if (PREV_BANK == 1)
                          M         bsf     STATUS, RP1
                          M       endif
                          M       if (PREV_BANK == 2)
                          M         bsf     STATUS, RP0
                          M       endif
                          M PREV_BANK = 3
                          M     endif
                          M     if (((1)   & 1) == 1)
0106   168C               M         bsf     PIE1,   005h
                          M     else
                          M         bcf     PIE1,   005h
                          M     endif
                          M         MOVE?CT 0, ((PIE1)  + 80h), 005h
                          M         CHK?RP  ((PIE1) + 80h)
                          M     if (((((PIE1) + 80h)) & 180h) == 0)
                          M       if (PREV_BANK == 1)
                          M         bcf     STATUS, RP0
                          M       endif
                          M       if (PREV_BANK == 2)
                          M         bcf     STATUS, RP1
                          M       endif
                          M       if (PREV_BANK == 3)
                          M         bcf     STATUS, RP0
                          M         bcf     STATUS, RP1
                          M       endif
                          M PREV_BANK = 0
                          M     endif
                          M 
                          M     if (((((PIE1) + 80h)) & 180h) == 80h)
                          M       if (PREV_BANK == 0)
MPASM  5.36                      MB_STDIM.ASM   5-24-2019  13:22:05         PAGE 37


LOC  OBJECT CODE     LINE SOURCE TEXT
  VALUE

                          M         bsf     STATUS, RP0
                          M       endif
                          M       if (PREV_BANK == 2)
                          M         bsf     STATUS, RP0
                          M         bcf     STATUS, RP1
                          M       endif
                          M       if (PREV_BANK == 3)
                          M         bcf     STATUS, RP1
                          M       endif
                          M PREV_BANK = 1
                          M     endif
                          M 
                          M     if (((((PIE1) + 80h)) & 180h) == 100h)
                          M       if (PREV_BANK == 0)
                          M         bsf     STATUS, RP1
                          M       endif
                          M       if (PREV_BANK == 1)
0107   1283               M         bcf     STATUS, RP0
0108   1703               M         bsf     STATUS, RP1
                          M       endif
                          M       if (PREV_BANK == 3)
                          M         bcf     STATUS, RP0
                          M       endif
  00000002                M PREV_BANK = 2
                          M     endif
                          M 
                          M     if (((((PIE1) + 80h)) & 180h) == 180h)
                          M       if (PREV_BANK == 0)
                          M         bsf     STATUS, RP0
                          M         bsf     STATUS, RP1
                          M       endif
                          M       if (PREV_BANK == 1)
                          M         bsf     STATUS, RP1
                          M       endif
                          M       if (PREV_BANK == 2)
                          M         bsf     STATUS, RP0
                          M       endif
                          M PREV_BANK = 3
                          M     endif
                          M     if (((0)   & 1) == 1)
                          M         bsf     ((PIE1) + 80h), 005h
                          M     else
0109   128C               M         bcf     ((PIE1) + 80h), 005h
                          M     endif
                      00348 
                      00349 ; C:\USERS\JESSADA\DESKTOP\LED DIMMER PROJECT\PIC16F886\MB_STDIM.BAS    00166   Z00027          INTCON=%
                            11000000                ;ENABLE GIE,PEIE                        ;     1 1 0 0 0 0 0 0           
010A                  00350 Z00027
                      00351         MOVE?CB 0C0h, INTCON
                          M         CHK?RP  INTCON
                          M     if (((INTCON) & 180h) == 0)
                          M       if (PREV_BANK == 1)
                          M         bcf     STATUS, RP0
MPASM  5.36                      MB_STDIM.ASM   5-24-2019  13:22:05         PAGE 38


LOC  OBJECT CODE     LINE SOURCE TEXT
  VALUE

                          M       endif
                          M       if (PREV_BANK == 2)
010A   1303               M         bcf     STATUS, RP1
                          M       endif
                          M       if (PREV_BANK == 3)
                          M         bcf     STATUS, RP0
                          M         bcf     STATUS, RP1
                          M       endif
  00000000                M PREV_BANK = 0
                          M     endif
                          M 
                          M     if (((INTCON) & 180h) == 80h)
                          M       if (PREV_BANK == 0)
                          M         bsf     STATUS, RP0
                          M       endif
                          M       if (PREV_BANK == 2)
                          M         bsf     STATUS, RP0
                          M         bcf     STATUS, RP1
                          M       endif
                          M       if (PREV_BANK == 3)
                          M         bcf     STATUS, RP1
                          M       endif
                          M PREV_BANK = 1
                          M     endif
                          M 
                          M     if (((INTCON) & 180h) == 100h)
                          M       if (PREV_BANK == 0)
                          M         bsf     STATUS, RP1
                          M       endif
                          M       if (PREV_BANK == 1)
                          M         bcf     STATUS, RP0
                          M         bsf     STATUS, RP1
                          M       endif
                          M       if (PREV_BANK == 3)
                          M         bcf     STATUS, RP0
                          M       endif
                          M PREV_BANK = 2
                          M     endif
                          M 
                          M     if (((INTCON) & 180h) == 180h)
                          M       if (PREV_BANK == 0)
                          M         bsf     STATUS, RP0
                          M         bsf     STATUS, RP1
                          M       endif
                          M       if (PREV_BANK == 1)
                          M         bsf     STATUS, RP1
                          M       endif
                          M       if (PREV_BANK == 2)
                          M         bsf     STATUS, RP0
                          M       endif
                          M PREV_BANK = 3
                          M     endif
                          M     if (low (0C0h) == 0)
MPASM  5.36                      MB_STDIM.ASM   5-24-2019  13:22:05         PAGE 39


LOC  OBJECT CODE     LINE SOURCE TEXT
  VALUE

                          M         clrf    INTCON
                          M     else
010B   30C0               M         movlw   low (0C0h)
010C   008B               M         movwf   INTCON
                          M     endif
                      00352 
                      00353 ; C:\USERS\JESSADA\DESKTOP\LED DIMMER PROJECT\PIC16F886\MB_STDIM.BAS    00168   Z00028          secCnt=1
                            00
010D                  00354 Z00028
                      00355         MOVE?CW 064h, _secCnt
                          M     ifdef USE_LINKER
                          M         CHK?RP  _secCnt
                          M         movlw   low (064h)
                          M         movwf   _secCnt
                          M         movlw   high (064h)
                          M         movwf   (_secCnt) + 1
                          M     else
                          M         MOVE?CB low (064h), _secCnt
                          M         CHK?RP  _secCnt
                          M     if (((_secCnt) & 180h) == 0)
                          M       if (PREV_BANK == 1)
                          M         bcf     STATUS, RP0
                          M       endif
                          M       if (PREV_BANK == 2)
                          M         bcf     STATUS, RP1
                          M       endif
                          M       if (PREV_BANK == 3)
                          M         bcf     STATUS, RP0
                          M         bcf     STATUS, RP1
                          M       endif
  00000000                M PREV_BANK = 0
                          M     endif
                          M 
                          M     if (((_secCnt) & 180h) == 80h)
                          M       if (PREV_BANK == 0)
                          M         bsf     STATUS, RP0
                          M       endif
                          M       if (PREV_BANK == 2)
                          M         bsf     STATUS, RP0
                          M         bcf     STATUS, RP1
                          M       endif
                          M       if (PREV_BANK == 3)
                          M         bcf     STATUS, RP1
                          M       endif
                          M PREV_BANK = 1
                          M     endif
                          M 
                          M     if (((_secCnt) & 180h) == 100h)
                          M       if (PREV_BANK == 0)
                          M         bsf     STATUS, RP1
                          M       endif
                          M       if (PREV_BANK == 1)
                          M         bcf     STATUS, RP0
MPASM  5.36                      MB_STDIM.ASM   5-24-2019  13:22:05         PAGE 40


LOC  OBJECT CODE     LINE SOURCE TEXT
  VALUE

                          M         bsf     STATUS, RP1
                          M       endif
                          M       if (PREV_BANK == 3)
                          M         bcf     STATUS, RP0
                          M       endif
                          M PREV_BANK = 2
                          M     endif
                          M 
                          M     if (((_secCnt) & 180h) == 180h)
                          M       if (PREV_BANK == 0)
                          M         bsf     STATUS, RP0
                          M         bsf     STATUS, RP1
                          M       endif
                          M       if (PREV_BANK == 1)
                          M         bsf     STATUS, RP1
                          M       endif
                          M       if (PREV_BANK == 2)
                          M         bsf     STATUS, RP0
                          M       endif
                          M PREV_BANK = 3
                          M     endif
                          M     if (low (low (064h)) == 0)
                          M         clrf    _secCnt
                          M     else
010D   3064               M         movlw   low (low (064h))
010E   00BA               M         movwf   _secCnt
                          M     endif
                          M         MOVE?CB high (064h), (_secCnt) + 1
                          M         CHK?RP  (_secCnt) + 1
                          M     if ((((_secCnt) + 1) & 180h) == 0)
                          M       if (PREV_BANK == 1)
                          M         bcf     STATUS, RP0
                          M       endif
                          M       if (PREV_BANK == 2)
                          M         bcf     STATUS, RP1
                          M       endif
                          M       if (PREV_BANK == 3)
                          M         bcf     STATUS, RP0
                          M         bcf     STATUS, RP1
                          M       endif
  00000000                M PREV_BANK = 0
                          M     endif
                          M 
                          M     if ((((_secCnt) + 1) & 180h) == 80h)
                          M       if (PREV_BANK == 0)
                          M         bsf     STATUS, RP0
                          M       endif
                          M       if (PREV_BANK == 2)
                          M         bsf     STATUS, RP0
                          M         bcf     STATUS, RP1
                          M       endif
                          M       if (PREV_BANK == 3)
                          M         bcf     STATUS, RP1
MPASM  5.36                      MB_STDIM.ASM   5-24-2019  13:22:05         PAGE 41


LOC  OBJECT CODE     LINE SOURCE TEXT
  VALUE

                          M       endif
                          M PREV_BANK = 1
                          M     endif
                          M 
                          M     if ((((_secCnt) + 1) & 180h) == 100h)
                          M       if (PREV_BANK == 0)
                          M         bsf     STATUS, RP1
                          M       endif
                          M       if (PREV_BANK == 1)
                          M         bcf     STATUS, RP0
                          M         bsf     STATUS, RP1
                          M       endif
                          M       if (PREV_BANK == 3)
                          M         bcf     STATUS, RP0
                          M       endif
                          M PREV_BANK = 2
                          M     endif
                          M 
                          M     if ((((_secCnt) + 1) & 180h) == 180h)
                          M       if (PREV_BANK == 0)
                          M         bsf     STATUS, RP0
                          M         bsf     STATUS, RP1
                          M       endif
                          M       if (PREV_BANK == 1)
                          M         bsf     STATUS, RP1
                          M       endif
                          M       if (PREV_BANK == 2)
                          M         bsf     STATUS, RP0
                          M       endif
                          M PREV_BANK = 3
                          M     endif
                          M     if (low (high (064h)) == 0)
010F   01BB               M         clrf    (_secCnt) + 1
                          M     else
                          M         movlw   low (high (064h))
                          M         movwf   (_secCnt) + 1
                          M     endif
                          M     endif
                      00356 
                      00357 ; C:\USERS\JESSADA\DESKTOP\LED DIMMER PROJECT\PIC16F886\MB_STDIM.BAS    00169   Z00029          CCPR1L= 
                            128
0110                  00358 Z00029
                      00359         MOVE?CB 080h, CCPR1L
                          M         CHK?RP  CCPR1L
                          M     if (((CCPR1L) & 180h) == 0)
                          M       if (PREV_BANK == 1)
                          M         bcf     STATUS, RP0
                          M       endif
                          M       if (PREV_BANK == 2)
                          M         bcf     STATUS, RP1
                          M       endif
                          M       if (PREV_BANK == 3)
                          M         bcf     STATUS, RP0
MPASM  5.36                      MB_STDIM.ASM   5-24-2019  13:22:05         PAGE 42


LOC  OBJECT CODE     LINE SOURCE TEXT
  VALUE

                          M         bcf     STATUS, RP1
                          M       endif
  00000000                M PREV_BANK = 0
                          M     endif
                          M 
                          M     if (((CCPR1L) & 180h) == 80h)
                          M       if (PREV_BANK == 0)
                          M         bsf     STATUS, RP0
                          M       endif
                          M       if (PREV_BANK == 2)
                          M         bsf     STATUS, RP0
                          M         bcf     STATUS, RP1
                          M       endif
                          M       if (PREV_BANK == 3)
                          M         bcf     STATUS, RP1
                          M       endif
                          M PREV_BANK = 1
                          M     endif
                          M 
                          M     if (((CCPR1L) & 180h) == 100h)
                          M       if (PREV_BANK == 0)
                          M         bsf     STATUS, RP1
                          M       endif
                          M       if (PREV_BANK == 1)
                          M         bcf     STATUS, RP0
                          M         bsf     STATUS, RP1
                          M       endif
                          M       if (PREV_BANK == 3)
                          M         bcf     STATUS, RP0
                          M       endif
                          M PREV_BANK = 2
                          M     endif
                          M 
                          M     if (((CCPR1L) & 180h) == 180h)
                          M       if (PREV_BANK == 0)
                          M         bsf     STATUS, RP0
                          M         bsf     STATUS, RP1
                          M       endif
                          M       if (PREV_BANK == 1)
                          M         bsf     STATUS, RP1
                          M       endif
                          M       if (PREV_BANK == 2)
                          M         bsf     STATUS, RP0
                          M       endif
                          M PREV_BANK = 3
                          M     endif
                          M     if (low (080h) == 0)
                          M         clrf    CCPR1L
                          M     else
0110   3080               M         movlw   low (080h)
0111   0095               M         movwf   CCPR1L
                          M     endif
                      00360 
MPASM  5.36                      MB_STDIM.ASM   5-24-2019  13:22:05         PAGE 43


LOC  OBJECT CODE     LINE SOURCE TEXT
  VALUE

                      00361 ; C:\USERS\JESSADA\DESKTOP\LED DIMMER PROJECT\PIC16F886\MB_STDIM.BAS    00170   Z0002A          CCPR1H=0
0112                  00362 Z0002A
                      00363         MOVE?CB 000h, CCPR1H
                          M         CHK?RP  CCPR1H
                          M     if (((CCPR1H) & 180h) == 0)
                          M       if (PREV_BANK == 1)
                          M         bcf     STATUS, RP0
                          M       endif
                          M       if (PREV_BANK == 2)
                          M         bcf     STATUS, RP1
                          M       endif
                          M       if (PREV_BANK == 3)
                          M         bcf     STATUS, RP0
                          M         bcf     STATUS, RP1
                          M       endif
  00000000                M PREV_BANK = 0
                          M     endif
                          M 
                          M     if (((CCPR1H) & 180h) == 80h)
                          M       if (PREV_BANK == 0)
                          M         bsf     STATUS, RP0
                          M       endif
                          M       if (PREV_BANK == 2)
                          M         bsf     STATUS, RP0
                          M         bcf     STATUS, RP1
                          M       endif
                          M       if (PREV_BANK == 3)
                          M         bcf     STATUS, RP1
                          M       endif
                          M PREV_BANK = 1
                          M     endif
                          M 
                          M     if (((CCPR1H) & 180h) == 100h)
                          M       if (PREV_BANK == 0)
                          M         bsf     STATUS, RP1
                          M       endif
                          M       if (PREV_BANK == 1)
                          M         bcf     STATUS, RP0
                          M         bsf     STATUS, RP1
                          M       endif
                          M       if (PREV_BANK == 3)
                          M         bcf     STATUS, RP0
                          M       endif
                          M PREV_BANK = 2
                          M     endif
                          M 
                          M     if (((CCPR1H) & 180h) == 180h)
                          M       if (PREV_BANK == 0)
                          M         bsf     STATUS, RP0
                          M         bsf     STATUS, RP1
                          M       endif
                          M       if (PREV_BANK == 1)
                          M         bsf     STATUS, RP1
MPASM  5.36                      MB_STDIM.ASM   5-24-2019  13:22:05         PAGE 44


LOC  OBJECT CODE     LINE SOURCE TEXT
  VALUE

                          M       endif
                          M       if (PREV_BANK == 2)
                          M         bsf     STATUS, RP0
                          M       endif
                          M PREV_BANK = 3
                          M     endif
                          M     if (low (000h) == 0)
0112   0196               M         clrf    CCPR1H
                          M     else
                          M         movlw   low (000h)
                          M         movwf   CCPR1H
                          M     endif
                      00364 
                      00365 ; C:\USERS\JESSADA\DESKTOP\LED DIMMER PROJECT\PIC16F886\MB_STDIM.BAS    00171   Z0002B          goto sta
                            rt
0113                  00366 Z0002B
                      00367         GOTO?L  _start
                          M         L?GOTO  _start
                          M     ifdef USE_LINKER
                          M         CLRWDT?
                          M     else
                          M       if ($ == (_start))
                          M         CLRWDT?
                          M       endif
                          M     endif
                          M 
                          M         RST?RP
                          M     if ((PREV_BANK & 1) != 0)
                          M         bcf     STATUS, RP0
                          M     endif
                          M     if ((PREV_BANK & 2) != 0)
                          M         bcf     STATUS, RP1
                          M     endif
  00000000                M PREV_BANK = 0
                          M 
                          M     ifdef USE_LINKER
                          M       if (CODE_SIZE > 2)
                          M         pagesel _start
                          M       endif
                          M     else
                          M       if ((_start) < 1)
                          M         if (CODE_SIZE > 2)
                          M           if (((_start) & 800h) == 0)
                          M         bcf     PCLATH, 3
                          M           else
                          M         bsf     PCLATH, 3
                          M           endif
                          M         endif
                          M         if (CODE_SIZE > 4)
                          M           if (((_start) & 1000h) == 0)
                          M         bcf     PCLATH, 4
                          M           else
                          M         bsf     PCLATH, 4
MPASM  5.36                      MB_STDIM.ASM   5-24-2019  13:22:05         PAGE 45


LOC  OBJECT CODE     LINE SOURCE TEXT
  VALUE

                          M           endif
                          M         endif
                          M       else
                          M         if ((_start) > $)
                          M           if (CODE_SIZE > 2)
                          M             if (((_start) & 800h) == 0)
0113   118A               M         bcf     PCLATH, 3
                          M             else
                          M         bsf     PCLATH, 3
                          M             endif
                          M           endif
                          M           if (CODE_SIZE > 4)
                          M             if (((_start) & 1000h) == 0)
0114   120A               M         bcf     PCLATH, 4
                          M             else
                          M         bsf     PCLATH, 4
                          M             endif
                          M           endif
                          M         else
                          M           if (CODE_SIZE > 2)
                          M             if (((_start) & 1800h) == 0)
                          M         clrf    PCLATH
                          M             else
                          M               if (((_start) & 800h) == 0)
                          M         bcf     PCLATH, 3
                          M               else
                          M         bsf     PCLATH, 3
                          M               endif
                          M               if (CODE_SIZE > 4)
                          M                 if (((_start) & 1000h) == 0)
                          M         bcf     PCLATH, 4
                          M                 else
                          M         bsf     PCLATH, 4
                          M                 endif
                          M               endif
                          M             endif
                          M           endif
                          M         endif
                          M       endif
                          M     endif
                          M 
0115   293C               M         goto    _start
                      00368 
                      00369 ; C:\USERS\JESSADA\DESKTOP\LED DIMMER PROJECT\PIC16F886\MB_STDIM.BAS    00177   Z0002C                  
                            asm
0116                  00370 Z0002C
                      00371 
                      00372         ASM?
                          M         RST?RP
                          M     if ((PREV_BANK & 1) != 0)
                          M         bcf     STATUS, RP0
                          M     endif
                          M     if ((PREV_BANK & 2) != 0)
MPASM  5.36                      MB_STDIM.ASM   5-24-2019  13:22:05         PAGE 46


LOC  OBJECT CODE     LINE SOURCE TEXT
  VALUE

                          M         bcf     STATUS, RP1
                          M     endif
  00000000                M PREV_BANK = 0
                      00373 
0116                  00374 Int_prog:
  00000000            00375 w               equ     0
  00000001            00376 same    equ 1
                      00377 
                      00378 ; Insert interrupt code here
                      00379 ; Save and restore FSR and any other registers used
0116   1383           00380                 bcf             STATUS,IRP              ; bank 0
0117   1587           00381                 bsf             PORTC,3                 ; START 
                      00382 ;       ----- set start loc and max 80 char ------------
0118   30C0           00383 t0_ref: movlw   0xc0
0119   0084           00384                 movwf   FSR                             ; set FSR=0xa0
                      00385 
011A   0064           00386                 clrwdt
011B   01F8           00387                 clrf    _charCnt                ; clr no. char  _temp2 =_charCnt
011C   01C2           00388                 clrf    _DatRcv_Fg
                      00389 ;       ------  set timer -----------------------------
011D   0064           00390 t1_ref: clrwdt                                  ;                       <-------------------------------
                                            
011E   300A           00391                 movlw   .10                             ; max delay count                               
                                                    |
011F   00F9           00392                 movwf   _dlyCnt                 ; dlyCnt                                                
                                                    |
                      00393 ;       ------ check data ready ----------------------                                                  
                            |
0120   1A8C           00394 tm_lp:  btfsc   PIR1,5                  ; RCIF          <-----------------------                |
0121   2929           00395                 goto    t2_ref                  ; yes data                                              
                                    |               |
                      00396 ;       ---------- check timeout ----------------------------                   |               |
0122   30FA           00397                 movlw   .250                    ;                                                       
                                            |               |
0123   00F7           00398                 movwf   _temp7                  ;                                                       
                                            |               |
0124   0BF7           00399                 decfsz  _temp7,same             ; <---|                                                 
                                    |               |
0125   2924           00400                 goto    $-1                             ; ----|                                         
                                            |               |
                      00401                                                                 ;                                       
                                                            |               |
0126   0BF9           00402                 decfsz  _dlyCnt,same    ; no data skip if zero                          |               
                            |
0127   2920           00403                 goto    tm_lp                   ; if not done then loop ------------            |
0128   2930           00404                 goto    st_LocEx                ; timeout exit                                          
                                            |
                      00405 ;       ---------- get char ----------------------------------                                  |
0129   081A           00406 t2_ref: movfw   RCREG                   ; get data to (W)                                               
                                    |
012A   00FA           00407                 movwf   _Dat                    ; save at temp6                                         
                                            |
                      00408 ;       -----------------------------------------------------                                   |
MPASM  5.36                      MB_STDIM.ASM   5-24-2019  13:22:05         PAGE 47


LOC  OBJECT CODE     LINE SOURCE TEXT
  VALUE

                      00409 ;               write char to buffer                                                                    
                                                    |
                      00410 ;       -----------------------------------------------------                                   |
012B   087A           00411                 movfw   _Dat                    ;                                                       
                                                            |
012C   0080           00412                 movwf   INDF                    ; store at index pointer                                
                                    |
012D   0AF8           00413                 incf    _charCnt,same   ; char counts                                                   
                                    |
012E   0A84           00414                 incf    FSR,same                ; inc pointer (txBuffer+1)                              
                                    |
012F   291D           00415                 goto    t1_ref                  ; loop if not done reset timeout------------
                      00416 
0130                  00417 st_LocEx:        
                      00418 ;       ---------check numchar count ------------------------
0130   08F8           00419                 movf    _charCnt,same           
0131   1903 2935      00420                 bz              Int_ex
0133   17C2           00421                 bsf             _DatRcv_Fg,7            ; set DAV on
0134   1187           00422                 bcf             PORTC,3                         ; END 
0135                  00423 Int_ex:
                      00424 ; Restore saved registers
0135   087F           00425                 movf    psave, W
0136   008A           00426                 movwf   PCLATH                          ;restore PCLATH
0137   0E7E           00427                 swapf   ssave, W
0138   0083           00428                 movwf   STATUS                          ;restore STATUS
0139   0EFD           00429                 swapf   wsave, F                        
013A   0E7D           00430                 swapf   wsave, W
013B   0009           00431                 retfie
                      00432 
                      00433                 
                      00434 
                      00435         ENDASM?
                      00436 
                      00437 
                      00438 ; C:\USERS\JESSADA\DESKTOP\LED DIMMER PROJECT\PIC16F886\MB_STDIM.BAS    00240   Z0002D  start:
013C                  00439 Z0002D
                      00440 
                      00441         LABEL?L _start  
                          M         RST?RP
                          M     if ((PREV_BANK & 1) != 0)
                          M         bcf     STATUS, RP0
                          M     endif
                          M     if ((PREV_BANK & 2) != 0)
                          M         bcf     STATUS, RP1
                          M     endif
  00000000                M PREV_BANK = 0
                          M     ifdef PM_USED
                          M         LALL
                          M _start
                          M         XALL
                          M     else
013C                      M _start
                          M     endif
MPASM  5.36                      MB_STDIM.ASM   5-24-2019  13:22:05         PAGE 48


LOC  OBJECT CODE     LINE SOURCE TEXT
  VALUE

                      00442 
                      00443 ; C:\USERS\JESSADA\DESKTOP\LED DIMMER PROJECT\PIC16F886\MB_STDIM.BAS    00247   Z0002E                  
                            Lcdout $fe, 1 ' Clear LCD screen
013C                  00444 Z0002E
                      00445         LCDOUT?C        0FEh
013C   30FE               M         movlw   0FEh
                          M         L?CALL  LCDOUT
                          M         RST?RP
                          M     if ((PREV_BANK & 1) != 0)
                          M         bcf     STATUS, RP0
                          M     endif
                          M     if ((PREV_BANK & 2) != 0)
                          M         bcf     STATUS, RP1
                          M     endif
  00000000                M PREV_BANK = 0
                          M 
                          M     ifdef USE_LINKER
                          M       if (CODE_SIZE > 2)
                          M         pagesel LCDOUT
                          M       endif
                          M     else
                          M       if ((LCDOUT) < 1)
                          M         if (CODE_SIZE > 2)
                          M           if (((LCDOUT) & 800h) == 0)
                          M         bcf     PCLATH, 3
                          M         else
                          M         bsf     PCLATH, 3
                          M         endif
                          M         endif
                          M         if (CODE_SIZE > 4)
                          M           if (((LCDOUT) & 1000h) == 0)
                          M         bcf     PCLATH, 4
                          M           else
                          M         bsf     PCLATH, 4
                          M           endif
                          M         endif
                          M       else
                          M         if ((LCDOUT) > $)
                          M           if (CODE_SIZE > 2)
                          M             if (((LCDOUT) & 800h) == 0)
                          M         bcf     PCLATH, 3
                          M             else
                          M         bsf     PCLATH, 3
                          M             endif
                          M           endif
                          M           if (CODE_SIZE > 4)
                          M             if (((LCDOUT) & 1000h) == 0)
                          M         bcf     PCLATH, 4
                          M             else
                          M         bsf     PCLATH, 4
                          M             endif
                          M           endif
                          M         else
MPASM  5.36                      MB_STDIM.ASM   5-24-2019  13:22:05         PAGE 49


LOC  OBJECT CODE     LINE SOURCE TEXT
  VALUE

                          M           if (CODE_SIZE > 2)
                          M             if (((LCDOUT) & 1800h) == 0)
013D   018A               M         clrf    PCLATH
                          M             else
                          M               if (((LCDOUT) & 800h) == 0)
                          M         bcf     PCLATH, 3
                          M               else
                          M         bsf     PCLATH, 3
                          M               endif
                          M               if (CODE_SIZE > 4)
                          M                 if (((LCDOUT) & 1000h) == 0)
                          M         bcf     PCLATH, 4
                          M                 else
                          M         bsf     PCLATH, 4
                          M                 endif   
                          M               endif
                          M             endif
                          M           endif
                          M         endif
                          M       endif
                          M     endif
                          M 
013E   204C               M         call    LCDOUT
                      00446         LCDOUT?C        001h
013F   3001               M         movlw   001h
                          M         L?CALL  LCDOUT
                          M         RST?RP
                          M     if ((PREV_BANK & 1) != 0)
                          M         bcf     STATUS, RP0
                          M     endif
                          M     if ((PREV_BANK & 2) != 0)
                          M         bcf     STATUS, RP1
                          M     endif
  00000000                M PREV_BANK = 0
                          M 
                          M     ifdef USE_LINKER
                          M       if (CODE_SIZE > 2)
                          M         pagesel LCDOUT
                          M       endif
                          M     else
                          M       if ((LCDOUT) < 1)
                          M         if (CODE_SIZE > 2)
                          M           if (((LCDOUT) & 800h) == 0)
                          M         bcf     PCLATH, 3
                          M         else
                          M         bsf     PCLATH, 3
                          M         endif
                          M         endif
                          M         if (CODE_SIZE > 4)
                          M           if (((LCDOUT) & 1000h) == 0)
                          M         bcf     PCLATH, 4
                          M           else
                          M         bsf     PCLATH, 4
MPASM  5.36                      MB_STDIM.ASM   5-24-2019  13:22:05         PAGE 50


LOC  OBJECT CODE     LINE SOURCE TEXT
  VALUE

                          M           endif
                          M         endif
                          M       else
                          M         if ((LCDOUT) > $)
                          M           if (CODE_SIZE > 2)
                          M             if (((LCDOUT) & 800h) == 0)
                          M         bcf     PCLATH, 3
                          M             else
                          M         bsf     PCLATH, 3
                          M             endif
                          M           endif
                          M           if (CODE_SIZE > 4)
                          M             if (((LCDOUT) & 1000h) == 0)
                          M         bcf     PCLATH, 4
                          M             else
                          M         bsf     PCLATH, 4
                          M             endif
                          M           endif
                          M         else
                          M           if (CODE_SIZE > 2)
                          M             if (((LCDOUT) & 1800h) == 0)
0140   018A               M         clrf    PCLATH
                          M             else
                          M               if (((LCDOUT) & 800h) == 0)
                          M         bcf     PCLATH, 3
                          M               else
                          M         bsf     PCLATH, 3
                          M               endif
                          M               if (CODE_SIZE > 4)
                          M                 if (((LCDOUT) & 1000h) == 0)
                          M         bcf     PCLATH, 4
                          M                 else
                          M         bsf     PCLATH, 4
                          M                 endif   
                          M               endif
                          M             endif
                          M           endif
                          M         endif
                          M       endif
                          M     endif
                          M 
0141   204C               M         call    LCDOUT
                      00447 
                      00448 ; C:\USERS\JESSADA\DESKTOP\LED DIMMER PROJECT\PIC16F886\MB_STDIM.BAS    00248   Z0002F                  
                            Lcdout "Hello" ' Display Hello
0142                  00449 Z0002F
                      00450         LCDOUT?C        048h
0142   3048               M         movlw   048h
                          M         L?CALL  LCDOUT
                          M         RST?RP
                          M     if ((PREV_BANK & 1) != 0)
                          M         bcf     STATUS, RP0
                          M     endif
MPASM  5.36                      MB_STDIM.ASM   5-24-2019  13:22:05         PAGE 51


LOC  OBJECT CODE     LINE SOURCE TEXT
  VALUE

                          M     if ((PREV_BANK & 2) != 0)
                          M         bcf     STATUS, RP1
                          M     endif
  00000000                M PREV_BANK = 0
                          M 
                          M     ifdef USE_LINKER
                          M       if (CODE_SIZE > 2)
                          M         pagesel LCDOUT
                          M       endif
                          M     else
                          M       if ((LCDOUT) < 1)
                          M         if (CODE_SIZE > 2)
                          M           if (((LCDOUT) & 800h) == 0)
                          M         bcf     PCLATH, 3
                          M         else
                          M         bsf     PCLATH, 3
                          M         endif
                          M         endif
                          M         if (CODE_SIZE > 4)
                          M           if (((LCDOUT) & 1000h) == 0)
                          M         bcf     PCLATH, 4
                          M           else
                          M         bsf     PCLATH, 4
                          M           endif
                          M         endif
                          M       else
                          M         if ((LCDOUT) > $)
                          M           if (CODE_SIZE > 2)
                          M             if (((LCDOUT) & 800h) == 0)
                          M         bcf     PCLATH, 3
                          M             else
                          M         bsf     PCLATH, 3
                          M             endif
                          M           endif
                          M           if (CODE_SIZE > 4)
                          M             if (((LCDOUT) & 1000h) == 0)
                          M         bcf     PCLATH, 4
                          M             else
                          M         bsf     PCLATH, 4
                          M             endif
                          M           endif
                          M         else
                          M           if (CODE_SIZE > 2)
                          M             if (((LCDOUT) & 1800h) == 0)
0143   018A               M         clrf    PCLATH
                          M             else
                          M               if (((LCDOUT) & 800h) == 0)
                          M         bcf     PCLATH, 3
                          M               else
                          M         bsf     PCLATH, 3
                          M               endif
                          M               if (CODE_SIZE > 4)
                          M                 if (((LCDOUT) & 1000h) == 0)
MPASM  5.36                      MB_STDIM.ASM   5-24-2019  13:22:05         PAGE 52


LOC  OBJECT CODE     LINE SOURCE TEXT
  VALUE

                          M         bcf     PCLATH, 4
                          M                 else
                          M         bsf     PCLATH, 4
                          M                 endif   
                          M               endif
                          M             endif
                          M           endif
                          M         endif
                          M       endif
                          M     endif
                          M 
0144   204C               M         call    LCDOUT
                      00451         LCDOUT?C        065h
0145   3065               M         movlw   065h
                          M         L?CALL  LCDOUT
                          M         RST?RP
                          M     if ((PREV_BANK & 1) != 0)
                          M         bcf     STATUS, RP0
                          M     endif
                          M     if ((PREV_BANK & 2) != 0)
                          M         bcf     STATUS, RP1
                          M     endif
  00000000                M PREV_BANK = 0
                          M 
                          M     ifdef USE_LINKER
                          M       if (CODE_SIZE > 2)
                          M         pagesel LCDOUT
                          M       endif
                          M     else
                          M       if ((LCDOUT) < 1)
                          M         if (CODE_SIZE > 2)
                          M           if (((LCDOUT) & 800h) == 0)
                          M         bcf     PCLATH, 3
                          M         else
                          M         bsf     PCLATH, 3
                          M         endif
                          M         endif
                          M         if (CODE_SIZE > 4)
                          M           if (((LCDOUT) & 1000h) == 0)
                          M         bcf     PCLATH, 4
                          M           else
                          M         bsf     PCLATH, 4
                          M           endif
                          M         endif
                          M       else
                          M         if ((LCDOUT) > $)
                          M           if (CODE_SIZE > 2)
                          M             if (((LCDOUT) & 800h) == 0)
                          M         bcf     PCLATH, 3
                          M             else
                          M         bsf     PCLATH, 3
                          M             endif
                          M           endif
MPASM  5.36                      MB_STDIM.ASM   5-24-2019  13:22:05         PAGE 53


LOC  OBJECT CODE     LINE SOURCE TEXT
  VALUE

                          M           if (CODE_SIZE > 4)
                          M             if (((LCDOUT) & 1000h) == 0)
                          M         bcf     PCLATH, 4
                          M             else
                          M         bsf     PCLATH, 4
                          M             endif
                          M           endif
                          M         else
                          M           if (CODE_SIZE > 2)
                          M             if (((LCDOUT) & 1800h) == 0)
0146   018A               M         clrf    PCLATH
                          M             else
                          M               if (((LCDOUT) & 800h) == 0)
                          M         bcf     PCLATH, 3
                          M               else
                          M         bsf     PCLATH, 3
                          M               endif
                          M               if (CODE_SIZE > 4)
                          M                 if (((LCDOUT) & 1000h) == 0)
                          M         bcf     PCLATH, 4
                          M                 else
                          M         bsf     PCLATH, 4
                          M                 endif   
                          M               endif
                          M             endif
                          M           endif
                          M         endif
                          M       endif
                          M     endif
                          M 
0147   204C               M         call    LCDOUT
                      00452         LCDOUT?C        06Ch
0148   306C               M         movlw   06Ch
                          M         L?CALL  LCDOUT
                          M         RST?RP
                          M     if ((PREV_BANK & 1) != 0)
                          M         bcf     STATUS, RP0
                          M     endif
                          M     if ((PREV_BANK & 2) != 0)
                          M         bcf     STATUS, RP1
                          M     endif
  00000000                M PREV_BANK = 0
                          M 
                          M     ifdef USE_LINKER
                          M       if (CODE_SIZE > 2)
                          M         pagesel LCDOUT
                          M       endif
                          M     else
                          M       if ((LCDOUT) < 1)
                          M         if (CODE_SIZE > 2)
                          M           if (((LCDOUT) & 800h) == 0)
                          M         bcf     PCLATH, 3
                          M         else
MPASM  5.36                      MB_STDIM.ASM   5-24-2019  13:22:05         PAGE 54


LOC  OBJECT CODE     LINE SOURCE TEXT
  VALUE

                          M         bsf     PCLATH, 3
                          M         endif
                          M         endif
                          M         if (CODE_SIZE > 4)
                          M           if (((LCDOUT) & 1000h) == 0)
                          M         bcf     PCLATH, 4
                          M           else
                          M         bsf     PCLATH, 4
                          M           endif
                          M         endif
                          M       else
                          M         if ((LCDOUT) > $)
                          M           if (CODE_SIZE > 2)
                          M             if (((LCDOUT) & 800h) == 0)
                          M         bcf     PCLATH, 3
                          M             else
                          M         bsf     PCLATH, 3
                          M             endif
                          M           endif
                          M           if (CODE_SIZE > 4)
                          M             if (((LCDOUT) & 1000h) == 0)
                          M         bcf     PCLATH, 4
                          M             else
                          M         bsf     PCLATH, 4
                          M             endif
                          M           endif
                          M         else
                          M           if (CODE_SIZE > 2)
                          M             if (((LCDOUT) & 1800h) == 0)
0149   018A               M         clrf    PCLATH
                          M             else
                          M               if (((LCDOUT) & 800h) == 0)
                          M         bcf     PCLATH, 3
                          M               else
                          M         bsf     PCLATH, 3
                          M               endif
                          M               if (CODE_SIZE > 4)
                          M                 if (((LCDOUT) & 1000h) == 0)
                          M         bcf     PCLATH, 4
                          M                 else
                          M         bsf     PCLATH, 4
                          M                 endif   
                          M               endif
                          M             endif
                          M           endif
                          M         endif
                          M       endif
                          M     endif
                          M 
014A   204C               M         call    LCDOUT
                      00453         LCDOUT?C        06Ch
014B   306C               M         movlw   06Ch
                          M         L?CALL  LCDOUT
MPASM  5.36                      MB_STDIM.ASM   5-24-2019  13:22:05         PAGE 55


LOC  OBJECT CODE     LINE SOURCE TEXT
  VALUE

                          M         RST?RP
                          M     if ((PREV_BANK & 1) != 0)
                          M         bcf     STATUS, RP0
                          M     endif
                          M     if ((PREV_BANK & 2) != 0)
                          M         bcf     STATUS, RP1
                          M     endif
  00000000                M PREV_BANK = 0
                          M 
                          M     ifdef USE_LINKER
                          M       if (CODE_SIZE > 2)
                          M         pagesel LCDOUT
                          M       endif
                          M     else
                          M       if ((LCDOUT) < 1)
                          M         if (CODE_SIZE > 2)
                          M           if (((LCDOUT) & 800h) == 0)
                          M         bcf     PCLATH, 3
                          M         else
                          M         bsf     PCLATH, 3
                          M         endif
                          M         endif
                          M         if (CODE_SIZE > 4)
                          M           if (((LCDOUT) & 1000h) == 0)
                          M         bcf     PCLATH, 4
                          M           else
                          M         bsf     PCLATH, 4
                          M           endif
                          M         endif
                          M       else
                          M         if ((LCDOUT) > $)
                          M           if (CODE_SIZE > 2)
                          M             if (((LCDOUT) & 800h) == 0)
                          M         bcf     PCLATH, 3
                          M             else
                          M         bsf     PCLATH, 3
                          M             endif
                          M           endif
                          M           if (CODE_SIZE > 4)
                          M             if (((LCDOUT) & 1000h) == 0)
                          M         bcf     PCLATH, 4
                          M             else
                          M         bsf     PCLATH, 4
                          M             endif
                          M           endif
                          M         else
                          M           if (CODE_SIZE > 2)
                          M             if (((LCDOUT) & 1800h) == 0)
014C   018A               M         clrf    PCLATH
                          M             else
                          M               if (((LCDOUT) & 800h) == 0)
                          M         bcf     PCLATH, 3
                          M               else
MPASM  5.36                      MB_STDIM.ASM   5-24-2019  13:22:05         PAGE 56


LOC  OBJECT CODE     LINE SOURCE TEXT
  VALUE

                          M         bsf     PCLATH, 3
                          M               endif
                          M               if (CODE_SIZE > 4)
                          M                 if (((LCDOUT) & 1000h) == 0)
                          M         bcf     PCLATH, 4
                          M                 else
                          M         bsf     PCLATH, 4
                          M                 endif   
                          M               endif
                          M             endif
                          M           endif
                          M         endif
                          M       endif
                          M     endif
                          M 
014D   204C               M         call    LCDOUT
                      00454         LCDOUT?C        06Fh
014E   306F               M         movlw   06Fh
                          M         L?CALL  LCDOUT
                          M         RST?RP
                          M     if ((PREV_BANK & 1) != 0)
                          M         bcf     STATUS, RP0
                          M     endif
                          M     if ((PREV_BANK & 2) != 0)
                          M         bcf     STATUS, RP1
                          M     endif
  00000000                M PREV_BANK = 0
                          M 
                          M     ifdef USE_LINKER
                          M       if (CODE_SIZE > 2)
                          M         pagesel LCDOUT
                          M       endif
                          M     else
                          M       if ((LCDOUT) < 1)
                          M         if (CODE_SIZE > 2)
                          M           if (((LCDOUT) & 800h) == 0)
                          M         bcf     PCLATH, 3
                          M         else
                          M         bsf     PCLATH, 3
                          M         endif
                          M         endif
                          M         if (CODE_SIZE > 4)
                          M           if (((LCDOUT) & 1000h) == 0)
                          M         bcf     PCLATH, 4
                          M           else
                          M         bsf     PCLATH, 4
                          M           endif
                          M         endif
                          M       else
                          M         if ((LCDOUT) > $)
                          M           if (CODE_SIZE > 2)
                          M             if (((LCDOUT) & 800h) == 0)
                          M         bcf     PCLATH, 3
MPASM  5.36                      MB_STDIM.ASM   5-24-2019  13:22:05         PAGE 57


LOC  OBJECT CODE     LINE SOURCE TEXT
  VALUE

                          M             else
                          M         bsf     PCLATH, 3
                          M             endif
                          M           endif
                          M           if (CODE_SIZE > 4)
                          M             if (((LCDOUT) & 1000h) == 0)
                          M         bcf     PCLATH, 4
                          M             else
                          M         bsf     PCLATH, 4
                          M             endif
                          M           endif
                          M         else
                          M           if (CODE_SIZE > 2)
                          M             if (((LCDOUT) & 1800h) == 0)
014F   018A               M         clrf    PCLATH
                          M             else
                          M               if (((LCDOUT) & 800h) == 0)
                          M         bcf     PCLATH, 3
                          M               else
                          M         bsf     PCLATH, 3
                          M               endif
                          M               if (CODE_SIZE > 4)
                          M                 if (((LCDOUT) & 1000h) == 0)
                          M         bcf     PCLATH, 4
                          M                 else
                          M         bsf     PCLATH, 4
                          M                 endif   
                          M               endif
                          M             endif
                          M           endif
                          M         endif
                          M       endif
                          M     endif
                          M 
0150   204C               M         call    LCDOUT
                      00455 
                      00456 ; C:\USERS\JESSADA\DESKTOP\LED DIMMER PROJECT\PIC16F886\MB_STDIM.BAS    00250   Z00030                  
                            Lcdout $fe, $c0 ' Clear LCD screen
0151                  00457 Z00030
                      00458         LCDOUT?C        0FEh
0151   30FE               M         movlw   0FEh
                          M         L?CALL  LCDOUT
                          M         RST?RP
                          M     if ((PREV_BANK & 1) != 0)
                          M         bcf     STATUS, RP0
                          M     endif
                          M     if ((PREV_BANK & 2) != 0)
                          M         bcf     STATUS, RP1
                          M     endif
  00000000                M PREV_BANK = 0
                          M 
                          M     ifdef USE_LINKER
                          M       if (CODE_SIZE > 2)
MPASM  5.36                      MB_STDIM.ASM   5-24-2019  13:22:05         PAGE 58


LOC  OBJECT CODE     LINE SOURCE TEXT
  VALUE

                          M         pagesel LCDOUT
                          M       endif
                          M     else
                          M       if ((LCDOUT) < 1)
                          M         if (CODE_SIZE > 2)
                          M           if (((LCDOUT) & 800h) == 0)
                          M         bcf     PCLATH, 3
                          M         else
                          M         bsf     PCLATH, 3
                          M         endif
                          M         endif
                          M         if (CODE_SIZE > 4)
                          M           if (((LCDOUT) & 1000h) == 0)
                          M         bcf     PCLATH, 4
                          M           else
                          M         bsf     PCLATH, 4
                          M           endif
                          M         endif
                          M       else
                          M         if ((LCDOUT) > $)
                          M           if (CODE_SIZE > 2)
                          M             if (((LCDOUT) & 800h) == 0)
                          M         bcf     PCLATH, 3
                          M             else
                          M         bsf     PCLATH, 3
                          M             endif
                          M           endif
                          M           if (CODE_SIZE > 4)
                          M             if (((LCDOUT) & 1000h) == 0)
                          M         bcf     PCLATH, 4
                          M             else
                          M         bsf     PCLATH, 4
                          M             endif
                          M           endif
                          M         else
                          M           if (CODE_SIZE > 2)
                          M             if (((LCDOUT) & 1800h) == 0)
0152   018A               M         clrf    PCLATH
                          M             else
                          M               if (((LCDOUT) & 800h) == 0)
                          M         bcf     PCLATH, 3
                          M               else
                          M         bsf     PCLATH, 3
                          M               endif
                          M               if (CODE_SIZE > 4)
                          M                 if (((LCDOUT) & 1000h) == 0)
                          M         bcf     PCLATH, 4
                          M                 else
                          M         bsf     PCLATH, 4
                          M                 endif   
                          M               endif
                          M             endif
                          M           endif
MPASM  5.36                      MB_STDIM.ASM   5-24-2019  13:22:05         PAGE 59


LOC  OBJECT CODE     LINE SOURCE TEXT
  VALUE

                          M         endif
                          M       endif
                          M     endif
                          M 
0153   204C               M         call    LCDOUT
                      00459         LCDOUT?C        0C0h
0154   30C0               M         movlw   0C0h
                          M         L?CALL  LCDOUT
                          M         RST?RP
                          M     if ((PREV_BANK & 1) != 0)
                          M         bcf     STATUS, RP0
                          M     endif
                          M     if ((PREV_BANK & 2) != 0)
                          M         bcf     STATUS, RP1
                          M     endif
  00000000                M PREV_BANK = 0
                          M 
                          M     ifdef USE_LINKER
                          M       if (CODE_SIZE > 2)
                          M         pagesel LCDOUT
                          M       endif
                          M     else
                          M       if ((LCDOUT) < 1)
                          M         if (CODE_SIZE > 2)
                          M           if (((LCDOUT) & 800h) == 0)
                          M         bcf     PCLATH, 3
                          M         else
                          M         bsf     PCLATH, 3
                          M         endif
                          M         endif
                          M         if (CODE_SIZE > 4)
                          M           if (((LCDOUT) & 1000h) == 0)
                          M         bcf     PCLATH, 4
                          M           else
                          M         bsf     PCLATH, 4
                          M           endif
                          M         endif
                          M       else
                          M         if ((LCDOUT) > $)
                          M           if (CODE_SIZE > 2)
                          M             if (((LCDOUT) & 800h) == 0)
                          M         bcf     PCLATH, 3
                          M             else
                          M         bsf     PCLATH, 3
                          M             endif
                          M           endif
                          M           if (CODE_SIZE > 4)
                          M             if (((LCDOUT) & 1000h) == 0)
                          M         bcf     PCLATH, 4
                          M             else
                          M         bsf     PCLATH, 4
                          M             endif
                          M           endif
MPASM  5.36                      MB_STDIM.ASM   5-24-2019  13:22:05         PAGE 60


LOC  OBJECT CODE     LINE SOURCE TEXT
  VALUE

                          M         else
                          M           if (CODE_SIZE > 2)
                          M             if (((LCDOUT) & 1800h) == 0)
0155   018A               M         clrf    PCLATH
                          M             else
                          M               if (((LCDOUT) & 800h) == 0)
                          M         bcf     PCLATH, 3
                          M               else
                          M         bsf     PCLATH, 3
                          M               endif
                          M               if (CODE_SIZE > 4)
                          M                 if (((LCDOUT) & 1000h) == 0)
                          M         bcf     PCLATH, 4
                          M                 else
                          M         bsf     PCLATH, 4
                          M                 endif   
                          M               endif
                          M             endif
                          M           endif
                          M         endif
                          M       endif
                          M     endif
                          M 
0156   204C               M         call    LCDOUT
                      00460 
                      00461 ; C:\USERS\JESSADA\DESKTOP\LED DIMMER PROJECT\PIC16F886\MB_STDIM.BAS    00251   Z00031                  
                            Lcdout "PWM == ", #CCPR1L  
0157                  00462 Z00031
                      00463         LCDOUT?C        050h
0157   3050               M         movlw   050h
                          M         L?CALL  LCDOUT
                          M         RST?RP
                          M     if ((PREV_BANK & 1) != 0)
                          M         bcf     STATUS, RP0
                          M     endif
                          M     if ((PREV_BANK & 2) != 0)
                          M         bcf     STATUS, RP1
                          M     endif
  00000000                M PREV_BANK = 0
                          M 
                          M     ifdef USE_LINKER
                          M       if (CODE_SIZE > 2)
                          M         pagesel LCDOUT
                          M       endif
                          M     else
                          M       if ((LCDOUT) < 1)
                          M         if (CODE_SIZE > 2)
                          M           if (((LCDOUT) & 800h) == 0)
                          M         bcf     PCLATH, 3
                          M         else
                          M         bsf     PCLATH, 3
                          M         endif
                          M         endif
MPASM  5.36                      MB_STDIM.ASM   5-24-2019  13:22:05         PAGE 61


LOC  OBJECT CODE     LINE SOURCE TEXT
  VALUE

                          M         if (CODE_SIZE > 4)
                          M           if (((LCDOUT) & 1000h) == 0)
                          M         bcf     PCLATH, 4
                          M           else
                          M         bsf     PCLATH, 4
                          M           endif
                          M         endif
                          M       else
                          M         if ((LCDOUT) > $)
                          M           if (CODE_SIZE > 2)
                          M             if (((LCDOUT) & 800h) == 0)
                          M         bcf     PCLATH, 3
                          M             else
                          M         bsf     PCLATH, 3
                          M             endif
                          M           endif
                          M           if (CODE_SIZE > 4)
                          M             if (((LCDOUT) & 1000h) == 0)
                          M         bcf     PCLATH, 4
                          M             else
                          M         bsf     PCLATH, 4
                          M             endif
                          M           endif
                          M         else
                          M           if (CODE_SIZE > 2)
                          M             if (((LCDOUT) & 1800h) == 0)
0158   018A               M         clrf    PCLATH
                          M             else
                          M               if (((LCDOUT) & 800h) == 0)
                          M         bcf     PCLATH, 3
                          M               else
                          M         bsf     PCLATH, 3
                          M               endif
                          M               if (CODE_SIZE > 4)
                          M                 if (((LCDOUT) & 1000h) == 0)
                          M         bcf     PCLATH, 4
                          M                 else
                          M         bsf     PCLATH, 4
                          M                 endif   
                          M               endif
                          M             endif
                          M           endif
                          M         endif
                          M       endif
                          M     endif
                          M 
0159   204C               M         call    LCDOUT
                      00464         LCDOUT?C        057h
015A   3057               M         movlw   057h
                          M         L?CALL  LCDOUT
                          M         RST?RP
                          M     if ((PREV_BANK & 1) != 0)
                          M         bcf     STATUS, RP0
MPASM  5.36                      MB_STDIM.ASM   5-24-2019  13:22:05         PAGE 62


LOC  OBJECT CODE     LINE SOURCE TEXT
  VALUE

                          M     endif
                          M     if ((PREV_BANK & 2) != 0)
                          M         bcf     STATUS, RP1
                          M     endif
  00000000                M PREV_BANK = 0
                          M 
                          M     ifdef USE_LINKER
                          M       if (CODE_SIZE > 2)
                          M         pagesel LCDOUT
                          M       endif
                          M     else
                          M       if ((LCDOUT) < 1)
                          M         if (CODE_SIZE > 2)
                          M           if (((LCDOUT) & 800h) == 0)
                          M         bcf     PCLATH, 3
                          M         else
                          M         bsf     PCLATH, 3
                          M         endif
                          M         endif
                          M         if (CODE_SIZE > 4)
                          M           if (((LCDOUT) & 1000h) == 0)
                          M         bcf     PCLATH, 4
                          M           else
                          M         bsf     PCLATH, 4
                          M           endif
                          M         endif
                          M       else
                          M         if ((LCDOUT) > $)
                          M           if (CODE_SIZE > 2)
                          M             if (((LCDOUT) & 800h) == 0)
                          M         bcf     PCLATH, 3
                          M             else
                          M         bsf     PCLATH, 3
                          M             endif
                          M           endif
                          M           if (CODE_SIZE > 4)
                          M             if (((LCDOUT) & 1000h) == 0)
                          M         bcf     PCLATH, 4
                          M             else
                          M         bsf     PCLATH, 4
                          M             endif
                          M           endif
                          M         else
                          M           if (CODE_SIZE > 2)
                          M             if (((LCDOUT) & 1800h) == 0)
015B   018A               M         clrf    PCLATH
                          M             else
                          M               if (((LCDOUT) & 800h) == 0)
                          M         bcf     PCLATH, 3
                          M               else
                          M         bsf     PCLATH, 3
                          M               endif
                          M               if (CODE_SIZE > 4)
MPASM  5.36                      MB_STDIM.ASM   5-24-2019  13:22:05         PAGE 63


LOC  OBJECT CODE     LINE SOURCE TEXT
  VALUE

                          M                 if (((LCDOUT) & 1000h) == 0)
                          M         bcf     PCLATH, 4
                          M                 else
                          M         bsf     PCLATH, 4
                          M                 endif   
                          M               endif
                          M             endif
                          M           endif
                          M         endif
                          M       endif
                          M     endif
                          M 
015C   204C               M         call    LCDOUT
                      00465         LCDOUT?C        04Dh
015D   304D               M         movlw   04Dh
                          M         L?CALL  LCDOUT
                          M         RST?RP
                          M     if ((PREV_BANK & 1) != 0)
                          M         bcf     STATUS, RP0
                          M     endif
                          M     if ((PREV_BANK & 2) != 0)
                          M         bcf     STATUS, RP1
                          M     endif
  00000000                M PREV_BANK = 0
                          M 
                          M     ifdef USE_LINKER
                          M       if (CODE_SIZE > 2)
                          M         pagesel LCDOUT
                          M       endif
                          M     else
                          M       if ((LCDOUT) < 1)
                          M         if (CODE_SIZE > 2)
                          M           if (((LCDOUT) & 800h) == 0)
                          M         bcf     PCLATH, 3
                          M         else
                          M         bsf     PCLATH, 3
                          M         endif
                          M         endif
                          M         if (CODE_SIZE > 4)
                          M           if (((LCDOUT) & 1000h) == 0)
                          M         bcf     PCLATH, 4
                          M           else
                          M         bsf     PCLATH, 4
                          M           endif
                          M         endif
                          M       else
                          M         if ((LCDOUT) > $)
                          M           if (CODE_SIZE > 2)
                          M             if (((LCDOUT) & 800h) == 0)
                          M         bcf     PCLATH, 3
                          M             else
                          M         bsf     PCLATH, 3
                          M             endif
MPASM  5.36                      MB_STDIM.ASM   5-24-2019  13:22:05         PAGE 64


LOC  OBJECT CODE     LINE SOURCE TEXT
  VALUE

                          M           endif
                          M           if (CODE_SIZE > 4)
                          M             if (((LCDOUT) & 1000h) == 0)
                          M         bcf     PCLATH, 4
                          M             else
                          M         bsf     PCLATH, 4
                          M             endif
                          M           endif
                          M         else
                          M           if (CODE_SIZE > 2)
                          M             if (((LCDOUT) & 1800h) == 0)
015E   018A               M         clrf    PCLATH
                          M             else
                          M               if (((LCDOUT) & 800h) == 0)
                          M         bcf     PCLATH, 3
                          M               else
                          M         bsf     PCLATH, 3
                          M               endif
                          M               if (CODE_SIZE > 4)
                          M                 if (((LCDOUT) & 1000h) == 0)
                          M         bcf     PCLATH, 4
                          M                 else
                          M         bsf     PCLATH, 4
                          M                 endif   
                          M               endif
                          M             endif
                          M           endif
                          M         endif
                          M       endif
                          M     endif
                          M 
015F   204C               M         call    LCDOUT
                      00466         LCDOUT?C        020h
0160   3020               M         movlw   020h
                          M         L?CALL  LCDOUT
                          M         RST?RP
                          M     if ((PREV_BANK & 1) != 0)
                          M         bcf     STATUS, RP0
                          M     endif
                          M     if ((PREV_BANK & 2) != 0)
                          M         bcf     STATUS, RP1
                          M     endif
  00000000                M PREV_BANK = 0
                          M 
                          M     ifdef USE_LINKER
                          M       if (CODE_SIZE > 2)
                          M         pagesel LCDOUT
                          M       endif
                          M     else
                          M       if ((LCDOUT) < 1)
                          M         if (CODE_SIZE > 2)
                          M           if (((LCDOUT) & 800h) == 0)
                          M         bcf     PCLATH, 3
MPASM  5.36                      MB_STDIM.ASM   5-24-2019  13:22:05         PAGE 65


LOC  OBJECT CODE     LINE SOURCE TEXT
  VALUE

                          M         else
                          M         bsf     PCLATH, 3
                          M         endif
                          M         endif
                          M         if (CODE_SIZE > 4)
                          M           if (((LCDOUT) & 1000h) == 0)
                          M         bcf     PCLATH, 4
                          M           else
                          M         bsf     PCLATH, 4
                          M           endif
                          M         endif
                          M       else
                          M         if ((LCDOUT) > $)
                          M           if (CODE_SIZE > 2)
                          M             if (((LCDOUT) & 800h) == 0)
                          M         bcf     PCLATH, 3
                          M             else
                          M         bsf     PCLATH, 3
                          M             endif
                          M           endif
                          M           if (CODE_SIZE > 4)
                          M             if (((LCDOUT) & 1000h) == 0)
                          M         bcf     PCLATH, 4
                          M             else
                          M         bsf     PCLATH, 4
                          M             endif
                          M           endif
                          M         else
                          M           if (CODE_SIZE > 2)
                          M             if (((LCDOUT) & 1800h) == 0)
0161   018A               M         clrf    PCLATH
                          M             else
                          M               if (((LCDOUT) & 800h) == 0)
                          M         bcf     PCLATH, 3
                          M               else
                          M         bsf     PCLATH, 3
                          M               endif
                          M               if (CODE_SIZE > 4)
                          M                 if (((LCDOUT) & 1000h) == 0)
                          M         bcf     PCLATH, 4
                          M                 else
                          M         bsf     PCLATH, 4
                          M                 endif   
                          M               endif
                          M             endif
                          M           endif
                          M         endif
                          M       endif
                          M     endif
                          M 
0162   204C               M         call    LCDOUT
                      00467         LCDOUT?C        03Dh
0163   303D               M         movlw   03Dh
MPASM  5.36                      MB_STDIM.ASM   5-24-2019  13:22:05         PAGE 66


LOC  OBJECT CODE     LINE SOURCE TEXT
  VALUE

                          M         L?CALL  LCDOUT
                          M         RST?RP
                          M     if ((PREV_BANK & 1) != 0)
                          M         bcf     STATUS, RP0
                          M     endif
                          M     if ((PREV_BANK & 2) != 0)
                          M         bcf     STATUS, RP1
                          M     endif
  00000000                M PREV_BANK = 0
                          M 
                          M     ifdef USE_LINKER
                          M       if (CODE_SIZE > 2)
                          M         pagesel LCDOUT
                          M       endif
                          M     else
                          M       if ((LCDOUT) < 1)
                          M         if (CODE_SIZE > 2)
                          M           if (((LCDOUT) & 800h) == 0)
                          M         bcf     PCLATH, 3
                          M         else
                          M         bsf     PCLATH, 3
                          M         endif
                          M         endif
                          M         if (CODE_SIZE > 4)
                          M           if (((LCDOUT) & 1000h) == 0)
                          M         bcf     PCLATH, 4
                          M           else
                          M         bsf     PCLATH, 4
                          M           endif
                          M         endif
                          M       else
                          M         if ((LCDOUT) > $)
                          M           if (CODE_SIZE > 2)
                          M             if (((LCDOUT) & 800h) == 0)
                          M         bcf     PCLATH, 3
                          M             else
                          M         bsf     PCLATH, 3
                          M             endif
                          M           endif
                          M           if (CODE_SIZE > 4)
                          M             if (((LCDOUT) & 1000h) == 0)
                          M         bcf     PCLATH, 4
                          M             else
                          M         bsf     PCLATH, 4
                          M             endif
                          M           endif
                          M         else
                          M           if (CODE_SIZE > 2)
                          M             if (((LCDOUT) & 1800h) == 0)
0164   018A               M         clrf    PCLATH
                          M             else
                          M               if (((LCDOUT) & 800h) == 0)
                          M         bcf     PCLATH, 3
MPASM  5.36                      MB_STDIM.ASM   5-24-2019  13:22:05         PAGE 67


LOC  OBJECT CODE     LINE SOURCE TEXT
  VALUE

                          M               else
                          M         bsf     PCLATH, 3
                          M               endif
                          M               if (CODE_SIZE > 4)
                          M                 if (((LCDOUT) & 1000h) == 0)
                          M         bcf     PCLATH, 4
                          M                 else
                          M         bsf     PCLATH, 4
                          M                 endif   
                          M               endif
                          M             endif
                          M           endif
                          M         endif
                          M       endif
                          M     endif
                          M 
0165   204C               M         call    LCDOUT
                      00468         LCDOUT?C        03Dh
0166   303D               M         movlw   03Dh
                          M         L?CALL  LCDOUT
                          M         RST?RP
                          M     if ((PREV_BANK & 1) != 0)
                          M         bcf     STATUS, RP0
                          M     endif
                          M     if ((PREV_BANK & 2) != 0)
                          M         bcf     STATUS, RP1
                          M     endif
  00000000                M PREV_BANK = 0
                          M 
                          M     ifdef USE_LINKER
                          M       if (CODE_SIZE > 2)
                          M         pagesel LCDOUT
                          M       endif
                          M     else
                          M       if ((LCDOUT) < 1)
                          M         if (CODE_SIZE > 2)
                          M           if (((LCDOUT) & 800h) == 0)
                          M         bcf     PCLATH, 3
                          M         else
                          M         bsf     PCLATH, 3
                          M         endif
                          M         endif
                          M         if (CODE_SIZE > 4)
                          M           if (((LCDOUT) & 1000h) == 0)
                          M         bcf     PCLATH, 4
                          M           else
                          M         bsf     PCLATH, 4
                          M           endif
                          M         endif
                          M       else
                          M         if ((LCDOUT) > $)
                          M           if (CODE_SIZE > 2)
                          M             if (((LCDOUT) & 800h) == 0)
MPASM  5.36                      MB_STDIM.ASM   5-24-2019  13:22:05         PAGE 68


LOC  OBJECT CODE     LINE SOURCE TEXT
  VALUE

                          M         bcf     PCLATH, 3
                          M             else
                          M         bsf     PCLATH, 3
                          M             endif
                          M           endif
                          M           if (CODE_SIZE > 4)
                          M             if (((LCDOUT) & 1000h) == 0)
                          M         bcf     PCLATH, 4
                          M             else
                          M         bsf     PCLATH, 4
                          M             endif
                          M           endif
                          M         else
                          M           if (CODE_SIZE > 2)
                          M             if (((LCDOUT) & 1800h) == 0)
0167   018A               M         clrf    PCLATH
                          M             else
                          M               if (((LCDOUT) & 800h) == 0)
                          M         bcf     PCLATH, 3
                          M               else
                          M         bsf     PCLATH, 3
                          M               endif
                          M               if (CODE_SIZE > 4)
                          M                 if (((LCDOUT) & 1000h) == 0)
                          M         bcf     PCLATH, 4
                          M                 else
                          M         bsf     PCLATH, 4
                          M                 endif   
                          M               endif
                          M             endif
                          M           endif
                          M         endif
                          M       endif
                          M     endif
                          M 
0168   204C               M         call    LCDOUT
                      00469         LCDOUT?C        020h
0169   3020               M         movlw   020h
                          M         L?CALL  LCDOUT
                          M         RST?RP
                          M     if ((PREV_BANK & 1) != 0)
                          M         bcf     STATUS, RP0
                          M     endif
                          M     if ((PREV_BANK & 2) != 0)
                          M         bcf     STATUS, RP1
                          M     endif
  00000000                M PREV_BANK = 0
                          M 
                          M     ifdef USE_LINKER
                          M       if (CODE_SIZE > 2)
                          M         pagesel LCDOUT
                          M       endif
                          M     else
MPASM  5.36                      MB_STDIM.ASM   5-24-2019  13:22:05         PAGE 69


LOC  OBJECT CODE     LINE SOURCE TEXT
  VALUE

                          M       if ((LCDOUT) < 1)
                          M         if (CODE_SIZE > 2)
                          M           if (((LCDOUT) & 800h) == 0)
                          M         bcf     PCLATH, 3
                          M         else
                          M         bsf     PCLATH, 3
                          M         endif
                          M         endif
                          M         if (CODE_SIZE > 4)
                          M           if (((LCDOUT) & 1000h) == 0)
                          M         bcf     PCLATH, 4
                          M           else
                          M         bsf     PCLATH, 4
                          M           endif
                          M         endif
                          M       else
                          M         if ((LCDOUT) > $)
                          M           if (CODE_SIZE > 2)
                          M             if (((LCDOUT) & 800h) == 0)
                          M         bcf     PCLATH, 3
                          M             else
                          M         bsf     PCLATH, 3
                          M             endif
                          M           endif
                          M           if (CODE_SIZE > 4)
                          M             if (((LCDOUT) & 1000h) == 0)
                          M         bcf     PCLATH, 4
                          M             else
                          M         bsf     PCLATH, 4
                          M             endif
                          M           endif
                          M         else
                          M           if (CODE_SIZE > 2)
                          M             if (((LCDOUT) & 1800h) == 0)
016A   018A               M         clrf    PCLATH
                          M             else
                          M               if (((LCDOUT) & 800h) == 0)
                          M         bcf     PCLATH, 3
                          M               else
                          M         bsf     PCLATH, 3
                          M               endif
                          M               if (CODE_SIZE > 4)
                          M                 if (((LCDOUT) & 1000h) == 0)
                          M         bcf     PCLATH, 4
                          M                 else
                          M         bsf     PCLATH, 4
                          M                 endif   
                          M               endif
                          M             endif
                          M           endif
                          M         endif
                          M       endif
                          M     endif
MPASM  5.36                      MB_STDIM.ASM   5-24-2019  13:22:05         PAGE 70


LOC  OBJECT CODE     LINE SOURCE TEXT
  VALUE

                          M 
016B   204C               M         call    LCDOUT
                      00470         LCDOUTD?B       CCPR1L
                          M         MOVE?BA CCPR1L
                          M         CHK?RP  CCPR1L
                          M     if (((CCPR1L) & 180h) == 0)
                          M       if (PREV_BANK == 1)
                          M         bcf     STATUS, RP0
                          M       endif
                          M       if (PREV_BANK == 2)
                          M         bcf     STATUS, RP1
                          M       endif
                          M       if (PREV_BANK == 3)
                          M         bcf     STATUS, RP0
                          M         bcf     STATUS, RP1
                          M       endif
  00000000                M PREV_BANK = 0
                          M     endif
                          M 
                          M     if (((CCPR1L) & 180h) == 80h)
                          M       if (PREV_BANK == 0)
                          M         bsf     STATUS, RP0
                          M       endif
                          M       if (PREV_BANK == 2)
                          M         bsf     STATUS, RP0
                          M         bcf     STATUS, RP1
                          M       endif
                          M       if (PREV_BANK == 3)
                          M         bcf     STATUS, RP1
                          M       endif
                          M PREV_BANK = 1
                          M     endif
                          M 
                          M     if (((CCPR1L) & 180h) == 100h)
                          M       if (PREV_BANK == 0)
                          M         bsf     STATUS, RP1
                          M       endif
                          M       if (PREV_BANK == 1)
                          M         bcf     STATUS, RP0
                          M         bsf     STATUS, RP1
                          M       endif
                          M       if (PREV_BANK == 3)
                          M         bcf     STATUS, RP0
                          M       endif
                          M PREV_BANK = 2
                          M     endif
                          M 
                          M     if (((CCPR1L) & 180h) == 180h)
                          M       if (PREV_BANK == 0)
                          M         bsf     STATUS, RP0
                          M         bsf     STATUS, RP1
                          M       endif
                          M       if (PREV_BANK == 1)
MPASM  5.36                      MB_STDIM.ASM   5-24-2019  13:22:05         PAGE 71


LOC  OBJECT CODE     LINE SOURCE TEXT
  VALUE

                          M         bsf     STATUS, RP1
                          M       endif
                          M       if (PREV_BANK == 2)
                          M         bsf     STATUS, RP0
                          M       endif
                          M PREV_BANK = 3
                          M     endif
016C   0815               M         movf    CCPR1L, W
                          M         L?CALL  LCDOUTDEC
                          M         RST?RP
                          M     if ((PREV_BANK & 1) != 0)
                          M         bcf     STATUS, RP0
                          M     endif
                          M     if ((PREV_BANK & 2) != 0)
                          M         bcf     STATUS, RP1
                          M     endif
  00000000                M PREV_BANK = 0
                          M 
                          M     ifdef USE_LINKER
                          M       if (CODE_SIZE > 2)
                          M         pagesel LCDOUTDEC
                          M       endif
                          M     else
                          M       if ((LCDOUTDEC) < 1)
                          M         if (CODE_SIZE > 2)
                          M           if (((LCDOUTDEC) & 800h) == 0)
                          M         bcf     PCLATH, 3
                          M         else
                          M         bsf     PCLATH, 3
                          M         endif
                          M         endif
                          M         if (CODE_SIZE > 4)
                          M           if (((LCDOUTDEC) & 1000h) == 0)
                          M         bcf     PCLATH, 4
                          M           else
                          M         bsf     PCLATH, 4
                          M           endif
                          M         endif
                          M       else
                          M         if ((LCDOUTDEC) > $)
                          M           if (CODE_SIZE > 2)
                          M             if (((LCDOUTDEC) & 800h) == 0)
                          M         bcf     PCLATH, 3
                          M             else
                          M         bsf     PCLATH, 3
                          M             endif
                          M           endif
                          M           if (CODE_SIZE > 4)
                          M             if (((LCDOUTDEC) & 1000h) == 0)
                          M         bcf     PCLATH, 4
                          M             else
                          M         bsf     PCLATH, 4
                          M             endif
MPASM  5.36                      MB_STDIM.ASM   5-24-2019  13:22:05         PAGE 72


LOC  OBJECT CODE     LINE SOURCE TEXT
  VALUE

                          M           endif
                          M         else
                          M           if (CODE_SIZE > 2)
                          M             if (((LCDOUTDEC) & 1800h) == 0)
016D   018A               M         clrf    PCLATH
                          M             else
                          M               if (((LCDOUTDEC) & 800h) == 0)
                          M         bcf     PCLATH, 3
                          M               else
                          M         bsf     PCLATH, 3
                          M               endif
                          M               if (CODE_SIZE > 4)
                          M                 if (((LCDOUTDEC) & 1000h) == 0)
                          M         bcf     PCLATH, 4
                          M                 else
                          M         bsf     PCLATH, 4
                          M                 endif   
                          M               endif
                          M             endif
                          M           endif
                          M         endif
                          M       endif
                          M     endif
                          M 
016E   202D               M         call    LCDOUTDEC
                      00471 
                      00472 ; C:\USERS\JESSADA\DESKTOP\LED DIMMER PROJECT\PIC16F886\MB_STDIM.BAS    00253   Z00032                  
                            debug "Not found Loop!!",13,10 
016F                  00473 Z00032
                      00474         DEBUG?C 04Eh
016F   304E               M         movlw   04Eh
                          M         L?CALL  DEBUG
                          M         RST?RP
                          M     if ((PREV_BANK & 1) != 0)
                          M         bcf     STATUS, RP0
                          M     endif
                          M     if ((PREV_BANK & 2) != 0)
                          M         bcf     STATUS, RP1
                          M     endif
  00000000                M PREV_BANK = 0
                          M 
                          M     ifdef USE_LINKER
                          M       if (CODE_SIZE > 2)
                          M         pagesel DEBUG
                          M       endif
                          M     else
                          M       if ((DEBUG) < 1)
                          M         if (CODE_SIZE > 2)
                          M           if (((DEBUG) & 800h) == 0)
                          M         bcf     PCLATH, 3
                          M         else
                          M         bsf     PCLATH, 3
                          M         endif
MPASM  5.36                      MB_STDIM.ASM   5-24-2019  13:22:05         PAGE 73


LOC  OBJECT CODE     LINE SOURCE TEXT
  VALUE

                          M         endif
                          M         if (CODE_SIZE > 4)
                          M           if (((DEBUG) & 1000h) == 0)
                          M         bcf     PCLATH, 4
                          M           else
                          M         bsf     PCLATH, 4
                          M           endif
                          M         endif
                          M       else
                          M         if ((DEBUG) > $)
                          M           if (CODE_SIZE > 2)
                          M             if (((DEBUG) & 800h) == 0)
                          M         bcf     PCLATH, 3
                          M             else
                          M         bsf     PCLATH, 3
                          M             endif
                          M           endif
                          M           if (CODE_SIZE > 4)
                          M             if (((DEBUG) & 1000h) == 0)
                          M         bcf     PCLATH, 4
                          M             else
                          M         bsf     PCLATH, 4
                          M             endif
                          M           endif
                          M         else
                          M           if (CODE_SIZE > 2)
                          M             if (((DEBUG) & 1800h) == 0)
0170   018A               M         clrf    PCLATH
                          M             else
                          M               if (((DEBUG) & 800h) == 0)
                          M         bcf     PCLATH, 3
                          M               else
                          M         bsf     PCLATH, 3
                          M               endif
                          M               if (CODE_SIZE > 4)
                          M                 if (((DEBUG) & 1000h) == 0)
                          M         bcf     PCLATH, 4
                          M                 else
                          M         bsf     PCLATH, 4
                          M                 endif   
                          M               endif
                          M             endif
                          M           endif
                          M         endif
                          M       endif
                          M     endif
                          M 
0171   200D               M         call    DEBUG
                      00475         DEBUG?C 06Fh
0172   306F               M         movlw   06Fh
                          M         L?CALL  DEBUG
                          M         RST?RP
                          M     if ((PREV_BANK & 1) != 0)
MPASM  5.36                      MB_STDIM.ASM   5-24-2019  13:22:05         PAGE 74


LOC  OBJECT CODE     LINE SOURCE TEXT
  VALUE

                          M         bcf     STATUS, RP0
                          M     endif
                          M     if ((PREV_BANK & 2) != 0)
                          M         bcf     STATUS, RP1
                          M     endif
  00000000                M PREV_BANK = 0
                          M 
                          M     ifdef USE_LINKER
                          M       if (CODE_SIZE > 2)
                          M         pagesel DEBUG
                          M       endif
                          M     else
                          M       if ((DEBUG) < 1)
                          M         if (CODE_SIZE > 2)
                          M           if (((DEBUG) & 800h) == 0)
                          M         bcf     PCLATH, 3
                          M         else
                          M         bsf     PCLATH, 3
                          M         endif
                          M         endif
                          M         if (CODE_SIZE > 4)
                          M           if (((DEBUG) & 1000h) == 0)
                          M         bcf     PCLATH, 4
                          M           else
                          M         bsf     PCLATH, 4
                          M           endif
                          M         endif
                          M       else
                          M         if ((DEBUG) > $)
                          M           if (CODE_SIZE > 2)
                          M             if (((DEBUG) & 800h) == 0)
                          M         bcf     PCLATH, 3
                          M             else
                          M         bsf     PCLATH, 3
                          M             endif
                          M           endif
                          M           if (CODE_SIZE > 4)
                          M             if (((DEBUG) & 1000h) == 0)
                          M         bcf     PCLATH, 4
                          M             else
                          M         bsf     PCLATH, 4
                          M             endif
                          M           endif
                          M         else
                          M           if (CODE_SIZE > 2)
                          M             if (((DEBUG) & 1800h) == 0)
0173   018A               M         clrf    PCLATH
                          M             else
                          M               if (((DEBUG) & 800h) == 0)
                          M         bcf     PCLATH, 3
                          M               else
                          M         bsf     PCLATH, 3
                          M               endif
MPASM  5.36                      MB_STDIM.ASM   5-24-2019  13:22:05         PAGE 75


LOC  OBJECT CODE     LINE SOURCE TEXT
  VALUE

                          M               if (CODE_SIZE > 4)
                          M                 if (((DEBUG) & 1000h) == 0)
                          M         bcf     PCLATH, 4
                          M                 else
                          M         bsf     PCLATH, 4
                          M                 endif   
                          M               endif
                          M             endif
                          M           endif
                          M         endif
                          M       endif
                          M     endif
                          M 
0174   200D               M         call    DEBUG
                      00476         DEBUG?C 074h
0175   3074               M         movlw   074h
                          M         L?CALL  DEBUG
                          M         RST?RP
                          M     if ((PREV_BANK & 1) != 0)
                          M         bcf     STATUS, RP0
                          M     endif
                          M     if ((PREV_BANK & 2) != 0)
                          M         bcf     STATUS, RP1
                          M     endif
  00000000                M PREV_BANK = 0
                          M 
                          M     ifdef USE_LINKER
                          M       if (CODE_SIZE > 2)
                          M         pagesel DEBUG
                          M       endif
                          M     else
                          M       if ((DEBUG) < 1)
                          M         if (CODE_SIZE > 2)
                          M           if (((DEBUG) & 800h) == 0)
                          M         bcf     PCLATH, 3
                          M         else
                          M         bsf     PCLATH, 3
                          M         endif
                          M         endif
                          M         if (CODE_SIZE > 4)
                          M           if (((DEBUG) & 1000h) == 0)
                          M         bcf     PCLATH, 4
                          M           else
                          M         bsf     PCLATH, 4
                          M           endif
                          M         endif
                          M       else
                          M         if ((DEBUG) > $)
                          M           if (CODE_SIZE > 2)
                          M             if (((DEBUG) & 800h) == 0)
                          M         bcf     PCLATH, 3
                          M             else
                          M         bsf     PCLATH, 3
MPASM  5.36                      MB_STDIM.ASM   5-24-2019  13:22:05         PAGE 76


LOC  OBJECT CODE     LINE SOURCE TEXT
  VALUE

                          M             endif
                          M           endif
                          M           if (CODE_SIZE > 4)
                          M             if (((DEBUG) & 1000h) == 0)
                          M         bcf     PCLATH, 4
                          M             else
                          M         bsf     PCLATH, 4
                          M             endif
                          M           endif
                          M         else
                          M           if (CODE_SIZE > 2)
                          M             if (((DEBUG) & 1800h) == 0)
0176   018A               M         clrf    PCLATH
                          M             else
                          M               if (((DEBUG) & 800h) == 0)
                          M         bcf     PCLATH, 3
                          M               else
                          M         bsf     PCLATH, 3
                          M               endif
                          M               if (CODE_SIZE > 4)
                          M                 if (((DEBUG) & 1000h) == 0)
                          M         bcf     PCLATH, 4
                          M                 else
                          M         bsf     PCLATH, 4
                          M                 endif   
                          M               endif
                          M             endif
                          M           endif
                          M         endif
                          M       endif
                          M     endif
                          M 
0177   200D               M         call    DEBUG
                      00477         DEBUG?C 020h
0178   3020               M         movlw   020h
                          M         L?CALL  DEBUG
                          M         RST?RP
                          M     if ((PREV_BANK & 1) != 0)
                          M         bcf     STATUS, RP0
                          M     endif
                          M     if ((PREV_BANK & 2) != 0)
                          M         bcf     STATUS, RP1
                          M     endif
  00000000                M PREV_BANK = 0
                          M 
                          M     ifdef USE_LINKER
                          M       if (CODE_SIZE > 2)
                          M         pagesel DEBUG
                          M       endif
                          M     else
                          M       if ((DEBUG) < 1)
                          M         if (CODE_SIZE > 2)
                          M           if (((DEBUG) & 800h) == 0)
MPASM  5.36                      MB_STDIM.ASM   5-24-2019  13:22:05         PAGE 77


LOC  OBJECT CODE     LINE SOURCE TEXT
  VALUE

                          M         bcf     PCLATH, 3
                          M         else
                          M         bsf     PCLATH, 3
                          M         endif
                          M         endif
                          M         if (CODE_SIZE > 4)
                          M           if (((DEBUG) & 1000h) == 0)
                          M         bcf     PCLATH, 4
                          M           else
                          M         bsf     PCLATH, 4
                          M           endif
                          M         endif
                          M       else
                          M         if ((DEBUG) > $)
                          M           if (CODE_SIZE > 2)
                          M             if (((DEBUG) & 800h) == 0)
                          M         bcf     PCLATH, 3
                          M             else
                          M         bsf     PCLATH, 3
                          M             endif
                          M           endif
                          M           if (CODE_SIZE > 4)
                          M             if (((DEBUG) & 1000h) == 0)
                          M         bcf     PCLATH, 4
                          M             else
                          M         bsf     PCLATH, 4
                          M             endif
                          M           endif
                          M         else
                          M           if (CODE_SIZE > 2)
                          M             if (((DEBUG) & 1800h) == 0)
0179   018A               M         clrf    PCLATH
                          M             else
                          M               if (((DEBUG) & 800h) == 0)
                          M         bcf     PCLATH, 3
                          M               else
                          M         bsf     PCLATH, 3
                          M               endif
                          M               if (CODE_SIZE > 4)
                          M                 if (((DEBUG) & 1000h) == 0)
                          M         bcf     PCLATH, 4
                          M                 else
                          M         bsf     PCLATH, 4
                          M                 endif   
                          M               endif
                          M             endif
                          M           endif
                          M         endif
                          M       endif
                          M     endif
                          M 
017A   200D               M         call    DEBUG
                      00478         DEBUG?C 066h
MPASM  5.36                      MB_STDIM.ASM   5-24-2019  13:22:05         PAGE 78


LOC  OBJECT CODE     LINE SOURCE TEXT
  VALUE

017B   3066               M         movlw   066h
                          M         L?CALL  DEBUG
                          M         RST?RP
                          M     if ((PREV_BANK & 1) != 0)
                          M         bcf     STATUS, RP0
                          M     endif
                          M     if ((PREV_BANK & 2) != 0)
                          M         bcf     STATUS, RP1
                          M     endif
  00000000                M PREV_BANK = 0
                          M 
                          M     ifdef USE_LINKER
                          M       if (CODE_SIZE > 2)
                          M         pagesel DEBUG
                          M       endif
                          M     else
                          M       if ((DEBUG) < 1)
                          M         if (CODE_SIZE > 2)
                          M           if (((DEBUG) & 800h) == 0)
                          M         bcf     PCLATH, 3
                          M         else
                          M         bsf     PCLATH, 3
                          M         endif
                          M         endif
                          M         if (CODE_SIZE > 4)
                          M           if (((DEBUG) & 1000h) == 0)
                          M         bcf     PCLATH, 4
                          M           else
                          M         bsf     PCLATH, 4
                          M           endif
                          M         endif
                          M       else
                          M         if ((DEBUG) > $)
                          M           if (CODE_SIZE > 2)
                          M             if (((DEBUG) & 800h) == 0)
                          M         bcf     PCLATH, 3
                          M             else
                          M         bsf     PCLATH, 3
                          M             endif
                          M           endif
                          M           if (CODE_SIZE > 4)
                          M             if (((DEBUG) & 1000h) == 0)
                          M         bcf     PCLATH, 4
                          M             else
                          M         bsf     PCLATH, 4
                          M             endif
                          M           endif
                          M         else
                          M           if (CODE_SIZE > 2)
                          M             if (((DEBUG) & 1800h) == 0)
017C   018A               M         clrf    PCLATH
                          M             else
                          M               if (((DEBUG) & 800h) == 0)
MPASM  5.36                      MB_STDIM.ASM   5-24-2019  13:22:05         PAGE 79


LOC  OBJECT CODE     LINE SOURCE TEXT
  VALUE

                          M         bcf     PCLATH, 3
                          M               else
                          M         bsf     PCLATH, 3
                          M               endif
                          M               if (CODE_SIZE > 4)
                          M                 if (((DEBUG) & 1000h) == 0)
                          M         bcf     PCLATH, 4
                          M                 else
                          M         bsf     PCLATH, 4
                          M                 endif   
                          M               endif
                          M             endif
                          M           endif
                          M         endif
                          M       endif
                          M     endif
                          M 
017D   200D               M         call    DEBUG
                      00479         DEBUG?C 06Fh
017E   306F               M         movlw   06Fh
                          M         L?CALL  DEBUG
                          M         RST?RP
                          M     if ((PREV_BANK & 1) != 0)
                          M         bcf     STATUS, RP0
                          M     endif
                          M     if ((PREV_BANK & 2) != 0)
                          M         bcf     STATUS, RP1
                          M     endif
  00000000                M PREV_BANK = 0
                          M 
                          M     ifdef USE_LINKER
                          M       if (CODE_SIZE > 2)
                          M         pagesel DEBUG
                          M       endif
                          M     else
                          M       if ((DEBUG) < 1)
                          M         if (CODE_SIZE > 2)
                          M           if (((DEBUG) & 800h) == 0)
                          M         bcf     PCLATH, 3
                          M         else
                          M         bsf     PCLATH, 3
                          M         endif
                          M         endif
                          M         if (CODE_SIZE > 4)
                          M           if (((DEBUG) & 1000h) == 0)
                          M         bcf     PCLATH, 4
                          M           else
                          M         bsf     PCLATH, 4
                          M           endif
                          M         endif
                          M       else
                          M         if ((DEBUG) > $)
                          M           if (CODE_SIZE > 2)
MPASM  5.36                      MB_STDIM.ASM   5-24-2019  13:22:05         PAGE 80


LOC  OBJECT CODE     LINE SOURCE TEXT
  VALUE

                          M             if (((DEBUG) & 800h) == 0)
                          M         bcf     PCLATH, 3
                          M             else
                          M         bsf     PCLATH, 3
                          M             endif
                          M           endif
                          M           if (CODE_SIZE > 4)
                          M             if (((DEBUG) & 1000h) == 0)
                          M         bcf     PCLATH, 4
                          M             else
                          M         bsf     PCLATH, 4
                          M             endif
                          M           endif
                          M         else
                          M           if (CODE_SIZE > 2)
                          M             if (((DEBUG) & 1800h) == 0)
017F   018A               M         clrf    PCLATH
                          M             else
                          M               if (((DEBUG) & 800h) == 0)
                          M         bcf     PCLATH, 3
                          M               else
                          M         bsf     PCLATH, 3
                          M               endif
                          M               if (CODE_SIZE > 4)
                          M                 if (((DEBUG) & 1000h) == 0)
                          M         bcf     PCLATH, 4
                          M                 else
                          M         bsf     PCLATH, 4
                          M                 endif   
                          M               endif
                          M             endif
                          M           endif
                          M         endif
                          M       endif
                          M     endif
                          M 
0180   200D               M         call    DEBUG
                      00480         DEBUG?C 075h
0181   3075               M         movlw   075h
                          M         L?CALL  DEBUG
                          M         RST?RP
                          M     if ((PREV_BANK & 1) != 0)
                          M         bcf     STATUS, RP0
                          M     endif
                          M     if ((PREV_BANK & 2) != 0)
                          M         bcf     STATUS, RP1
                          M     endif
  00000000                M PREV_BANK = 0
                          M 
                          M     ifdef USE_LINKER
                          M       if (CODE_SIZE > 2)
                          M         pagesel DEBUG
                          M       endif
MPASM  5.36                      MB_STDIM.ASM   5-24-2019  13:22:05         PAGE 81


LOC  OBJECT CODE     LINE SOURCE TEXT
  VALUE

                          M     else
                          M       if ((DEBUG) < 1)
                          M         if (CODE_SIZE > 2)
                          M           if (((DEBUG) & 800h) == 0)
                          M         bcf     PCLATH, 3
                          M         else
                          M         bsf     PCLATH, 3
                          M         endif
                          M         endif
                          M         if (CODE_SIZE > 4)
                          M           if (((DEBUG) & 1000h) == 0)
                          M         bcf     PCLATH, 4
                          M           else
                          M         bsf     PCLATH, 4
                          M           endif
                          M         endif
                          M       else
                          M         if ((DEBUG) > $)
                          M           if (CODE_SIZE > 2)
                          M             if (((DEBUG) & 800h) == 0)
                          M         bcf     PCLATH, 3
                          M             else
                          M         bsf     PCLATH, 3
                          M             endif
                          M           endif
                          M           if (CODE_SIZE > 4)
                          M             if (((DEBUG) & 1000h) == 0)
                          M         bcf     PCLATH, 4
                          M             else
                          M         bsf     PCLATH, 4
                          M             endif
                          M           endif
                          M         else
                          M           if (CODE_SIZE > 2)
                          M             if (((DEBUG) & 1800h) == 0)
0182   018A               M         clrf    PCLATH
                          M             else
                          M               if (((DEBUG) & 800h) == 0)
                          M         bcf     PCLATH, 3
                          M               else
                          M         bsf     PCLATH, 3
                          M               endif
                          M               if (CODE_SIZE > 4)
                          M                 if (((DEBUG) & 1000h) == 0)
                          M         bcf     PCLATH, 4
                          M                 else
                          M         bsf     PCLATH, 4
                          M                 endif   
                          M               endif
                          M             endif
                          M           endif
                          M         endif
                          M       endif
MPASM  5.36                      MB_STDIM.ASM   5-24-2019  13:22:05         PAGE 82


LOC  OBJECT CODE     LINE SOURCE TEXT
  VALUE

                          M     endif
                          M 
0183   200D               M         call    DEBUG
                      00481         DEBUG?C 06Eh
0184   306E               M         movlw   06Eh
                          M         L?CALL  DEBUG
                          M         RST?RP
                          M     if ((PREV_BANK & 1) != 0)
                          M         bcf     STATUS, RP0
                          M     endif
                          M     if ((PREV_BANK & 2) != 0)
                          M         bcf     STATUS, RP1
                          M     endif
  00000000                M PREV_BANK = 0
                          M 
                          M     ifdef USE_LINKER
                          M       if (CODE_SIZE > 2)
                          M         pagesel DEBUG
                          M       endif
                          M     else
                          M       if ((DEBUG) < 1)
                          M         if (CODE_SIZE > 2)
                          M           if (((DEBUG) & 800h) == 0)
                          M         bcf     PCLATH, 3
                          M         else
                          M         bsf     PCLATH, 3
                          M         endif
                          M         endif
                          M         if (CODE_SIZE > 4)
                          M           if (((DEBUG) & 1000h) == 0)
                          M         bcf     PCLATH, 4
                          M           else
                          M         bsf     PCLATH, 4
                          M           endif
                          M         endif
                          M       else
                          M         if ((DEBUG) > $)
                          M           if (CODE_SIZE > 2)
                          M             if (((DEBUG) & 800h) == 0)
                          M         bcf     PCLATH, 3
                          M             else
                          M         bsf     PCLATH, 3
                          M             endif
                          M           endif
                          M           if (CODE_SIZE > 4)
                          M             if (((DEBUG) & 1000h) == 0)
                          M         bcf     PCLATH, 4
                          M             else
                          M         bsf     PCLATH, 4
                          M             endif
                          M           endif
                          M         else
                          M           if (CODE_SIZE > 2)
MPASM  5.36                      MB_STDIM.ASM   5-24-2019  13:22:05         PAGE 83


LOC  OBJECT CODE     LINE SOURCE TEXT
  VALUE

                          M             if (((DEBUG) & 1800h) == 0)
0185   018A               M         clrf    PCLATH
                          M             else
                          M               if (((DEBUG) & 800h) == 0)
                          M         bcf     PCLATH, 3
                          M               else
                          M         bsf     PCLATH, 3
                          M               endif
                          M               if (CODE_SIZE > 4)
                          M                 if (((DEBUG) & 1000h) == 0)
                          M         bcf     PCLATH, 4
                          M                 else
                          M         bsf     PCLATH, 4
                          M                 endif   
                          M               endif
                          M             endif
                          M           endif
                          M         endif
                          M       endif
                          M     endif
                          M 
0186   200D               M         call    DEBUG
                      00482         DEBUG?C 064h
0187   3064               M         movlw   064h
                          M         L?CALL  DEBUG
                          M         RST?RP
                          M     if ((PREV_BANK & 1) != 0)
                          M         bcf     STATUS, RP0
                          M     endif
                          M     if ((PREV_BANK & 2) != 0)
                          M         bcf     STATUS, RP1
                          M     endif
  00000000                M PREV_BANK = 0
                          M 
                          M     ifdef USE_LINKER
                          M       if (CODE_SIZE > 2)
                          M         pagesel DEBUG
                          M       endif
                          M     else
                          M       if ((DEBUG) < 1)
                          M         if (CODE_SIZE > 2)
                          M           if (((DEBUG) & 800h) == 0)
                          M         bcf     PCLATH, 3
                          M         else
                          M         bsf     PCLATH, 3
                          M         endif
                          M         endif
                          M         if (CODE_SIZE > 4)
                          M           if (((DEBUG) & 1000h) == 0)
                          M         bcf     PCLATH, 4
                          M           else
                          M         bsf     PCLATH, 4
                          M           endif
MPASM  5.36                      MB_STDIM.ASM   5-24-2019  13:22:05         PAGE 84


LOC  OBJECT CODE     LINE SOURCE TEXT
  VALUE

                          M         endif
                          M       else
                          M         if ((DEBUG) > $)
                          M           if (CODE_SIZE > 2)
                          M             if (((DEBUG) & 800h) == 0)
                          M         bcf     PCLATH, 3
                          M             else
                          M         bsf     PCLATH, 3
                          M             endif
                          M           endif
                          M           if (CODE_SIZE > 4)
                          M             if (((DEBUG) & 1000h) == 0)
                          M         bcf     PCLATH, 4
                          M             else
                          M         bsf     PCLATH, 4
                          M             endif
                          M           endif
                          M         else
                          M           if (CODE_SIZE > 2)
                          M             if (((DEBUG) & 1800h) == 0)
0188   018A               M         clrf    PCLATH
                          M             else
                          M               if (((DEBUG) & 800h) == 0)
                          M         bcf     PCLATH, 3
                          M               else
                          M         bsf     PCLATH, 3
                          M               endif
                          M               if (CODE_SIZE > 4)
                          M                 if (((DEBUG) & 1000h) == 0)
                          M         bcf     PCLATH, 4
                          M                 else
                          M         bsf     PCLATH, 4
                          M                 endif   
                          M               endif
                          M             endif
                          M           endif
                          M         endif
                          M       endif
                          M     endif
                          M 
0189   200D               M         call    DEBUG
                      00483         DEBUG?C 020h
018A   3020               M         movlw   020h
                          M         L?CALL  DEBUG
                          M         RST?RP
                          M     if ((PREV_BANK & 1) != 0)
                          M         bcf     STATUS, RP0
                          M     endif
                          M     if ((PREV_BANK & 2) != 0)
                          M         bcf     STATUS, RP1
                          M     endif
  00000000                M PREV_BANK = 0
                          M 
MPASM  5.36                      MB_STDIM.ASM   5-24-2019  13:22:05         PAGE 85


LOC  OBJECT CODE     LINE SOURCE TEXT
  VALUE

                          M     ifdef USE_LINKER
                          M       if (CODE_SIZE > 2)
                          M         pagesel DEBUG
                          M       endif
                          M     else
                          M       if ((DEBUG) < 1)
                          M         if (CODE_SIZE > 2)
                          M           if (((DEBUG) & 800h) == 0)
                          M         bcf     PCLATH, 3
                          M         else
                          M         bsf     PCLATH, 3
                          M         endif
                          M         endif
                          M         if (CODE_SIZE > 4)
                          M           if (((DEBUG) & 1000h) == 0)
                          M         bcf     PCLATH, 4
                          M           else
                          M         bsf     PCLATH, 4
                          M           endif
                          M         endif
                          M       else
                          M         if ((DEBUG) > $)
                          M           if (CODE_SIZE > 2)
                          M             if (((DEBUG) & 800h) == 0)
                          M         bcf     PCLATH, 3
                          M             else
                          M         bsf     PCLATH, 3
                          M             endif
                          M           endif
                          M           if (CODE_SIZE > 4)
                          M             if (((DEBUG) & 1000h) == 0)
                          M         bcf     PCLATH, 4
                          M             else
                          M         bsf     PCLATH, 4
                          M             endif
                          M           endif
                          M         else
                          M           if (CODE_SIZE > 2)
                          M             if (((DEBUG) & 1800h) == 0)
018B   018A               M         clrf    PCLATH
                          M             else
                          M               if (((DEBUG) & 800h) == 0)
                          M         bcf     PCLATH, 3
                          M               else
                          M         bsf     PCLATH, 3
                          M               endif
                          M               if (CODE_SIZE > 4)
                          M                 if (((DEBUG) & 1000h) == 0)
                          M         bcf     PCLATH, 4
                          M                 else
                          M         bsf     PCLATH, 4
                          M                 endif   
                          M               endif
MPASM  5.36                      MB_STDIM.ASM   5-24-2019  13:22:05         PAGE 86


LOC  OBJECT CODE     LINE SOURCE TEXT
  VALUE

                          M             endif
                          M           endif
                          M         endif
                          M       endif
                          M     endif
                          M 
018C   200D               M         call    DEBUG
                      00484         DEBUG?C 04Ch
018D   304C               M         movlw   04Ch
                          M         L?CALL  DEBUG
                          M         RST?RP
                          M     if ((PREV_BANK & 1) != 0)
                          M         bcf     STATUS, RP0
                          M     endif
                          M     if ((PREV_BANK & 2) != 0)
                          M         bcf     STATUS, RP1
                          M     endif
  00000000                M PREV_BANK = 0
                          M 
                          M     ifdef USE_LINKER
                          M       if (CODE_SIZE > 2)
                          M         pagesel DEBUG
                          M       endif
                          M     else
                          M       if ((DEBUG) < 1)
                          M         if (CODE_SIZE > 2)
                          M           if (((DEBUG) & 800h) == 0)
                          M         bcf     PCLATH, 3
                          M         else
                          M         bsf     PCLATH, 3
                          M         endif
                          M         endif
                          M         if (CODE_SIZE > 4)
                          M           if (((DEBUG) & 1000h) == 0)
                          M         bcf     PCLATH, 4
                          M           else
                          M         bsf     PCLATH, 4
                          M           endif
                          M         endif
                          M       else
                          M         if ((DEBUG) > $)
                          M           if (CODE_SIZE > 2)
                          M             if (((DEBUG) & 800h) == 0)
                          M         bcf     PCLATH, 3
                          M             else
                          M         bsf     PCLATH, 3
                          M             endif
                          M           endif
                          M           if (CODE_SIZE > 4)
                          M             if (((DEBUG) & 1000h) == 0)
                          M         bcf     PCLATH, 4
                          M             else
                          M         bsf     PCLATH, 4
MPASM  5.36                      MB_STDIM.ASM   5-24-2019  13:22:05         PAGE 87


LOC  OBJECT CODE     LINE SOURCE TEXT
  VALUE

                          M             endif
                          M           endif
                          M         else
                          M           if (CODE_SIZE > 2)
                          M             if (((DEBUG) & 1800h) == 0)
018E   018A               M         clrf    PCLATH
                          M             else
                          M               if (((DEBUG) & 800h) == 0)
                          M         bcf     PCLATH, 3
                          M               else
                          M         bsf     PCLATH, 3
                          M               endif
                          M               if (CODE_SIZE > 4)
                          M                 if (((DEBUG) & 1000h) == 0)
                          M         bcf     PCLATH, 4
                          M                 else
                          M         bsf     PCLATH, 4
                          M                 endif   
                          M               endif
                          M             endif
                          M           endif
                          M         endif
                          M       endif
                          M     endif
                          M 
018F   200D               M         call    DEBUG
                      00485         DEBUG?C 06Fh
0190   306F               M         movlw   06Fh
                          M         L?CALL  DEBUG
                          M         RST?RP
                          M     if ((PREV_BANK & 1) != 0)
                          M         bcf     STATUS, RP0
                          M     endif
                          M     if ((PREV_BANK & 2) != 0)
                          M         bcf     STATUS, RP1
                          M     endif
  00000000                M PREV_BANK = 0
                          M 
                          M     ifdef USE_LINKER
                          M       if (CODE_SIZE > 2)
                          M         pagesel DEBUG
                          M       endif
                          M     else
                          M       if ((DEBUG) < 1)
                          M         if (CODE_SIZE > 2)
                          M           if (((DEBUG) & 800h) == 0)
                          M         bcf     PCLATH, 3
                          M         else
                          M         bsf     PCLATH, 3
                          M         endif
                          M         endif
                          M         if (CODE_SIZE > 4)
                          M           if (((DEBUG) & 1000h) == 0)
MPASM  5.36                      MB_STDIM.ASM   5-24-2019  13:22:05         PAGE 88


LOC  OBJECT CODE     LINE SOURCE TEXT
  VALUE

                          M         bcf     PCLATH, 4
                          M           else
                          M         bsf     PCLATH, 4
                          M           endif
                          M         endif
                          M       else
                          M         if ((DEBUG) > $)
                          M           if (CODE_SIZE > 2)
                          M             if (((DEBUG) & 800h) == 0)
                          M         bcf     PCLATH, 3
                          M             else
                          M         bsf     PCLATH, 3
                          M             endif
                          M           endif
                          M           if (CODE_SIZE > 4)
                          M             if (((DEBUG) & 1000h) == 0)
                          M         bcf     PCLATH, 4
                          M             else
                          M         bsf     PCLATH, 4
                          M             endif
                          M           endif
                          M         else
                          M           if (CODE_SIZE > 2)
                          M             if (((DEBUG) & 1800h) == 0)
0191   018A               M         clrf    PCLATH
                          M             else
                          M               if (((DEBUG) & 800h) == 0)
                          M         bcf     PCLATH, 3
                          M               else
                          M         bsf     PCLATH, 3
                          M               endif
                          M               if (CODE_SIZE > 4)
                          M                 if (((DEBUG) & 1000h) == 0)
                          M         bcf     PCLATH, 4
                          M                 else
                          M         bsf     PCLATH, 4
                          M                 endif   
                          M               endif
                          M             endif
                          M           endif
                          M         endif
                          M       endif
                          M     endif
                          M 
0192   200D               M         call    DEBUG
                      00486         DEBUG?C 06Fh
0193   306F               M         movlw   06Fh
                          M         L?CALL  DEBUG
                          M         RST?RP
                          M     if ((PREV_BANK & 1) != 0)
                          M         bcf     STATUS, RP0
                          M     endif
                          M     if ((PREV_BANK & 2) != 0)
MPASM  5.36                      MB_STDIM.ASM   5-24-2019  13:22:05         PAGE 89


LOC  OBJECT CODE     LINE SOURCE TEXT
  VALUE

                          M         bcf     STATUS, RP1
                          M     endif
  00000000                M PREV_BANK = 0
                          M 
                          M     ifdef USE_LINKER
                          M       if (CODE_SIZE > 2)
                          M         pagesel DEBUG
                          M       endif
                          M     else
                          M       if ((DEBUG) < 1)
                          M         if (CODE_SIZE > 2)
                          M           if (((DEBUG) & 800h) == 0)
                          M         bcf     PCLATH, 3
                          M         else
                          M         bsf     PCLATH, 3
                          M         endif
                          M         endif
                          M         if (CODE_SIZE > 4)
                          M           if (((DEBUG) & 1000h) == 0)
                          M         bcf     PCLATH, 4
                          M           else
                          M         bsf     PCLATH, 4
                          M           endif
                          M         endif
                          M       else
                          M         if ((DEBUG) > $)
                          M           if (CODE_SIZE > 2)
                          M             if (((DEBUG) & 800h) == 0)
                          M         bcf     PCLATH, 3
                          M             else
                          M         bsf     PCLATH, 3
                          M             endif
                          M           endif
                          M           if (CODE_SIZE > 4)
                          M             if (((DEBUG) & 1000h) == 0)
                          M         bcf     PCLATH, 4
                          M             else
                          M         bsf     PCLATH, 4
                          M             endif
                          M           endif
                          M         else
                          M           if (CODE_SIZE > 2)
                          M             if (((DEBUG) & 1800h) == 0)
0194   018A               M         clrf    PCLATH
                          M             else
                          M               if (((DEBUG) & 800h) == 0)
                          M         bcf     PCLATH, 3
                          M               else
                          M         bsf     PCLATH, 3
                          M               endif
                          M               if (CODE_SIZE > 4)
                          M                 if (((DEBUG) & 1000h) == 0)
                          M         bcf     PCLATH, 4
MPASM  5.36                      MB_STDIM.ASM   5-24-2019  13:22:05         PAGE 90


LOC  OBJECT CODE     LINE SOURCE TEXT
  VALUE

                          M                 else
                          M         bsf     PCLATH, 4
                          M                 endif   
                          M               endif
                          M             endif
                          M           endif
                          M         endif
                          M       endif
                          M     endif
                          M 
0195   200D               M         call    DEBUG
                      00487         DEBUG?C 070h
0196   3070               M         movlw   070h
                          M         L?CALL  DEBUG
                          M         RST?RP
                          M     if ((PREV_BANK & 1) != 0)
                          M         bcf     STATUS, RP0
                          M     endif
                          M     if ((PREV_BANK & 2) != 0)
                          M         bcf     STATUS, RP1
                          M     endif
  00000000                M PREV_BANK = 0
                          M 
                          M     ifdef USE_LINKER
                          M       if (CODE_SIZE > 2)
                          M         pagesel DEBUG
                          M       endif
                          M     else
                          M       if ((DEBUG) < 1)
                          M         if (CODE_SIZE > 2)
                          M           if (((DEBUG) & 800h) == 0)
                          M         bcf     PCLATH, 3
                          M         else
                          M         bsf     PCLATH, 3
                          M         endif
                          M         endif
                          M         if (CODE_SIZE > 4)
                          M           if (((DEBUG) & 1000h) == 0)
                          M         bcf     PCLATH, 4
                          M           else
                          M         bsf     PCLATH, 4
                          M           endif
                          M         endif
                          M       else
                          M         if ((DEBUG) > $)
                          M           if (CODE_SIZE > 2)
                          M             if (((DEBUG) & 800h) == 0)
                          M         bcf     PCLATH, 3
                          M             else
                          M         bsf     PCLATH, 3
                          M             endif
                          M           endif
                          M           if (CODE_SIZE > 4)
MPASM  5.36                      MB_STDIM.ASM   5-24-2019  13:22:05         PAGE 91


LOC  OBJECT CODE     LINE SOURCE TEXT
  VALUE

                          M             if (((DEBUG) & 1000h) == 0)
                          M         bcf     PCLATH, 4
                          M             else
                          M         bsf     PCLATH, 4
                          M             endif
                          M           endif
                          M         else
                          M           if (CODE_SIZE > 2)
                          M             if (((DEBUG) & 1800h) == 0)
0197   018A               M         clrf    PCLATH
                          M             else
                          M               if (((DEBUG) & 800h) == 0)
                          M         bcf     PCLATH, 3
                          M               else
                          M         bsf     PCLATH, 3
                          M               endif
                          M               if (CODE_SIZE > 4)
                          M                 if (((DEBUG) & 1000h) == 0)
                          M         bcf     PCLATH, 4
                          M                 else
                          M         bsf     PCLATH, 4
                          M                 endif   
                          M               endif
                          M             endif
                          M           endif
                          M         endif
                          M       endif
                          M     endif
                          M 
0198   200D               M         call    DEBUG
                      00488         DEBUG?C 021h
0199   3021               M         movlw   021h
                          M         L?CALL  DEBUG
                          M         RST?RP
                          M     if ((PREV_BANK & 1) != 0)
                          M         bcf     STATUS, RP0
                          M     endif
                          M     if ((PREV_BANK & 2) != 0)
                          M         bcf     STATUS, RP1
                          M     endif
  00000000                M PREV_BANK = 0
                          M 
                          M     ifdef USE_LINKER
                          M       if (CODE_SIZE > 2)
                          M         pagesel DEBUG
                          M       endif
                          M     else
                          M       if ((DEBUG) < 1)
                          M         if (CODE_SIZE > 2)
                          M           if (((DEBUG) & 800h) == 0)
                          M         bcf     PCLATH, 3
                          M         else
                          M         bsf     PCLATH, 3
MPASM  5.36                      MB_STDIM.ASM   5-24-2019  13:22:05         PAGE 92


LOC  OBJECT CODE     LINE SOURCE TEXT
  VALUE

                          M         endif
                          M         endif
                          M         if (CODE_SIZE > 4)
                          M           if (((DEBUG) & 1000h) == 0)
                          M         bcf     PCLATH, 4
                          M           else
                          M         bsf     PCLATH, 4
                          M           endif
                          M         endif
                          M       else
                          M         if ((DEBUG) > $)
                          M           if (CODE_SIZE > 2)
                          M             if (((DEBUG) & 800h) == 0)
                          M         bcf     PCLATH, 3
                          M             else
                          M         bsf     PCLATH, 3
                          M             endif
                          M           endif
                          M           if (CODE_SIZE > 4)
                          M             if (((DEBUG) & 1000h) == 0)
                          M         bcf     PCLATH, 4
                          M             else
                          M         bsf     PCLATH, 4
                          M             endif
                          M           endif
                          M         else
                          M           if (CODE_SIZE > 2)
                          M             if (((DEBUG) & 1800h) == 0)
019A   018A               M         clrf    PCLATH
                          M             else
                          M               if (((DEBUG) & 800h) == 0)
                          M         bcf     PCLATH, 3
                          M               else
                          M         bsf     PCLATH, 3
                          M               endif
                          M               if (CODE_SIZE > 4)
                          M                 if (((DEBUG) & 1000h) == 0)
                          M         bcf     PCLATH, 4
                          M                 else
                          M         bsf     PCLATH, 4
                          M                 endif   
                          M               endif
                          M             endif
                          M           endif
                          M         endif
                          M       endif
                          M     endif
                          M 
019B   200D               M         call    DEBUG
                      00489         DEBUG?C 021h
019C   3021               M         movlw   021h
                          M         L?CALL  DEBUG
                          M         RST?RP
MPASM  5.36                      MB_STDIM.ASM   5-24-2019  13:22:05         PAGE 93


LOC  OBJECT CODE     LINE SOURCE TEXT
  VALUE

                          M     if ((PREV_BANK & 1) != 0)
                          M         bcf     STATUS, RP0
                          M     endif
                          M     if ((PREV_BANK & 2) != 0)
                          M         bcf     STATUS, RP1
                          M     endif
  00000000                M PREV_BANK = 0
                          M 
                          M     ifdef USE_LINKER
                          M       if (CODE_SIZE > 2)
                          M         pagesel DEBUG
                          M       endif
                          M     else
                          M       if ((DEBUG) < 1)
                          M         if (CODE_SIZE > 2)
                          M           if (((DEBUG) & 800h) == 0)
                          M         bcf     PCLATH, 3
                          M         else
                          M         bsf     PCLATH, 3
                          M         endif
                          M         endif
                          M         if (CODE_SIZE > 4)
                          M           if (((DEBUG) & 1000h) == 0)
                          M         bcf     PCLATH, 4
                          M           else
                          M         bsf     PCLATH, 4
                          M           endif
                          M         endif
                          M       else
                          M         if ((DEBUG) > $)
                          M           if (CODE_SIZE > 2)
                          M             if (((DEBUG) & 800h) == 0)
                          M         bcf     PCLATH, 3
                          M             else
                          M         bsf     PCLATH, 3
                          M             endif
                          M           endif
                          M           if (CODE_SIZE > 4)
                          M             if (((DEBUG) & 1000h) == 0)
                          M         bcf     PCLATH, 4
                          M             else
                          M         bsf     PCLATH, 4
                          M             endif
                          M           endif
                          M         else
                          M           if (CODE_SIZE > 2)
                          M             if (((DEBUG) & 1800h) == 0)
019D   018A               M         clrf    PCLATH
                          M             else
                          M               if (((DEBUG) & 800h) == 0)
                          M         bcf     PCLATH, 3
                          M               else
                          M         bsf     PCLATH, 3
MPASM  5.36                      MB_STDIM.ASM   5-24-2019  13:22:05         PAGE 94


LOC  OBJECT CODE     LINE SOURCE TEXT
  VALUE

                          M               endif
                          M               if (CODE_SIZE > 4)
                          M                 if (((DEBUG) & 1000h) == 0)
                          M         bcf     PCLATH, 4
                          M                 else
                          M         bsf     PCLATH, 4
                          M                 endif   
                          M               endif
                          M             endif
                          M           endif
                          M         endif
                          M       endif
                          M     endif
                          M 
019E   200D               M         call    DEBUG
                      00490         DEBUG?C 00Dh
019F   300D               M         movlw   00Dh
                          M         L?CALL  DEBUG
                          M         RST?RP
                          M     if ((PREV_BANK & 1) != 0)
                          M         bcf     STATUS, RP0
                          M     endif
                          M     if ((PREV_BANK & 2) != 0)
                          M         bcf     STATUS, RP1
                          M     endif
  00000000                M PREV_BANK = 0
                          M 
                          M     ifdef USE_LINKER
                          M       if (CODE_SIZE > 2)
                          M         pagesel DEBUG
                          M       endif
                          M     else
                          M       if ((DEBUG) < 1)
                          M         if (CODE_SIZE > 2)
                          M           if (((DEBUG) & 800h) == 0)
                          M         bcf     PCLATH, 3
                          M         else
                          M         bsf     PCLATH, 3
                          M         endif
                          M         endif
                          M         if (CODE_SIZE > 4)
                          M           if (((DEBUG) & 1000h) == 0)
                          M         bcf     PCLATH, 4
                          M           else
                          M         bsf     PCLATH, 4
                          M           endif
                          M         endif
                          M       else
                          M         if ((DEBUG) > $)
                          M           if (CODE_SIZE > 2)
                          M             if (((DEBUG) & 800h) == 0)
                          M         bcf     PCLATH, 3
                          M             else
MPASM  5.36                      MB_STDIM.ASM   5-24-2019  13:22:05         PAGE 95


LOC  OBJECT CODE     LINE SOURCE TEXT
  VALUE

                          M         bsf     PCLATH, 3
                          M             endif
                          M           endif
                          M           if (CODE_SIZE > 4)
                          M             if (((DEBUG) & 1000h) == 0)
                          M         bcf     PCLATH, 4
                          M             else
                          M         bsf     PCLATH, 4
                          M             endif
                          M           endif
                          M         else
                          M           if (CODE_SIZE > 2)
                          M             if (((DEBUG) & 1800h) == 0)
01A0   018A               M         clrf    PCLATH
                          M             else
                          M               if (((DEBUG) & 800h) == 0)
                          M         bcf     PCLATH, 3
                          M               else
                          M         bsf     PCLATH, 3
                          M               endif
                          M               if (CODE_SIZE > 4)
                          M                 if (((DEBUG) & 1000h) == 0)
                          M         bcf     PCLATH, 4
                          M                 else
                          M         bsf     PCLATH, 4
                          M                 endif   
                          M               endif
                          M             endif
                          M           endif
                          M         endif
                          M       endif
                          M     endif
                          M 
01A1   200D               M         call    DEBUG
                      00491         DEBUG?C 00Ah
01A2   300A               M         movlw   00Ah
                          M         L?CALL  DEBUG
                          M         RST?RP
                          M     if ((PREV_BANK & 1) != 0)
                          M         bcf     STATUS, RP0
                          M     endif
                          M     if ((PREV_BANK & 2) != 0)
                          M         bcf     STATUS, RP1
                          M     endif
  00000000                M PREV_BANK = 0
                          M 
                          M     ifdef USE_LINKER
                          M       if (CODE_SIZE > 2)
                          M         pagesel DEBUG
                          M       endif
                          M     else
                          M       if ((DEBUG) < 1)
                          M         if (CODE_SIZE > 2)
MPASM  5.36                      MB_STDIM.ASM   5-24-2019  13:22:05         PAGE 96


LOC  OBJECT CODE     LINE SOURCE TEXT
  VALUE

                          M           if (((DEBUG) & 800h) == 0)
                          M         bcf     PCLATH, 3
                          M         else
                          M         bsf     PCLATH, 3
                          M         endif
                          M         endif
                          M         if (CODE_SIZE > 4)
                          M           if (((DEBUG) & 1000h) == 0)
                          M         bcf     PCLATH, 4
                          M           else
                          M         bsf     PCLATH, 4
                          M           endif
                          M         endif
                          M       else
                          M         if ((DEBUG) > $)
                          M           if (CODE_SIZE > 2)
                          M             if (((DEBUG) & 800h) == 0)
                          M         bcf     PCLATH, 3
                          M             else
                          M         bsf     PCLATH, 3
                          M             endif
                          M           endif
                          M           if (CODE_SIZE > 4)
                          M             if (((DEBUG) & 1000h) == 0)
                          M         bcf     PCLATH, 4
                          M             else
                          M         bsf     PCLATH, 4
                          M             endif
                          M           endif
                          M         else
                          M           if (CODE_SIZE > 2)
                          M             if (((DEBUG) & 1800h) == 0)
01A3   018A               M         clrf    PCLATH
                          M             else
                          M               if (((DEBUG) & 800h) == 0)
                          M         bcf     PCLATH, 3
                          M               else
                          M         bsf     PCLATH, 3
                          M               endif
                          M               if (CODE_SIZE > 4)
                          M                 if (((DEBUG) & 1000h) == 0)
                          M         bcf     PCLATH, 4
                          M                 else
                          M         bsf     PCLATH, 4
                          M                 endif   
                          M               endif
                          M             endif
                          M           endif
                          M         endif
                          M       endif
                          M     endif
                          M 
01A4   200D               M         call    DEBUG
MPASM  5.36                      MB_STDIM.ASM   5-24-2019  13:22:05         PAGE 97


LOC  OBJECT CODE     LINE SOURCE TEXT
  VALUE

                      00492 
                      00493 ; C:\USERS\JESSADA\DESKTOP\LED DIMMER PROJECT\PIC16F886\MB_STDIM.BAS    00255   Z00033                  
                            if (porta.0 == 0) then
01A5                  00494 Z00033
                      00495         CMPNE?TCL       _PORTA??0, 000h, L00001
                          M     if ((000h) == 0)
                          M         CLRWDT?
                          M     ifndef NO_CLRWDT
01A5   0064               M         clrwdt
                          M     endif
                          M         BIT?GOTO 1, PORTA, 000h,  L00001
                          M     ifdef USE_LINKER
                          M         CLRWDT?
                          M     else
                          M       if ($ == (L00001))
                          M         CLRWDT?
                          M       endif
                          M     endif
                          M 
                          M     ifdef USE_LINKER
                          M       if (CODE_SIZE > 2)
                          M         pagesel L00001
                          M       endif
                          M     else
                          M       if (CODE_SIZE > 2)
                          M         if (((L00001) & 800h) == 0)
01A6   118A               M         bcf     PCLATH, 3
                          M         else
                          M         bsf     PCLATH, 3
                          M         endif
                          M       endif
                          M       if (CODE_SIZE > 4)
                          M         if (((L00001) & 1000h) == 0)
01A7   120A               M         bcf     PCLATH, 4
                          M         else
                          M         bsf     PCLATH, 4
                          M         endif
                          M       endif
                          M     endif
                          M 
                          M     if (((PORTA) & 0ff80h) != 0)
                          M         CHK?RP  PORTA
                          M         bcf     STATUS, DC
                          M       if ((1)      == 0)
                          M         btfss   PORTA, 000h
                          M       else
                          M         btfsc   PORTA, 000h
                          M       endif
                          M         bsf     STATUS, DC
                          M         RST?RP
                          M         btfsc   STATUS, DC
                          M     else
                          M         RST?RP
MPASM  5.36                      MB_STDIM.ASM   5-24-2019  13:22:05         PAGE 98


LOC  OBJECT CODE     LINE SOURCE TEXT
  VALUE

                          M     if ((PREV_BANK & 1) != 0)
                          M         bcf     STATUS, RP0
                          M     endif
                          M     if ((PREV_BANK & 2) != 0)
                          M         bcf     STATUS, RP1
                          M     endif
  00000000                M PREV_BANK = 0
                          M       if ((1)      == 0)
                          M         btfss   PORTA, 000h
                          M       else
01A8   1805               M         btfsc   PORTA, 000h
                          M       endif
                          M     endif
                          M 
01A9   29AF               M         goto    L00001
                          M     else
                          M       if ((000h) == 1)
                          M         CLRWDT?
                          M         BIT?GOTO 0, PORTA, 000h,  L00001
                          M       else
                          M         L?GOTO  L00001
                          M       endif
                          M     endif
                      00496 
                      00497 ; C:\USERS\JESSADA\DESKTOP\LED DIMMER PROJECT\PIC16F886\MB_STDIM.BAS    00256   Z00034                  
                                    CCPR1L= 255
01AA                  00498 Z00034
                      00499         MOVE?CB 0FFh, CCPR1L
                          M         CHK?RP  CCPR1L
                          M     if (((CCPR1L) & 180h) == 0)
                          M       if (PREV_BANK == 1)
                          M         bcf     STATUS, RP0
                          M       endif
                          M       if (PREV_BANK == 2)
                          M         bcf     STATUS, RP1
                          M       endif
                          M       if (PREV_BANK == 3)
                          M         bcf     STATUS, RP0
                          M         bcf     STATUS, RP1
                          M       endif
  00000000                M PREV_BANK = 0
                          M     endif
                          M 
                          M     if (((CCPR1L) & 180h) == 80h)
                          M       if (PREV_BANK == 0)
                          M         bsf     STATUS, RP0
                          M       endif
                          M       if (PREV_BANK == 2)
                          M         bsf     STATUS, RP0
                          M         bcf     STATUS, RP1
                          M       endif
                          M       if (PREV_BANK == 3)
                          M         bcf     STATUS, RP1
MPASM  5.36                      MB_STDIM.ASM   5-24-2019  13:22:05         PAGE 99


LOC  OBJECT CODE     LINE SOURCE TEXT
  VALUE

                          M       endif
                          M PREV_BANK = 1
                          M     endif
                          M 
                          M     if (((CCPR1L) & 180h) == 100h)
                          M       if (PREV_BANK == 0)
                          M         bsf     STATUS, RP1
                          M       endif
                          M       if (PREV_BANK == 1)
                          M         bcf     STATUS, RP0
                          M         bsf     STATUS, RP1
                          M       endif
                          M       if (PREV_BANK == 3)
                          M         bcf     STATUS, RP0
                          M       endif
                          M PREV_BANK = 2
                          M     endif
                          M 
                          M     if (((CCPR1L) & 180h) == 180h)
                          M       if (PREV_BANK == 0)
                          M         bsf     STATUS, RP0
                          M         bsf     STATUS, RP1
                          M       endif
                          M       if (PREV_BANK == 1)
                          M         bsf     STATUS, RP1
                          M       endif
                          M       if (PREV_BANK == 2)
                          M         bsf     STATUS, RP0
                          M       endif
                          M PREV_BANK = 3
                          M     endif
                          M     if (low (0FFh) == 0)
                          M         clrf    CCPR1L
                          M     else
01AA   30FF               M         movlw   low (0FFh)
01AB   0095               M         movwf   CCPR1L
                          M     endif
                      00500 
                      00501 ; C:\USERS\JESSADA\DESKTOP\LED DIMMER PROJECT\PIC16F886\MB_STDIM.BAS    00257   Z00035                  
                                    hserout [255]
01AC                  00502 Z00035
                      00503         HSEROUT?C       0FFh
01AC   30FF               M         movlw   0FFh
                          M         L?CALL  HSEROUT
                          M         RST?RP
                          M     if ((PREV_BANK & 1) != 0)
                          M         bcf     STATUS, RP0
                          M     endif
                          M     if ((PREV_BANK & 2) != 0)
                          M         bcf     STATUS, RP1
                          M     endif
  00000000                M PREV_BANK = 0
                          M 
MPASM  5.36                      MB_STDIM.ASM   5-24-2019  13:22:05         PAGE 100


LOC  OBJECT CODE     LINE SOURCE TEXT
  VALUE

                          M     ifdef USE_LINKER
                          M       if (CODE_SIZE > 2)
                          M         pagesel HSEROUT
                          M       endif
                          M     else
                          M       if ((HSEROUT) < 1)
                          M         if (CODE_SIZE > 2)
                          M           if (((HSEROUT) & 800h) == 0)
                          M         bcf     PCLATH, 3
                          M         else
                          M         bsf     PCLATH, 3
                          M         endif
                          M         endif
                          M         if (CODE_SIZE > 4)
                          M           if (((HSEROUT) & 1000h) == 0)
                          M         bcf     PCLATH, 4
                          M           else
                          M         bsf     PCLATH, 4
                          M           endif
                          M         endif
                          M       else
                          M         if ((HSEROUT) > $)
                          M           if (CODE_SIZE > 2)
                          M             if (((HSEROUT) & 800h) == 0)
                          M         bcf     PCLATH, 3
                          M             else
                          M         bsf     PCLATH, 3
                          M             endif
                          M           endif
                          M           if (CODE_SIZE > 4)
                          M             if (((HSEROUT) & 1000h) == 0)
                          M         bcf     PCLATH, 4
                          M             else
                          M         bsf     PCLATH, 4
                          M             endif
                          M           endif
                          M         else
                          M           if (CODE_SIZE > 2)
                          M             if (((HSEROUT) & 1800h) == 0)
01AD   018A               M         clrf    PCLATH
                          M             else
                          M               if (((HSEROUT) & 800h) == 0)
                          M         bcf     PCLATH, 3
                          M               else
                          M         bsf     PCLATH, 3
                          M               endif
                          M               if (CODE_SIZE > 4)
                          M                 if (((HSEROUT) & 1000h) == 0)
                          M         bcf     PCLATH, 4
                          M                 else
                          M         bsf     PCLATH, 4
                          M                 endif   
                          M               endif
MPASM  5.36                      MB_STDIM.ASM   5-24-2019  13:22:05         PAGE 101


LOC  OBJECT CODE     LINE SOURCE TEXT
  VALUE

                          M             endif
                          M           endif
                          M         endif
                          M       endif
                          M     endif
                          M 
01AE   2027               M         call    HSEROUT
                      00504 
                      00505 ; C:\USERS\JESSADA\DESKTOP\LED DIMMER PROJECT\PIC16F886\MB_STDIM.BAS    00259   Z00036                  
                            endif
01AF                  00506 Z00036
                      00507         LABEL?L L00001  
                          M         RST?RP
                          M     if ((PREV_BANK & 1) != 0)
                          M         bcf     STATUS, RP0
                          M     endif
                          M     if ((PREV_BANK & 2) != 0)
                          M         bcf     STATUS, RP1
                          M     endif
  00000000                M PREV_BANK = 0
                          M     ifdef PM_USED
                          M         LALL
                          M L00001
                          M         XALL
                          M     else
01AF                      M L00001
                          M     endif
                      00508 
                      00509 ; C:\USERS\JESSADA\DESKTOP\LED DIMMER PROJECT\PIC16F886\MB_STDIM.BAS    00261   Z00037                  
                            if (porta.1 == 0) then
01AF                  00510 Z00037
                      00511         CMPNE?TCL       _PORTA??1, 000h, L00003
                          M     if ((000h) == 0)
                          M         CLRWDT?
                          M     ifndef NO_CLRWDT
01AF   0064               M         clrwdt
                          M     endif
                          M         BIT?GOTO 1, PORTA, 001h,  L00003
                          M     ifdef USE_LINKER
                          M         CLRWDT?
                          M     else
                          M       if ($ == (L00003))
                          M         CLRWDT?
                          M       endif
                          M     endif
                          M 
                          M     ifdef USE_LINKER
                          M       if (CODE_SIZE > 2)
                          M         pagesel L00003
                          M       endif
                          M     else
                          M       if (CODE_SIZE > 2)
                          M         if (((L00003) & 800h) == 0)
MPASM  5.36                      MB_STDIM.ASM   5-24-2019  13:22:05         PAGE 102


LOC  OBJECT CODE     LINE SOURCE TEXT
  VALUE

01B0   118A               M         bcf     PCLATH, 3
                          M         else
                          M         bsf     PCLATH, 3
                          M         endif
                          M       endif
                          M       if (CODE_SIZE > 4)
                          M         if (((L00003) & 1000h) == 0)
01B1   120A               M         bcf     PCLATH, 4
                          M         else
                          M         bsf     PCLATH, 4
                          M         endif
                          M       endif
                          M     endif
                          M 
                          M     if (((PORTA) & 0ff80h) != 0)
                          M         CHK?RP  PORTA
                          M         bcf     STATUS, DC
                          M       if ((1)      == 0)
                          M         btfss   PORTA, 001h
                          M       else
                          M         btfsc   PORTA, 001h
                          M       endif
                          M         bsf     STATUS, DC
                          M         RST?RP
                          M         btfsc   STATUS, DC
                          M     else
                          M         RST?RP
                          M     if ((PREV_BANK & 1) != 0)
                          M         bcf     STATUS, RP0
                          M     endif
                          M     if ((PREV_BANK & 2) != 0)
                          M         bcf     STATUS, RP1
                          M     endif
  00000000                M PREV_BANK = 0
                          M       if ((1)      == 0)
                          M         btfss   PORTA, 001h
                          M       else
01B2   1885               M         btfsc   PORTA, 001h
                          M       endif
                          M     endif
                          M 
01B3   29B9               M         goto    L00003
                          M     else
                          M       if ((000h) == 1)
                          M         CLRWDT?
                          M         BIT?GOTO 0, PORTA, 001h,  L00003
                          M       else
                          M         L?GOTO  L00003
                          M       endif
                          M     endif
                      00512 
                      00513 ; C:\USERS\JESSADA\DESKTOP\LED DIMMER PROJECT\PIC16F886\MB_STDIM.BAS    00262   Z00038                  
                                    CCPR1L= 1
MPASM  5.36                      MB_STDIM.ASM   5-24-2019  13:22:05         PAGE 103


LOC  OBJECT CODE     LINE SOURCE TEXT
  VALUE

01B4                  00514 Z00038
                      00515         MOVE?CB 001h, CCPR1L
                          M         CHK?RP  CCPR1L
                          M     if (((CCPR1L) & 180h) == 0)
                          M       if (PREV_BANK == 1)
                          M         bcf     STATUS, RP0
                          M       endif
                          M       if (PREV_BANK == 2)
                          M         bcf     STATUS, RP1
                          M       endif
                          M       if (PREV_BANK == 3)
                          M         bcf     STATUS, RP0
                          M         bcf     STATUS, RP1
                          M       endif
  00000000                M PREV_BANK = 0
                          M     endif
                          M 
                          M     if (((CCPR1L) & 180h) == 80h)
                          M       if (PREV_BANK == 0)
                          M         bsf     STATUS, RP0
                          M       endif
                          M       if (PREV_BANK == 2)
                          M         bsf     STATUS, RP0
                          M         bcf     STATUS, RP1
                          M       endif
                          M       if (PREV_BANK == 3)
                          M         bcf     STATUS, RP1
                          M       endif
                          M PREV_BANK = 1
                          M     endif
                          M 
                          M     if (((CCPR1L) & 180h) == 100h)
                          M       if (PREV_BANK == 0)
                          M         bsf     STATUS, RP1
                          M       endif
                          M       if (PREV_BANK == 1)
                          M         bcf     STATUS, RP0
                          M         bsf     STATUS, RP1
                          M       endif
                          M       if (PREV_BANK == 3)
                          M         bcf     STATUS, RP0
                          M       endif
                          M PREV_BANK = 2
                          M     endif
                          M 
                          M     if (((CCPR1L) & 180h) == 180h)
                          M       if (PREV_BANK == 0)
                          M         bsf     STATUS, RP0
                          M         bsf     STATUS, RP1
                          M       endif
                          M       if (PREV_BANK == 1)
                          M         bsf     STATUS, RP1
                          M       endif
MPASM  5.36                      MB_STDIM.ASM   5-24-2019  13:22:05         PAGE 104


LOC  OBJECT CODE     LINE SOURCE TEXT
  VALUE

                          M       if (PREV_BANK == 2)
                          M         bsf     STATUS, RP0
                          M       endif
                          M PREV_BANK = 3
                          M     endif
                          M     if (low (001h) == 0)
                          M         clrf    CCPR1L
                          M     else
01B4   3001               M         movlw   low (001h)
01B5   0095               M         movwf   CCPR1L
                          M     endif
                      00516 
                      00517 ; C:\USERS\JESSADA\DESKTOP\LED DIMMER PROJECT\PIC16F886\MB_STDIM.BAS    00263   Z00039                  
                                    hserout [1]
01B6                  00518 Z00039
                      00519         HSEROUT?C       001h
01B6   3001               M         movlw   001h
                          M         L?CALL  HSEROUT
                          M         RST?RP
                          M     if ((PREV_BANK & 1) != 0)
                          M         bcf     STATUS, RP0
                          M     endif
                          M     if ((PREV_BANK & 2) != 0)
                          M         bcf     STATUS, RP1
                          M     endif
  00000000                M PREV_BANK = 0
                          M 
                          M     ifdef USE_LINKER
                          M       if (CODE_SIZE > 2)
                          M         pagesel HSEROUT
                          M       endif
                          M     else
                          M       if ((HSEROUT) < 1)
                          M         if (CODE_SIZE > 2)
                          M           if (((HSEROUT) & 800h) == 0)
                          M         bcf     PCLATH, 3
                          M         else
                          M         bsf     PCLATH, 3
                          M         endif
                          M         endif
                          M         if (CODE_SIZE > 4)
                          M           if (((HSEROUT) & 1000h) == 0)
                          M         bcf     PCLATH, 4
                          M           else
                          M         bsf     PCLATH, 4
                          M           endif
                          M         endif
                          M       else
                          M         if ((HSEROUT) > $)
                          M           if (CODE_SIZE > 2)
                          M             if (((HSEROUT) & 800h) == 0)
                          M         bcf     PCLATH, 3
                          M             else
MPASM  5.36                      MB_STDIM.ASM   5-24-2019  13:22:05         PAGE 105


LOC  OBJECT CODE     LINE SOURCE TEXT
  VALUE

                          M         bsf     PCLATH, 3
                          M             endif
                          M           endif
                          M           if (CODE_SIZE > 4)
                          M             if (((HSEROUT) & 1000h) == 0)
                          M         bcf     PCLATH, 4
                          M             else
                          M         bsf     PCLATH, 4
                          M             endif
                          M           endif
                          M         else
                          M           if (CODE_SIZE > 2)
                          M             if (((HSEROUT) & 1800h) == 0)
01B7   018A               M         clrf    PCLATH
                          M             else
                          M               if (((HSEROUT) & 800h) == 0)
                          M         bcf     PCLATH, 3
                          M               else
                          M         bsf     PCLATH, 3
                          M               endif
                          M               if (CODE_SIZE > 4)
                          M                 if (((HSEROUT) & 1000h) == 0)
                          M         bcf     PCLATH, 4
                          M                 else
                          M         bsf     PCLATH, 4
                          M                 endif   
                          M               endif
                          M             endif
                          M           endif
                          M         endif
                          M       endif
                          M     endif
                          M 
01B8   2027               M         call    HSEROUT
                      00520 
                      00521 ; C:\USERS\JESSADA\DESKTOP\LED DIMMER PROJECT\PIC16F886\MB_STDIM.BAS    00265   Z0003A                  
                            endif
01B9                  00522 Z0003A
                      00523         LABEL?L L00003  
                          M         RST?RP
                          M     if ((PREV_BANK & 1) != 0)
                          M         bcf     STATUS, RP0
                          M     endif
                          M     if ((PREV_BANK & 2) != 0)
                          M         bcf     STATUS, RP1
                          M     endif
  00000000                M PREV_BANK = 0
                          M     ifdef PM_USED
                          M         LALL
                          M L00003
                          M         XALL
                          M     else
01B9                      M L00003
MPASM  5.36                      MB_STDIM.ASM   5-24-2019  13:22:05         PAGE 106


LOC  OBJECT CODE     LINE SOURCE TEXT
  VALUE

                          M     endif
                      00524 
                      00525 ; C:\USERS\JESSADA\DESKTOP\LED DIMMER PROJECT\PIC16F886\MB_STDIM.BAS    00267   Z0003B                  
                            if (porta.2 == 0) then
01B9                  00526 Z0003B
                      00527         CMPNE?TCL       _PORTA??2, 000h, L00005
                          M     if ((000h) == 0)
                          M         CLRWDT?
                          M     ifndef NO_CLRWDT
01B9   0064               M         clrwdt
                          M     endif
                          M         BIT?GOTO 1, PORTA, 002h,  L00005
                          M     ifdef USE_LINKER
                          M         CLRWDT?
                          M     else
                          M       if ($ == (L00005))
                          M         CLRWDT?
                          M       endif
                          M     endif
                          M 
                          M     ifdef USE_LINKER
                          M       if (CODE_SIZE > 2)
                          M         pagesel L00005
                          M       endif
                          M     else
                          M       if (CODE_SIZE > 2)
                          M         if (((L00005) & 800h) == 0)
01BA   118A               M         bcf     PCLATH, 3
                          M         else
                          M         bsf     PCLATH, 3
                          M         endif
                          M       endif
                          M       if (CODE_SIZE > 4)
                          M         if (((L00005) & 1000h) == 0)
01BB   120A               M         bcf     PCLATH, 4
                          M         else
                          M         bsf     PCLATH, 4
                          M         endif
                          M       endif
                          M     endif
                          M 
                          M     if (((PORTA) & 0ff80h) != 0)
                          M         CHK?RP  PORTA
                          M         bcf     STATUS, DC
                          M       if ((1)      == 0)
                          M         btfss   PORTA, 002h
                          M       else
                          M         btfsc   PORTA, 002h
                          M       endif
                          M         bsf     STATUS, DC
                          M         RST?RP
                          M         btfsc   STATUS, DC
                          M     else
MPASM  5.36                      MB_STDIM.ASM   5-24-2019  13:22:05         PAGE 107


LOC  OBJECT CODE     LINE SOURCE TEXT
  VALUE

                          M         RST?RP
                          M     if ((PREV_BANK & 1) != 0)
                          M         bcf     STATUS, RP0
                          M     endif
                          M     if ((PREV_BANK & 2) != 0)
                          M         bcf     STATUS, RP1
                          M     endif
  00000000                M PREV_BANK = 0
                          M       if ((1)      == 0)
                          M         btfss   PORTA, 002h
                          M       else
01BC   1905               M         btfsc   PORTA, 002h
                          M       endif
                          M     endif
                          M 
01BD   29C3               M         goto    L00005
                          M     else
                          M       if ((000h) == 1)
                          M         CLRWDT?
                          M         BIT?GOTO 0, PORTA, 002h,  L00005
                          M       else
                          M         L?GOTO  L00005
                          M       endif
                          M     endif
                      00528 
                      00529 ; C:\USERS\JESSADA\DESKTOP\LED DIMMER PROJECT\PIC16F886\MB_STDIM.BAS    00268   Z0003C                  
                                    CCPR1L= 128
01BE                  00530 Z0003C
                      00531         MOVE?CB 080h, CCPR1L
                          M         CHK?RP  CCPR1L
                          M     if (((CCPR1L) & 180h) == 0)
                          M       if (PREV_BANK == 1)
                          M         bcf     STATUS, RP0
                          M       endif
                          M       if (PREV_BANK == 2)
                          M         bcf     STATUS, RP1
                          M       endif
                          M       if (PREV_BANK == 3)
                          M         bcf     STATUS, RP0
                          M         bcf     STATUS, RP1
                          M       endif
  00000000                M PREV_BANK = 0
                          M     endif
                          M 
                          M     if (((CCPR1L) & 180h) == 80h)
                          M       if (PREV_BANK == 0)
                          M         bsf     STATUS, RP0
                          M       endif
                          M       if (PREV_BANK == 2)
                          M         bsf     STATUS, RP0
                          M         bcf     STATUS, RP1
                          M       endif
                          M       if (PREV_BANK == 3)
MPASM  5.36                      MB_STDIM.ASM   5-24-2019  13:22:05         PAGE 108


LOC  OBJECT CODE     LINE SOURCE TEXT
  VALUE

                          M         bcf     STATUS, RP1
                          M       endif
                          M PREV_BANK = 1
                          M     endif
                          M 
                          M     if (((CCPR1L) & 180h) == 100h)
                          M       if (PREV_BANK == 0)
                          M         bsf     STATUS, RP1
                          M       endif
                          M       if (PREV_BANK == 1)
                          M         bcf     STATUS, RP0
                          M         bsf     STATUS, RP1
                          M       endif
                          M       if (PREV_BANK == 3)
                          M         bcf     STATUS, RP0
                          M       endif
                          M PREV_BANK = 2
                          M     endif
                          M 
                          M     if (((CCPR1L) & 180h) == 180h)
                          M       if (PREV_BANK == 0)
                          M         bsf     STATUS, RP0
                          M         bsf     STATUS, RP1
                          M       endif
                          M       if (PREV_BANK == 1)
                          M         bsf     STATUS, RP1
                          M       endif
                          M       if (PREV_BANK == 2)
                          M         bsf     STATUS, RP0
                          M       endif
                          M PREV_BANK = 3
                          M     endif
                          M     if (low (080h) == 0)
                          M         clrf    CCPR1L
                          M     else
01BE   3080               M         movlw   low (080h)
01BF   0095               M         movwf   CCPR1L
                          M     endif
                      00532 
                      00533 ; C:\USERS\JESSADA\DESKTOP\LED DIMMER PROJECT\PIC16F886\MB_STDIM.BAS    00269   Z0003D                  
                                    hserout [128]
01C0                  00534 Z0003D
                      00535         HSEROUT?C       080h
01C0   3080               M         movlw   080h
                          M         L?CALL  HSEROUT
                          M         RST?RP
                          M     if ((PREV_BANK & 1) != 0)
                          M         bcf     STATUS, RP0
                          M     endif
                          M     if ((PREV_BANK & 2) != 0)
                          M         bcf     STATUS, RP1
                          M     endif
  00000000                M PREV_BANK = 0
MPASM  5.36                      MB_STDIM.ASM   5-24-2019  13:22:05         PAGE 109


LOC  OBJECT CODE     LINE SOURCE TEXT
  VALUE

                          M 
                          M     ifdef USE_LINKER
                          M       if (CODE_SIZE > 2)
                          M         pagesel HSEROUT
                          M       endif
                          M     else
                          M       if ((HSEROUT) < 1)
                          M         if (CODE_SIZE > 2)
                          M           if (((HSEROUT) & 800h) == 0)
                          M         bcf     PCLATH, 3
                          M         else
                          M         bsf     PCLATH, 3
                          M         endif
                          M         endif
                          M         if (CODE_SIZE > 4)
                          M           if (((HSEROUT) & 1000h) == 0)
                          M         bcf     PCLATH, 4
                          M           else
                          M         bsf     PCLATH, 4
                          M           endif
                          M         endif
                          M       else
                          M         if ((HSEROUT) > $)
                          M           if (CODE_SIZE > 2)
                          M             if (((HSEROUT) & 800h) == 0)
                          M         bcf     PCLATH, 3
                          M             else
                          M         bsf     PCLATH, 3
                          M             endif
                          M           endif
                          M           if (CODE_SIZE > 4)
                          M             if (((HSEROUT) & 1000h) == 0)
                          M         bcf     PCLATH, 4
                          M             else
                          M         bsf     PCLATH, 4
                          M             endif
                          M           endif
                          M         else
                          M           if (CODE_SIZE > 2)
                          M             if (((HSEROUT) & 1800h) == 0)
01C1   018A               M         clrf    PCLATH
                          M             else
                          M               if (((HSEROUT) & 800h) == 0)
                          M         bcf     PCLATH, 3
                          M               else
                          M         bsf     PCLATH, 3
                          M               endif
                          M               if (CODE_SIZE > 4)
                          M                 if (((HSEROUT) & 1000h) == 0)
                          M         bcf     PCLATH, 4
                          M                 else
                          M         bsf     PCLATH, 4
                          M                 endif   
MPASM  5.36                      MB_STDIM.ASM   5-24-2019  13:22:05         PAGE 110


LOC  OBJECT CODE     LINE SOURCE TEXT
  VALUE

                          M               endif
                          M             endif
                          M           endif
                          M         endif
                          M       endif
                          M     endif
                          M 
01C2   2027               M         call    HSEROUT
                      00536 
                      00537 ; C:\USERS\JESSADA\DESKTOP\LED DIMMER PROJECT\PIC16F886\MB_STDIM.BAS    00271   Z0003E                  
                            endif
01C3                  00538 Z0003E
                      00539         LABEL?L L00005  
                          M         RST?RP
                          M     if ((PREV_BANK & 1) != 0)
                          M         bcf     STATUS, RP0
                          M     endif
                          M     if ((PREV_BANK & 2) != 0)
                          M         bcf     STATUS, RP1
                          M     endif
  00000000                M PREV_BANK = 0
                          M     ifdef PM_USED
                          M         LALL
                          M L00005
                          M         XALL
                          M     else
01C3                      M L00005
                          M     endif
                      00540 
                      00541 ; C:\USERS\JESSADA\DESKTOP\LED DIMMER PROJECT\PIC16F886\MB_STDIM.BAS    00276   Z0003F                  
                            gosub cktmOut 
01C3                  00542 Z0003F
                      00543         GOSUB?L _cktmOut
  0000                    M     local dlabel
                          M     ifdef DEBUG_STACK
                          M         CHK?RP  DEBUG_STACK
                          M       ifdef DEBUG_STACK_ADDR
                          M         bcf     STATUS, C
                          M         rlf     DEBUG_STACK, W
                          M         addlw   DEBUG_STACK_ADDR
                          M         movwf   FSR
                          M         movlw   low (dlabel)
                          M         movwf   INDF
                          M         incf    FSR, F
                          M         movlw   high (dlabel)
                          M         movwf   INDF
                          M       endif
                          M         incf    DEBUG_STACK, F
                          M     endif
                          M         L?CALL  _cktmOut
                          M         RST?RP
                          M     if ((PREV_BANK & 1) != 0)
                          M         bcf     STATUS, RP0
MPASM  5.36                      MB_STDIM.ASM   5-24-2019  13:22:05         PAGE 111


LOC  OBJECT CODE     LINE SOURCE TEXT
  VALUE

                          M     endif
                          M     if ((PREV_BANK & 2) != 0)
                          M         bcf     STATUS, RP1
                          M     endif
  00000000                M PREV_BANK = 0
                          M 
                          M     ifdef USE_LINKER
                          M       if (CODE_SIZE > 2)
                          M         pagesel _cktmOut
                          M       endif
                          M     else
                          M       if ((_cktmOut) < 1)
                          M         if (CODE_SIZE > 2)
                          M           if (((_cktmOut) & 800h) == 0)
                          M         bcf     PCLATH, 3
                          M         else
                          M         bsf     PCLATH, 3
                          M         endif
                          M         endif
                          M         if (CODE_SIZE > 4)
                          M           if (((_cktmOut) & 1000h) == 0)
                          M         bcf     PCLATH, 4
                          M           else
                          M         bsf     PCLATH, 4
                          M           endif
                          M         endif
                          M       else
                          M         if ((_cktmOut) > $)
                          M           if (CODE_SIZE > 2)
                          M             if (((_cktmOut) & 800h) == 0)
01C3   118A               M         bcf     PCLATH, 3
                          M             else
                          M         bsf     PCLATH, 3
                          M             endif
                          M           endif
                          M           if (CODE_SIZE > 4)
                          M             if (((_cktmOut) & 1000h) == 0)
01C4   120A               M         bcf     PCLATH, 4
                          M             else
                          M         bsf     PCLATH, 4
                          M             endif
                          M           endif
                          M         else
                          M           if (CODE_SIZE > 2)
                          M             if (((_cktmOut) & 1800h) == 0)
                          M         clrf    PCLATH
                          M             else
                          M               if (((_cktmOut) & 800h) == 0)
                          M         bcf     PCLATH, 3
                          M               else
                          M         bsf     PCLATH, 3
                          M               endif
                          M               if (CODE_SIZE > 4)
MPASM  5.36                      MB_STDIM.ASM   5-24-2019  13:22:05         PAGE 112


LOC  OBJECT CODE     LINE SOURCE TEXT
  VALUE

                          M                 if (((_cktmOut) & 1000h) == 0)
                          M         bcf     PCLATH, 4
                          M                 else
                          M         bsf     PCLATH, 4
                          M                 endif   
                          M               endif
                          M             endif
                          M           endif
                          M         endif
                          M       endif
                          M     endif
                          M 
01C5   224D               M         call    _cktmOut
01C6                      M dlabel
                      00544 
                      00545 ; C:\USERS\JESSADA\DESKTOP\LED DIMMER PROJECT\PIC16F886\MB_STDIM.BAS    00277   Z00040                  
                            if (Rpt>0) then                                 ;  timeout
01C6                  00546 Z00040
                      00547         CMPLE?BCL       _Rpt, 000h, L00007
                          M     if ((000h) >= 0ffh)
                          M         L?GOTO  L00007
                          M     else
                          M       if ((000h) >= 0)
                          M         CLRWDT?
                          M     ifndef NO_CLRWDT
01C6   0064               M         clrwdt
                          M     endif
                          M         MOVE?CA (000h) + 1
01C7   3001               M         movlw   low ((000h) + 1)
                          M         CHK?RP  _Rpt
                          M     if (((_Rpt)  & 180h) == 0)
                          M       if (PREV_BANK == 1)
                          M         bcf     STATUS, RP0
                          M       endif
                          M       if (PREV_BANK == 2)
                          M         bcf     STATUS, RP1
                          M       endif
                          M       if (PREV_BANK == 3)
                          M         bcf     STATUS, RP0
                          M         bcf     STATUS, RP1
                          M       endif
  00000000                M PREV_BANK = 0
                          M     endif
                          M 
                          M     if (((_Rpt)  & 180h) == 80h)
                          M       if (PREV_BANK == 0)
                          M         bsf     STATUS, RP0
                          M       endif
                          M       if (PREV_BANK == 2)
                          M         bsf     STATUS, RP0
                          M         bcf     STATUS, RP1
                          M       endif
                          M       if (PREV_BANK == 3)
MPASM  5.36                      MB_STDIM.ASM   5-24-2019  13:22:05         PAGE 113


LOC  OBJECT CODE     LINE SOURCE TEXT
  VALUE

                          M         bcf     STATUS, RP1
                          M       endif
                          M PREV_BANK = 1
                          M     endif
                          M 
                          M     if (((_Rpt)  & 180h) == 100h)
                          M       if (PREV_BANK == 0)
                          M         bsf     STATUS, RP1
                          M       endif
                          M       if (PREV_BANK == 1)
                          M         bcf     STATUS, RP0
                          M         bsf     STATUS, RP1
                          M       endif
                          M       if (PREV_BANK == 3)
                          M         bcf     STATUS, RP0
                          M       endif
                          M PREV_BANK = 2
                          M     endif
                          M 
                          M     if (((_Rpt)  & 180h) == 180h)
                          M       if (PREV_BANK == 0)
                          M         bsf     STATUS, RP0
                          M         bsf     STATUS, RP1
                          M       endif
                          M       if (PREV_BANK == 1)
                          M         bsf     STATUS, RP1
                          M       endif
                          M       if (PREV_BANK == 2)
                          M         bsf     STATUS, RP0
                          M       endif
                          M PREV_BANK = 3
                          M     endif
01C8   024A               M         subwf   _Rpt, W
                          M         BIT?GOTO 0, STATUS, C, L00007
                          M     ifdef USE_LINKER
                          M         CLRWDT?
                          M     else
                          M       if ($ == (L00007))
                          M         CLRWDT?
                          M       endif
                          M     endif
                          M 
                          M     ifdef USE_LINKER
                          M       if (CODE_SIZE > 2)
                          M         pagesel L00007
                          M       endif
                          M     else
                          M       if (CODE_SIZE > 2)
                          M         if (((L00007) & 800h) == 0)
01C9   118A               M         bcf     PCLATH, 3
                          M         else
                          M         bsf     PCLATH, 3
                          M         endif
MPASM  5.36                      MB_STDIM.ASM   5-24-2019  13:22:05         PAGE 114


LOC  OBJECT CODE     LINE SOURCE TEXT
  VALUE

                          M       endif
                          M       if (CODE_SIZE > 4)
                          M         if (((L00007) & 1000h) == 0)
01CA   120A               M         bcf     PCLATH, 4
                          M         else
                          M         bsf     PCLATH, 4
                          M         endif
                          M       endif
                          M     endif
                          M 
                          M     if (((STATUS) & 0ff80h) != 0)
                          M         CHK?RP  STATUS
                          M         bcf     STATUS, DC
                          M       if ((0)      == 0)
                          M         btfss   STATUS, C
                          M       else
                          M         btfsc   STATUS, C
                          M       endif
                          M         bsf     STATUS, DC
                          M         RST?RP
                          M         btfsc   STATUS, DC
                          M     else
                          M         RST?RP
                          M     if ((PREV_BANK & 1) != 0)
                          M         bcf     STATUS, RP0
                          M     endif
                          M     if ((PREV_BANK & 2) != 0)
                          M         bcf     STATUS, RP1
                          M     endif
  00000000                M PREV_BANK = 0
                          M       if ((0)      == 0)
01CB   1C03               M         btfss   STATUS, C
                          M       else
                          M         btfsc   STATUS, C
                          M       endif
                          M     endif
                          M 
01CC   2A10               M         goto    L00007
                          M       endif
                          M     endif
                      00548 
                      00549 ; C:\USERS\JESSADA\DESKTOP\LED DIMMER PROJECT\PIC16F886\MB_STDIM.BAS    00278   Z00041                  
                                    debug "LOOP 1 ",13,10
01CD                  00550 Z00041
                      00551         DEBUG?C 04Ch
01CD   304C               M         movlw   04Ch
                          M         L?CALL  DEBUG
                          M         RST?RP
                          M     if ((PREV_BANK & 1) != 0)
                          M         bcf     STATUS, RP0
                          M     endif
                          M     if ((PREV_BANK & 2) != 0)
                          M         bcf     STATUS, RP1
MPASM  5.36                      MB_STDIM.ASM   5-24-2019  13:22:05         PAGE 115


LOC  OBJECT CODE     LINE SOURCE TEXT
  VALUE

                          M     endif
  00000000                M PREV_BANK = 0
                          M 
                          M     ifdef USE_LINKER
                          M       if (CODE_SIZE > 2)
                          M         pagesel DEBUG
                          M       endif
                          M     else
                          M       if ((DEBUG) < 1)
                          M         if (CODE_SIZE > 2)
                          M           if (((DEBUG) & 800h) == 0)
                          M         bcf     PCLATH, 3
                          M         else
                          M         bsf     PCLATH, 3
                          M         endif
                          M         endif
                          M         if (CODE_SIZE > 4)
                          M           if (((DEBUG) & 1000h) == 0)
                          M         bcf     PCLATH, 4
                          M           else
                          M         bsf     PCLATH, 4
                          M           endif
                          M         endif
                          M       else
                          M         if ((DEBUG) > $)
                          M           if (CODE_SIZE > 2)
                          M             if (((DEBUG) & 800h) == 0)
                          M         bcf     PCLATH, 3
                          M             else
                          M         bsf     PCLATH, 3
                          M             endif
                          M           endif
                          M           if (CODE_SIZE > 4)
                          M             if (((DEBUG) & 1000h) == 0)
                          M         bcf     PCLATH, 4
                          M             else
                          M         bsf     PCLATH, 4
                          M             endif
                          M           endif
                          M         else
                          M           if (CODE_SIZE > 2)
                          M             if (((DEBUG) & 1800h) == 0)
01CE   018A               M         clrf    PCLATH
                          M             else
                          M               if (((DEBUG) & 800h) == 0)
                          M         bcf     PCLATH, 3
                          M               else
                          M         bsf     PCLATH, 3
                          M               endif
                          M               if (CODE_SIZE > 4)
                          M                 if (((DEBUG) & 1000h) == 0)
                          M         bcf     PCLATH, 4
                          M                 else
MPASM  5.36                      MB_STDIM.ASM   5-24-2019  13:22:05         PAGE 116


LOC  OBJECT CODE     LINE SOURCE TEXT
  VALUE

                          M         bsf     PCLATH, 4
                          M                 endif   
                          M               endif
                          M             endif
                          M           endif
                          M         endif
                          M       endif
                          M     endif
                          M 
01CF   200D               M         call    DEBUG
                      00552         DEBUG?C 04Fh
01D0   304F               M         movlw   04Fh
                          M         L?CALL  DEBUG
                          M         RST?RP
                          M     if ((PREV_BANK & 1) != 0)
                          M         bcf     STATUS, RP0
                          M     endif
                          M     if ((PREV_BANK & 2) != 0)
                          M         bcf     STATUS, RP1
                          M     endif
  00000000                M PREV_BANK = 0
                          M 
                          M     ifdef USE_LINKER
                          M       if (CODE_SIZE > 2)
                          M         pagesel DEBUG
                          M       endif
                          M     else
                          M       if ((DEBUG) < 1)
                          M         if (CODE_SIZE > 2)
                          M           if (((DEBUG) & 800h) == 0)
                          M         bcf     PCLATH, 3
                          M         else
                          M         bsf     PCLATH, 3
                          M         endif
                          M         endif
                          M         if (CODE_SIZE > 4)
                          M           if (((DEBUG) & 1000h) == 0)
                          M         bcf     PCLATH, 4
                          M           else
                          M         bsf     PCLATH, 4
                          M           endif
                          M         endif
                          M       else
                          M         if ((DEBUG) > $)
                          M           if (CODE_SIZE > 2)
                          M             if (((DEBUG) & 800h) == 0)
                          M         bcf     PCLATH, 3
                          M             else
                          M         bsf     PCLATH, 3
                          M             endif
                          M           endif
                          M           if (CODE_SIZE > 4)
                          M             if (((DEBUG) & 1000h) == 0)
MPASM  5.36                      MB_STDIM.ASM   5-24-2019  13:22:05         PAGE 117


LOC  OBJECT CODE     LINE SOURCE TEXT
  VALUE

                          M         bcf     PCLATH, 4
                          M             else
                          M         bsf     PCLATH, 4
                          M             endif
                          M           endif
                          M         else
                          M           if (CODE_SIZE > 2)
                          M             if (((DEBUG) & 1800h) == 0)
01D1   018A               M         clrf    PCLATH
                          M             else
                          M               if (((DEBUG) & 800h) == 0)
                          M         bcf     PCLATH, 3
                          M               else
                          M         bsf     PCLATH, 3
                          M               endif
                          M               if (CODE_SIZE > 4)
                          M                 if (((DEBUG) & 1000h) == 0)
                          M         bcf     PCLATH, 4
                          M                 else
                          M         bsf     PCLATH, 4
                          M                 endif   
                          M               endif
                          M             endif
                          M           endif
                          M         endif
                          M       endif
                          M     endif
                          M 
01D2   200D               M         call    DEBUG
                      00553         DEBUG?C 04Fh
01D3   304F               M         movlw   04Fh
                          M         L?CALL  DEBUG
                          M         RST?RP
                          M     if ((PREV_BANK & 1) != 0)
                          M         bcf     STATUS, RP0
                          M     endif
                          M     if ((PREV_BANK & 2) != 0)
                          M         bcf     STATUS, RP1
                          M     endif
  00000000                M PREV_BANK = 0
                          M 
                          M     ifdef USE_LINKER
                          M       if (CODE_SIZE > 2)
                          M         pagesel DEBUG
                          M       endif
                          M     else
                          M       if ((DEBUG) < 1)
                          M         if (CODE_SIZE > 2)
                          M           if (((DEBUG) & 800h) == 0)
                          M         bcf     PCLATH, 3
                          M         else
                          M         bsf     PCLATH, 3
                          M         endif
MPASM  5.36                      MB_STDIM.ASM   5-24-2019  13:22:05         PAGE 118


LOC  OBJECT CODE     LINE SOURCE TEXT
  VALUE

                          M         endif
                          M         if (CODE_SIZE > 4)
                          M           if (((DEBUG) & 1000h) == 0)
                          M         bcf     PCLATH, 4
                          M           else
                          M         bsf     PCLATH, 4
                          M           endif
                          M         endif
                          M       else
                          M         if ((DEBUG) > $)
                          M           if (CODE_SIZE > 2)
                          M             if (((DEBUG) & 800h) == 0)
                          M         bcf     PCLATH, 3
                          M             else
                          M         bsf     PCLATH, 3
                          M             endif
                          M           endif
                          M           if (CODE_SIZE > 4)
                          M             if (((DEBUG) & 1000h) == 0)
                          M         bcf     PCLATH, 4
                          M             else
                          M         bsf     PCLATH, 4
                          M             endif
                          M           endif
                          M         else
                          M           if (CODE_SIZE > 2)
                          M             if (((DEBUG) & 1800h) == 0)
01D4   018A               M         clrf    PCLATH
                          M             else
                          M               if (((DEBUG) & 800h) == 0)
                          M         bcf     PCLATH, 3
                          M               else
                          M         bsf     PCLATH, 3
                          M               endif
                          M               if (CODE_SIZE > 4)
                          M                 if (((DEBUG) & 1000h) == 0)
                          M         bcf     PCLATH, 4
                          M                 else
                          M         bsf     PCLATH, 4
                          M                 endif   
                          M               endif
                          M             endif
                          M           endif
                          M         endif
                          M       endif
                          M     endif
                          M 
01D5   200D               M         call    DEBUG
                      00554         DEBUG?C 050h
01D6   3050               M         movlw   050h
                          M         L?CALL  DEBUG
                          M         RST?RP
                          M     if ((PREV_BANK & 1) != 0)
MPASM  5.36                      MB_STDIM.ASM   5-24-2019  13:22:05         PAGE 119


LOC  OBJECT CODE     LINE SOURCE TEXT
  VALUE

                          M         bcf     STATUS, RP0
                          M     endif
                          M     if ((PREV_BANK & 2) != 0)
                          M         bcf     STATUS, RP1
                          M     endif
  00000000                M PREV_BANK = 0
                          M 
                          M     ifdef USE_LINKER
                          M       if (CODE_SIZE > 2)
                          M         pagesel DEBUG
                          M       endif
                          M     else
                          M       if ((DEBUG) < 1)
                          M         if (CODE_SIZE > 2)
                          M           if (((DEBUG) & 800h) == 0)
                          M         bcf     PCLATH, 3
                          M         else
                          M         bsf     PCLATH, 3
                          M         endif
                          M         endif
                          M         if (CODE_SIZE > 4)
                          M           if (((DEBUG) & 1000h) == 0)
                          M         bcf     PCLATH, 4
                          M           else
                          M         bsf     PCLATH, 4
                          M           endif
                          M         endif
                          M       else
                          M         if ((DEBUG) > $)
                          M           if (CODE_SIZE > 2)
                          M             if (((DEBUG) & 800h) == 0)
                          M         bcf     PCLATH, 3
                          M             else
                          M         bsf     PCLATH, 3
                          M             endif
                          M           endif
                          M           if (CODE_SIZE > 4)
                          M             if (((DEBUG) & 1000h) == 0)
                          M         bcf     PCLATH, 4
                          M             else
                          M         bsf     PCLATH, 4
                          M             endif
                          M           endif
                          M         else
                          M           if (CODE_SIZE > 2)
                          M             if (((DEBUG) & 1800h) == 0)
01D7   018A               M         clrf    PCLATH
                          M             else
                          M               if (((DEBUG) & 800h) == 0)
                          M         bcf     PCLATH, 3
                          M               else
                          M         bsf     PCLATH, 3
                          M               endif
MPASM  5.36                      MB_STDIM.ASM   5-24-2019  13:22:05         PAGE 120


LOC  OBJECT CODE     LINE SOURCE TEXT
  VALUE

                          M               if (CODE_SIZE > 4)
                          M                 if (((DEBUG) & 1000h) == 0)
                          M         bcf     PCLATH, 4
                          M                 else
                          M         bsf     PCLATH, 4
                          M                 endif   
                          M               endif
                          M             endif
                          M           endif
                          M         endif
                          M       endif
                          M     endif
                          M 
01D8   200D               M         call    DEBUG
                      00555         DEBUG?C 020h
01D9   3020               M         movlw   020h
                          M         L?CALL  DEBUG
                          M         RST?RP
                          M     if ((PREV_BANK & 1) != 0)
                          M         bcf     STATUS, RP0
                          M     endif
                          M     if ((PREV_BANK & 2) != 0)
                          M         bcf     STATUS, RP1
                          M     endif
  00000000                M PREV_BANK = 0
                          M 
                          M     ifdef USE_LINKER
                          M       if (CODE_SIZE > 2)
                          M         pagesel DEBUG
                          M       endif
                          M     else
                          M       if ((DEBUG) < 1)
                          M         if (CODE_SIZE > 2)
                          M           if (((DEBUG) & 800h) == 0)
                          M         bcf     PCLATH, 3
                          M         else
                          M         bsf     PCLATH, 3
                          M         endif
                          M         endif
                          M         if (CODE_SIZE > 4)
                          M           if (((DEBUG) & 1000h) == 0)
                          M         bcf     PCLATH, 4
                          M           else
                          M         bsf     PCLATH, 4
                          M           endif
                          M         endif
                          M       else
                          M         if ((DEBUG) > $)
                          M           if (CODE_SIZE > 2)
                          M             if (((DEBUG) & 800h) == 0)
                          M         bcf     PCLATH, 3
                          M             else
                          M         bsf     PCLATH, 3
MPASM  5.36                      MB_STDIM.ASM   5-24-2019  13:22:05         PAGE 121


LOC  OBJECT CODE     LINE SOURCE TEXT
  VALUE

                          M             endif
                          M           endif
                          M           if (CODE_SIZE > 4)
                          M             if (((DEBUG) & 1000h) == 0)
                          M         bcf     PCLATH, 4
                          M             else
                          M         bsf     PCLATH, 4
                          M             endif
                          M           endif
                          M         else
                          M           if (CODE_SIZE > 2)
                          M             if (((DEBUG) & 1800h) == 0)
01DA   018A               M         clrf    PCLATH
                          M             else
                          M               if (((DEBUG) & 800h) == 0)
                          M         bcf     PCLATH, 3
                          M               else
                          M         bsf     PCLATH, 3
                          M               endif
                          M               if (CODE_SIZE > 4)
                          M                 if (((DEBUG) & 1000h) == 0)
                          M         bcf     PCLATH, 4
                          M                 else
                          M         bsf     PCLATH, 4
                          M                 endif   
                          M               endif
                          M             endif
                          M           endif
                          M         endif
                          M       endif
                          M     endif
                          M 
01DB   200D               M         call    DEBUG
                      00556         DEBUG?C 031h
01DC   3031               M         movlw   031h
                          M         L?CALL  DEBUG
                          M         RST?RP
                          M     if ((PREV_BANK & 1) != 0)
                          M         bcf     STATUS, RP0
                          M     endif
                          M     if ((PREV_BANK & 2) != 0)
                          M         bcf     STATUS, RP1
                          M     endif
  00000000                M PREV_BANK = 0
                          M 
                          M     ifdef USE_LINKER
                          M       if (CODE_SIZE > 2)
                          M         pagesel DEBUG
                          M       endif
                          M     else
                          M       if ((DEBUG) < 1)
                          M         if (CODE_SIZE > 2)
                          M           if (((DEBUG) & 800h) == 0)
MPASM  5.36                      MB_STDIM.ASM   5-24-2019  13:22:05         PAGE 122


LOC  OBJECT CODE     LINE SOURCE TEXT
  VALUE

                          M         bcf     PCLATH, 3
                          M         else
                          M         bsf     PCLATH, 3
                          M         endif
                          M         endif
                          M         if (CODE_SIZE > 4)
                          M           if (((DEBUG) & 1000h) == 0)
                          M         bcf     PCLATH, 4
                          M           else
                          M         bsf     PCLATH, 4
                          M           endif
                          M         endif
                          M       else
                          M         if ((DEBUG) > $)
                          M           if (CODE_SIZE > 2)
                          M             if (((DEBUG) & 800h) == 0)
                          M         bcf     PCLATH, 3
                          M             else
                          M         bsf     PCLATH, 3
                          M             endif
                          M           endif
                          M           if (CODE_SIZE > 4)
                          M             if (((DEBUG) & 1000h) == 0)
                          M         bcf     PCLATH, 4
                          M             else
                          M         bsf     PCLATH, 4
                          M             endif
                          M           endif
                          M         else
                          M           if (CODE_SIZE > 2)
                          M             if (((DEBUG) & 1800h) == 0)
01DD   018A               M         clrf    PCLATH
                          M             else
                          M               if (((DEBUG) & 800h) == 0)
                          M         bcf     PCLATH, 3
                          M               else
                          M         bsf     PCLATH, 3
                          M               endif
                          M               if (CODE_SIZE > 4)
                          M                 if (((DEBUG) & 1000h) == 0)
                          M         bcf     PCLATH, 4
                          M                 else
                          M         bsf     PCLATH, 4
                          M                 endif   
                          M               endif
                          M             endif
                          M           endif
                          M         endif
                          M       endif
                          M     endif
                          M 
01DE   200D               M         call    DEBUG
                      00557         DEBUG?C 020h
MPASM  5.36                      MB_STDIM.ASM   5-24-2019  13:22:05         PAGE 123


LOC  OBJECT CODE     LINE SOURCE TEXT
  VALUE

01DF   3020               M         movlw   020h
                          M         L?CALL  DEBUG
                          M         RST?RP
                          M     if ((PREV_BANK & 1) != 0)
                          M         bcf     STATUS, RP0
                          M     endif
                          M     if ((PREV_BANK & 2) != 0)
                          M         bcf     STATUS, RP1
                          M     endif
  00000000                M PREV_BANK = 0
                          M 
                          M     ifdef USE_LINKER
                          M       if (CODE_SIZE > 2)
                          M         pagesel DEBUG
                          M       endif
                          M     else
                          M       if ((DEBUG) < 1)
                          M         if (CODE_SIZE > 2)
                          M           if (((DEBUG) & 800h) == 0)
                          M         bcf     PCLATH, 3
                          M         else
                          M         bsf     PCLATH, 3
                          M         endif
                          M         endif
                          M         if (CODE_SIZE > 4)
                          M           if (((DEBUG) & 1000h) == 0)
                          M         bcf     PCLATH, 4
                          M           else
                          M         bsf     PCLATH, 4
                          M           endif
                          M         endif
                          M       else
                          M         if ((DEBUG) > $)
                          M           if (CODE_SIZE > 2)
                          M             if (((DEBUG) & 800h) == 0)
                          M         bcf     PCLATH, 3
                          M             else
                          M         bsf     PCLATH, 3
                          M             endif
                          M           endif
                          M           if (CODE_SIZE > 4)
                          M             if (((DEBUG) & 1000h) == 0)
                          M         bcf     PCLATH, 4
                          M             else
                          M         bsf     PCLATH, 4
                          M             endif
                          M           endif
                          M         else
                          M           if (CODE_SIZE > 2)
                          M             if (((DEBUG) & 1800h) == 0)
01E0   018A               M         clrf    PCLATH
                          M             else
                          M               if (((DEBUG) & 800h) == 0)
MPASM  5.36                      MB_STDIM.ASM   5-24-2019  13:22:05         PAGE 124


LOC  OBJECT CODE     LINE SOURCE TEXT
  VALUE

                          M         bcf     PCLATH, 3
                          M               else
                          M         bsf     PCLATH, 3
                          M               endif
                          M               if (CODE_SIZE > 4)
                          M                 if (((DEBUG) & 1000h) == 0)
                          M         bcf     PCLATH, 4
                          M                 else
                          M         bsf     PCLATH, 4
                          M                 endif   
                          M               endif
                          M             endif
                          M           endif
                          M         endif
                          M       endif
                          M     endif
                          M 
01E1   200D               M         call    DEBUG
                      00558         DEBUG?C 00Dh
01E2   300D               M         movlw   00Dh
                          M         L?CALL  DEBUG
                          M         RST?RP
                          M     if ((PREV_BANK & 1) != 0)
                          M         bcf     STATUS, RP0
                          M     endif
                          M     if ((PREV_BANK & 2) != 0)
                          M         bcf     STATUS, RP1
                          M     endif
  00000000                M PREV_BANK = 0
                          M 
                          M     ifdef USE_LINKER
                          M       if (CODE_SIZE > 2)
                          M         pagesel DEBUG
                          M       endif
                          M     else
                          M       if ((DEBUG) < 1)
                          M         if (CODE_SIZE > 2)
                          M           if (((DEBUG) & 800h) == 0)
                          M         bcf     PCLATH, 3
                          M         else
                          M         bsf     PCLATH, 3
                          M         endif
                          M         endif
                          M         if (CODE_SIZE > 4)
                          M           if (((DEBUG) & 1000h) == 0)
                          M         bcf     PCLATH, 4
                          M           else
                          M         bsf     PCLATH, 4
                          M           endif
                          M         endif
                          M       else
                          M         if ((DEBUG) > $)
                          M           if (CODE_SIZE > 2)
MPASM  5.36                      MB_STDIM.ASM   5-24-2019  13:22:05         PAGE 125


LOC  OBJECT CODE     LINE SOURCE TEXT
  VALUE

                          M             if (((DEBUG) & 800h) == 0)
                          M         bcf     PCLATH, 3
                          M             else
                          M         bsf     PCLATH, 3
                          M             endif
                          M           endif
                          M           if (CODE_SIZE > 4)
                          M             if (((DEBUG) & 1000h) == 0)
                          M         bcf     PCLATH, 4
                          M             else
                          M         bsf     PCLATH, 4
                          M             endif
                          M           endif
                          M         else
                          M           if (CODE_SIZE > 2)
                          M             if (((DEBUG) & 1800h) == 0)
01E3   018A               M         clrf    PCLATH
                          M             else
                          M               if (((DEBUG) & 800h) == 0)
                          M         bcf     PCLATH, 3
                          M               else
                          M         bsf     PCLATH, 3
                          M               endif
                          M               if (CODE_SIZE > 4)
                          M                 if (((DEBUG) & 1000h) == 0)
                          M         bcf     PCLATH, 4
                          M                 else
                          M         bsf     PCLATH, 4
                          M                 endif   
                          M               endif
                          M             endif
                          M           endif
                          M         endif
                          M       endif
                          M     endif
                          M 
01E4   200D               M         call    DEBUG
                      00559         DEBUG?C 00Ah
01E5   300A               M         movlw   00Ah
                          M         L?CALL  DEBUG
                          M         RST?RP
                          M     if ((PREV_BANK & 1) != 0)
                          M         bcf     STATUS, RP0
                          M     endif
                          M     if ((PREV_BANK & 2) != 0)
                          M         bcf     STATUS, RP1
                          M     endif
  00000000                M PREV_BANK = 0
                          M 
                          M     ifdef USE_LINKER
                          M       if (CODE_SIZE > 2)
                          M         pagesel DEBUG
                          M       endif
MPASM  5.36                      MB_STDIM.ASM   5-24-2019  13:22:05         PAGE 126


LOC  OBJECT CODE     LINE SOURCE TEXT
  VALUE

                          M     else
                          M       if ((DEBUG) < 1)
                          M         if (CODE_SIZE > 2)
                          M           if (((DEBUG) & 800h) == 0)
                          M         bcf     PCLATH, 3
                          M         else
                          M         bsf     PCLATH, 3
                          M         endif
                          M         endif
                          M         if (CODE_SIZE > 4)
                          M           if (((DEBUG) & 1000h) == 0)
                          M         bcf     PCLATH, 4
                          M           else
                          M         bsf     PCLATH, 4
                          M           endif
                          M         endif
                          M       else
                          M         if ((DEBUG) > $)
                          M           if (CODE_SIZE > 2)
                          M             if (((DEBUG) & 800h) == 0)
                          M         bcf     PCLATH, 3
                          M             else
                          M         bsf     PCLATH, 3
                          M             endif
                          M           endif
                          M           if (CODE_SIZE > 4)
                          M             if (((DEBUG) & 1000h) == 0)
                          M         bcf     PCLATH, 4
                          M             else
                          M         bsf     PCLATH, 4
                          M             endif
                          M           endif
                          M         else
                          M           if (CODE_SIZE > 2)
                          M             if (((DEBUG) & 1800h) == 0)
01E6   018A               M         clrf    PCLATH
                          M             else
                          M               if (((DEBUG) & 800h) == 0)
                          M         bcf     PCLATH, 3
                          M               else
                          M         bsf     PCLATH, 3
                          M               endif
                          M               if (CODE_SIZE > 4)
                          M                 if (((DEBUG) & 1000h) == 0)
                          M         bcf     PCLATH, 4
                          M                 else
                          M         bsf     PCLATH, 4
                          M                 endif   
                          M               endif
                          M             endif
                          M           endif
                          M         endif
                          M       endif
MPASM  5.36                      MB_STDIM.ASM   5-24-2019  13:22:05         PAGE 127


LOC  OBJECT CODE     LINE SOURCE TEXT
  VALUE

                          M     endif
                          M 
01E7   200D               M         call    DEBUG
                      00560 
                      00561 ; C:\USERS\JESSADA\DESKTOP\LED DIMMER PROJECT\PIC16F886\MB_STDIM.BAS    00279   Z00042                  
                                    gosub OnTm1 
01E8                  00562 Z00042
                      00563         GOSUB?L _OnTm1
  0000                    M     local dlabel
                          M     ifdef DEBUG_STACK
                          M         CHK?RP  DEBUG_STACK
                          M       ifdef DEBUG_STACK_ADDR
                          M         bcf     STATUS, C
                          M         rlf     DEBUG_STACK, W
                          M         addlw   DEBUG_STACK_ADDR
                          M         movwf   FSR
                          M         movlw   low (dlabel)
                          M         movwf   INDF
                          M         incf    FSR, F
                          M         movlw   high (dlabel)
                          M         movwf   INDF
                          M       endif
                          M         incf    DEBUG_STACK, F
                          M     endif
                          M         L?CALL  _OnTm1
                          M         RST?RP
                          M     if ((PREV_BANK & 1) != 0)
                          M         bcf     STATUS, RP0
                          M     endif
                          M     if ((PREV_BANK & 2) != 0)
                          M         bcf     STATUS, RP1
                          M     endif
  00000000                M PREV_BANK = 0
                          M 
                          M     ifdef USE_LINKER
                          M       if (CODE_SIZE > 2)
                          M         pagesel _OnTm1
                          M       endif
                          M     else
                          M       if ((_OnTm1) < 1)
                          M         if (CODE_SIZE > 2)
                          M           if (((_OnTm1) & 800h) == 0)
                          M         bcf     PCLATH, 3
                          M         else
                          M         bsf     PCLATH, 3
                          M         endif
                          M         endif
                          M         if (CODE_SIZE > 4)
                          M           if (((_OnTm1) & 1000h) == 0)
                          M         bcf     PCLATH, 4
                          M           else
                          M         bsf     PCLATH, 4
                          M           endif
MPASM  5.36                      MB_STDIM.ASM   5-24-2019  13:22:05         PAGE 128


LOC  OBJECT CODE     LINE SOURCE TEXT
  VALUE

                          M         endif
                          M       else
                          M         if ((_OnTm1) > $)
                          M           if (CODE_SIZE > 2)
                          M             if (((_OnTm1) & 800h) == 0)
01E8   118A               M         bcf     PCLATH, 3
                          M             else
                          M         bsf     PCLATH, 3
                          M             endif
                          M           endif
                          M           if (CODE_SIZE > 4)
                          M             if (((_OnTm1) & 1000h) == 0)
01E9   120A               M         bcf     PCLATH, 4
                          M             else
                          M         bsf     PCLATH, 4
                          M             endif
                          M           endif
                          M         else
                          M           if (CODE_SIZE > 2)
                          M             if (((_OnTm1) & 1800h) == 0)
                          M         clrf    PCLATH
                          M             else
                          M               if (((_OnTm1) & 800h) == 0)
                          M         bcf     PCLATH, 3
                          M               else
                          M         bsf     PCLATH, 3
                          M               endif
                          M               if (CODE_SIZE > 4)
                          M                 if (((_OnTm1) & 1000h) == 0)
                          M         bcf     PCLATH, 4
                          M                 else
                          M         bsf     PCLATH, 4
                          M                 endif   
                          M               endif
                          M             endif
                          M           endif
                          M         endif
                          M       endif
                          M     endif
                          M 
01EA   2316               M         call    _OnTm1
01EB                      M dlabel
                      00564 
                      00565 ; C:\USERS\JESSADA\DESKTOP\LED DIMMER PROJECT\PIC16F886\MB_STDIM.BAS    00280   Z00043                  
                                    if secCnt>0 then secCnt=secCnt-1
01EB                  00566 Z00043
                      00567         CMPLE?WCL       _secCnt, 000h, L00009
                          M     if ((000h) >= 0ffffh)
                          M         L?GOTO  L00009
                          M     else
                          M       if ((000h) >= 0)
                          M         MOVE?WW _secCnt, R0
                          M         MOVE?BB _secCnt, R0
MPASM  5.36                      MB_STDIM.ASM   5-24-2019  13:22:05         PAGE 129


LOC  OBJECT CODE     LINE SOURCE TEXT
  VALUE

                          M         CHK?RP  _secCnt
                          M     if (((_secCnt) & 180h) == 0)
                          M       if (PREV_BANK == 1)
                          M         bcf     STATUS, RP0
                          M       endif
                          M       if (PREV_BANK == 2)
                          M         bcf     STATUS, RP1
                          M       endif
                          M       if (PREV_BANK == 3)
                          M         bcf     STATUS, RP0
                          M         bcf     STATUS, RP1
                          M       endif
  00000000                M PREV_BANK = 0
                          M     endif
                          M 
                          M     if (((_secCnt) & 180h) == 80h)
                          M       if (PREV_BANK == 0)
                          M         bsf     STATUS, RP0
                          M       endif
                          M       if (PREV_BANK == 2)
                          M         bsf     STATUS, RP0
                          M         bcf     STATUS, RP1
                          M       endif
                          M       if (PREV_BANK == 3)
                          M         bcf     STATUS, RP1
                          M       endif
                          M PREV_BANK = 1
                          M     endif
                          M 
                          M     if (((_secCnt) & 180h) == 100h)
                          M       if (PREV_BANK == 0)
                          M         bsf     STATUS, RP1
                          M       endif
                          M       if (PREV_BANK == 1)
                          M         bcf     STATUS, RP0
                          M         bsf     STATUS, RP1
                          M       endif
                          M       if (PREV_BANK == 3)
                          M         bcf     STATUS, RP0
                          M       endif
                          M PREV_BANK = 2
                          M     endif
                          M 
                          M     if (((_secCnt) & 180h) == 180h)
                          M       if (PREV_BANK == 0)
                          M         bsf     STATUS, RP0
                          M         bsf     STATUS, RP1
                          M       endif
                          M       if (PREV_BANK == 1)
                          M         bsf     STATUS, RP1
                          M       endif
                          M       if (PREV_BANK == 2)
                          M         bsf     STATUS, RP0
MPASM  5.36                      MB_STDIM.ASM   5-24-2019  13:22:05         PAGE 130


LOC  OBJECT CODE     LINE SOURCE TEXT
  VALUE

                          M       endif
                          M PREV_BANK = 3
                          M     endif
01EB   083A               M         movf    _secCnt, W
                          M         CHK?RP  R0
                          M     if (((R0)    & 180h) == 0)
                          M       if (PREV_BANK == 1)
                          M         bcf     STATUS, RP0
                          M       endif
                          M       if (PREV_BANK == 2)
                          M         bcf     STATUS, RP1
                          M       endif
                          M       if (PREV_BANK == 3)
                          M         bcf     STATUS, RP0
                          M         bcf     STATUS, RP1
                          M       endif
  00000000                M PREV_BANK = 0
                          M     endif
                          M 
                          M     if (((R0)    & 180h) == 80h)
                          M       if (PREV_BANK == 0)
                          M         bsf     STATUS, RP0
                          M       endif
                          M       if (PREV_BANK == 2)
                          M         bsf     STATUS, RP0
                          M         bcf     STATUS, RP1
                          M       endif
                          M       if (PREV_BANK == 3)
                          M         bcf     STATUS, RP1
                          M       endif
                          M PREV_BANK = 1
                          M     endif
                          M 
                          M     if (((R0)    & 180h) == 100h)
                          M       if (PREV_BANK == 0)
                          M         bsf     STATUS, RP1
                          M       endif
                          M       if (PREV_BANK == 1)
                          M         bcf     STATUS, RP0
                          M         bsf     STATUS, RP1
                          M       endif
                          M       if (PREV_BANK == 3)
                          M         bcf     STATUS, RP0
                          M       endif
                          M PREV_BANK = 2
                          M     endif
                          M 
                          M     if (((R0)    & 180h) == 180h)
                          M       if (PREV_BANK == 0)
                          M         bsf     STATUS, RP0
                          M         bsf     STATUS, RP1
                          M       endif
                          M       if (PREV_BANK == 1)
MPASM  5.36                      MB_STDIM.ASM   5-24-2019  13:22:05         PAGE 131


LOC  OBJECT CODE     LINE SOURCE TEXT
  VALUE

                          M         bsf     STATUS, RP1
                          M       endif
                          M       if (PREV_BANK == 2)
                          M         bsf     STATUS, RP0
                          M       endif
                          M PREV_BANK = 3
                          M     endif
01EC   00A0               M         movwf   R0
                          M         MOVE?BB (_secCnt) + 1, (R0) + 1
                          M         CHK?RP  (_secCnt) + 1
                          M     if ((((_secCnt) + 1) & 180h) == 0)
                          M       if (PREV_BANK == 1)
                          M         bcf     STATUS, RP0
                          M       endif
                          M       if (PREV_BANK == 2)
                          M         bcf     STATUS, RP1
                          M       endif
                          M       if (PREV_BANK == 3)
                          M         bcf     STATUS, RP0
                          M         bcf     STATUS, RP1
                          M       endif
  00000000                M PREV_BANK = 0
                          M     endif
                          M 
                          M     if ((((_secCnt) + 1) & 180h) == 80h)
                          M       if (PREV_BANK == 0)
                          M         bsf     STATUS, RP0
                          M       endif
                          M       if (PREV_BANK == 2)
                          M         bsf     STATUS, RP0
                          M         bcf     STATUS, RP1
                          M       endif
                          M       if (PREV_BANK == 3)
                          M         bcf     STATUS, RP1
                          M       endif
                          M PREV_BANK = 1
                          M     endif
                          M 
                          M     if ((((_secCnt) + 1) & 180h) == 100h)
                          M       if (PREV_BANK == 0)
                          M         bsf     STATUS, RP1
                          M       endif
                          M       if (PREV_BANK == 1)
                          M         bcf     STATUS, RP0
                          M         bsf     STATUS, RP1
                          M       endif
                          M       if (PREV_BANK == 3)
                          M         bcf     STATUS, RP0
                          M       endif
                          M PREV_BANK = 2
                          M     endif
                          M 
                          M     if ((((_secCnt) + 1) & 180h) == 180h)
MPASM  5.36                      MB_STDIM.ASM   5-24-2019  13:22:05         PAGE 132


LOC  OBJECT CODE     LINE SOURCE TEXT
  VALUE

                          M       if (PREV_BANK == 0)
                          M         bsf     STATUS, RP0
                          M         bsf     STATUS, RP1
                          M       endif
                          M       if (PREV_BANK == 1)
                          M         bsf     STATUS, RP1
                          M       endif
                          M       if (PREV_BANK == 2)
                          M         bsf     STATUS, RP0
                          M       endif
                          M PREV_BANK = 3
                          M     endif
01ED   083B               M         movf    (_secCnt) + 1, W
                          M         CHK?RP  (R0) + 1
                          M     if ((((R0) + 1) & 180h) == 0)
                          M       if (PREV_BANK == 1)
                          M         bcf     STATUS, RP0
                          M       endif
                          M       if (PREV_BANK == 2)
                          M         bcf     STATUS, RP1
                          M       endif
                          M       if (PREV_BANK == 3)
                          M         bcf     STATUS, RP0
                          M         bcf     STATUS, RP1
                          M       endif
  00000000                M PREV_BANK = 0
                          M     endif
                          M 
                          M     if ((((R0) + 1) & 180h) == 80h)
                          M       if (PREV_BANK == 0)
                          M         bsf     STATUS, RP0
                          M       endif
                          M       if (PREV_BANK == 2)
                          M         bsf     STATUS, RP0
                          M         bcf     STATUS, RP1
                          M       endif
                          M       if (PREV_BANK == 3)
                          M         bcf     STATUS, RP1
                          M       endif
                          M PREV_BANK = 1
                          M     endif
                          M 
                          M     if ((((R0) + 1) & 180h) == 100h)
                          M       if (PREV_BANK == 0)
                          M         bsf     STATUS, RP1
                          M       endif
                          M       if (PREV_BANK == 1)
                          M         bcf     STATUS, RP0
                          M         bsf     STATUS, RP1
                          M       endif
                          M       if (PREV_BANK == 3)
                          M         bcf     STATUS, RP0
                          M       endif
MPASM  5.36                      MB_STDIM.ASM   5-24-2019  13:22:05         PAGE 133


LOC  OBJECT CODE     LINE SOURCE TEXT
  VALUE

                          M PREV_BANK = 2
                          M     endif
                          M 
                          M     if ((((R0) + 1) & 180h) == 180h)
                          M       if (PREV_BANK == 0)
                          M         bsf     STATUS, RP0
                          M         bsf     STATUS, RP1
                          M       endif
                          M       if (PREV_BANK == 1)
                          M         bsf     STATUS, RP1
                          M       endif
                          M       if (PREV_BANK == 2)
                          M         bsf     STATUS, RP0
                          M       endif
                          M PREV_BANK = 3
                          M     endif
01EE   00A1               M         movwf   (R0) + 1
                          M         MOVE?CB (000h) >> 8, R1 + 1
                          M         CHK?RP  R1 + 1
                          M     if (((R1 + 1) & 180h) == 0)
                          M       if (PREV_BANK == 1)
                          M         bcf     STATUS, RP0
                          M       endif
                          M       if (PREV_BANK == 2)
                          M         bcf     STATUS, RP1
                          M       endif
                          M       if (PREV_BANK == 3)
                          M         bcf     STATUS, RP0
                          M         bcf     STATUS, RP1
                          M       endif
  00000000                M PREV_BANK = 0
                          M     endif
                          M 
                          M     if (((R1 + 1) & 180h) == 80h)
                          M       if (PREV_BANK == 0)
                          M         bsf     STATUS, RP0
                          M       endif
                          M       if (PREV_BANK == 2)
                          M         bsf     STATUS, RP0
                          M         bcf     STATUS, RP1
                          M       endif
                          M       if (PREV_BANK == 3)
                          M         bcf     STATUS, RP1
                          M       endif
                          M PREV_BANK = 1
                          M     endif
                          M 
                          M     if (((R1 + 1) & 180h) == 100h)
                          M       if (PREV_BANK == 0)
                          M         bsf     STATUS, RP1
                          M       endif
                          M       if (PREV_BANK == 1)
                          M         bcf     STATUS, RP0
MPASM  5.36                      MB_STDIM.ASM   5-24-2019  13:22:05         PAGE 134


LOC  OBJECT CODE     LINE SOURCE TEXT
  VALUE

                          M         bsf     STATUS, RP1
                          M       endif
                          M       if (PREV_BANK == 3)
                          M         bcf     STATUS, RP0
                          M       endif
                          M PREV_BANK = 2
                          M     endif
                          M 
                          M     if (((R1 + 1) & 180h) == 180h)
                          M       if (PREV_BANK == 0)
                          M         bsf     STATUS, RP0
                          M         bsf     STATUS, RP1
                          M       endif
                          M       if (PREV_BANK == 1)
                          M         bsf     STATUS, RP1
                          M       endif
                          M       if (PREV_BANK == 2)
                          M         bsf     STATUS, RP0
                          M       endif
                          M PREV_BANK = 3
                          M     endif
                          M     if (low ((000h) >> 8) == 0)
01EF   01A3               M         clrf    R1 + 1
                          M     else
                          M         movlw   low ((000h) >> 8)
                          M         movwf   R1 + 1
                          M     endif
                          M         MOVE?CA low (000h)
01F0   3000               M         movlw   low (low (000h))
                          M         L?CALL  CMPLE
                          M         RST?RP
                          M     if ((PREV_BANK & 1) != 0)
                          M         bcf     STATUS, RP0
                          M     endif
                          M     if ((PREV_BANK & 2) != 0)
                          M         bcf     STATUS, RP1
                          M     endif
  00000000                M PREV_BANK = 0
                          M 
                          M     ifdef USE_LINKER
                          M       if (CODE_SIZE > 2)
                          M         pagesel CMPLE
                          M       endif
                          M     else
                          M       if ((CMPLE) < 1)
                          M         if (CODE_SIZE > 2)
                          M           if (((CMPLE) & 800h) == 0)
                          M         bcf     PCLATH, 3
                          M         else
                          M         bsf     PCLATH, 3
                          M         endif
                          M         endif
                          M         if (CODE_SIZE > 4)
MPASM  5.36                      MB_STDIM.ASM   5-24-2019  13:22:05         PAGE 135


LOC  OBJECT CODE     LINE SOURCE TEXT
  VALUE

                          M           if (((CMPLE) & 1000h) == 0)
                          M         bcf     PCLATH, 4
                          M           else
                          M         bsf     PCLATH, 4
                          M           endif
                          M         endif
                          M       else
                          M         if ((CMPLE) > $)
                          M           if (CODE_SIZE > 2)
                          M             if (((CMPLE) & 800h) == 0)
                          M         bcf     PCLATH, 3
                          M             else
                          M         bsf     PCLATH, 3
                          M             endif
                          M           endif
                          M           if (CODE_SIZE > 4)
                          M             if (((CMPLE) & 1000h) == 0)
                          M         bcf     PCLATH, 4
                          M             else
                          M         bsf     PCLATH, 4
                          M             endif
                          M           endif
                          M         else
                          M           if (CODE_SIZE > 2)
                          M             if (((CMPLE) & 1800h) == 0)
01F1   018A               M         clrf    PCLATH
                          M             else
                          M               if (((CMPLE) & 800h) == 0)
                          M         bcf     PCLATH, 3
                          M               else
                          M         bsf     PCLATH, 3
                          M               endif
                          M               if (CODE_SIZE > 4)
                          M                 if (((CMPLE) & 1000h) == 0)
                          M         bcf     PCLATH, 4
                          M                 else
                          M         bsf     PCLATH, 4
                          M                 endif   
                          M               endif
                          M             endif
                          M           endif
                          M         endif
                          M       endif
                          M     endif
                          M 
01F2   20AE               M         call    CMPLE
                          M         BIT?GOTO 0, STATUS, Z, L00009
                          M     ifdef USE_LINKER
                          M         CLRWDT?
                          M     else
                          M       if ($ == (L00009))
                          M         CLRWDT?
                          M       endif
MPASM  5.36                      MB_STDIM.ASM   5-24-2019  13:22:05         PAGE 136


LOC  OBJECT CODE     LINE SOURCE TEXT
  VALUE

                          M     endif
                          M 
                          M     ifdef USE_LINKER
                          M       if (CODE_SIZE > 2)
                          M         pagesel L00009
                          M       endif
                          M     else
                          M       if (CODE_SIZE > 2)
                          M         if (((L00009) & 800h) == 0)
01F3   118A               M         bcf     PCLATH, 3
                          M         else
                          M         bsf     PCLATH, 3
                          M         endif
                          M       endif
                          M       if (CODE_SIZE > 4)
                          M         if (((L00009) & 1000h) == 0)
01F4   120A               M         bcf     PCLATH, 4
                          M         else
                          M         bsf     PCLATH, 4
                          M         endif
                          M       endif
                          M     endif
                          M 
                          M     if (((STATUS) & 0ff80h) != 0)
                          M         CHK?RP  STATUS
                          M         bcf     STATUS, DC
                          M       if ((0)      == 0)
                          M         btfss   STATUS, Z
                          M       else
                          M         btfsc   STATUS, Z
                          M       endif
                          M         bsf     STATUS, DC
                          M         RST?RP
                          M         btfsc   STATUS, DC
                          M     else
                          M         RST?RP
                          M     if ((PREV_BANK & 1) != 0)
                          M         bcf     STATUS, RP0
                          M     endif
                          M     if ((PREV_BANK & 2) != 0)
                          M         bcf     STATUS, RP1
                          M     endif
  00000000                M PREV_BANK = 0
                          M       if ((0)      == 0)
01F5   1D03               M         btfss   STATUS, Z
                          M       else
                          M         btfsc   STATUS, Z
                          M       endif
                          M     endif
                          M 
01F6   29FD               M         goto    L00009
                          M       endif
                          M     endif
MPASM  5.36                      MB_STDIM.ASM   5-24-2019  13:22:05         PAGE 137


LOC  OBJECT CODE     LINE SOURCE TEXT
  VALUE

                      00568         SUB?WCW _secCnt, 001h, _secCnt
                          M     if ((_secCnt) == (_secCnt))
01F7   3001               M         movlw   low (001h)
                          M         CHK?RP  _secCnt
                          M     if (((_secCnt) & 180h) == 0)
                          M       if (PREV_BANK == 1)
                          M         bcf     STATUS, RP0
                          M       endif
                          M       if (PREV_BANK == 2)
                          M         bcf     STATUS, RP1
                          M       endif
                          M       if (PREV_BANK == 3)
                          M         bcf     STATUS, RP0
                          M         bcf     STATUS, RP1
                          M       endif
  00000000                M PREV_BANK = 0
                          M     endif
                          M 
                          M     if (((_secCnt) & 180h) == 80h)
                          M       if (PREV_BANK == 0)
                          M         bsf     STATUS, RP0
                          M       endif
                          M       if (PREV_BANK == 2)
                          M         bsf     STATUS, RP0
                          M         bcf     STATUS, RP1
                          M       endif
                          M       if (PREV_BANK == 3)
                          M         bcf     STATUS, RP1
                          M       endif
                          M PREV_BANK = 1
                          M     endif
                          M 
                          M     if (((_secCnt) & 180h) == 100h)
                          M       if (PREV_BANK == 0)
                          M         bsf     STATUS, RP1
                          M       endif
                          M       if (PREV_BANK == 1)
                          M         bcf     STATUS, RP0
                          M         bsf     STATUS, RP1
                          M       endif
                          M       if (PREV_BANK == 3)
                          M         bcf     STATUS, RP0
                          M       endif
                          M PREV_BANK = 2
                          M     endif
                          M 
                          M     if (((_secCnt) & 180h) == 180h)
                          M       if (PREV_BANK == 0)
                          M         bsf     STATUS, RP0
                          M         bsf     STATUS, RP1
                          M       endif
                          M       if (PREV_BANK == 1)
                          M         bsf     STATUS, RP1
MPASM  5.36                      MB_STDIM.ASM   5-24-2019  13:22:05         PAGE 138


LOC  OBJECT CODE     LINE SOURCE TEXT
  VALUE

                          M       endif
                          M       if (PREV_BANK == 2)
                          M         bsf     STATUS, RP0
                          M       endif
                          M PREV_BANK = 3
                          M     endif
01F8   02BA               M         subwf   _secCnt, F
01F9   3000               M         movlw   (001h) >> 8
01FA   1C03               M         btfss   STATUS, C
01FB   3E01               M         addlw   1
01FC   02BB               M         subwf   (_secCnt) + 1, F
                          M     else
                          M         movlw   low (001h)
                          M         CHK?RP  _secCnt
                          M         subwf   _secCnt, W
                          M         MOVE?AB _secCnt
                          M         movlw   (001h) >> 8
                          M         btfss   STATUS, C
                          M         addlw   1
                          M         CHK?RP  _secCnt
                          M         subwf   (_secCnt) + 1, W
                          M         MOVE?AB (_secCnt) + 1
                          M     endif
                      00569         LABEL?L L00009  
                          M         RST?RP
                          M     if ((PREV_BANK & 1) != 0)
                          M         bcf     STATUS, RP0
                          M     endif
                          M     if ((PREV_BANK & 2) != 0)
                          M         bcf     STATUS, RP1
                          M     endif
  00000000                M PREV_BANK = 0
                          M     ifdef PM_USED
                          M         LALL
                          M L00009
                          M         XALL
                          M     else
01FD                      M L00009
                          M     endif
                      00570 
                      00571 ; C:\USERS\JESSADA\DESKTOP\LED DIMMER PROJECT\PIC16F886\MB_STDIM.BAS    00282   Z00044                  
                                    if (secCnt==0) then
01FD                  00572 Z00044
                      00573         CMPNE?WCL       _secCnt, 000h, L00011
                          M     if (((000h) > -10000h) & ((000h) < 10000h))
                          M         MOVE?CW 000h, R0
                          M     ifdef USE_LINKER
                          M         CHK?RP  R0
                          M         movlw   low (000h)
                          M         movwf   R0
                          M         movlw   high (000h)
                          M         movwf   (R0)   + 1
                          M     else
MPASM  5.36                      MB_STDIM.ASM   5-24-2019  13:22:05         PAGE 139


LOC  OBJECT CODE     LINE SOURCE TEXT
  VALUE

                          M         MOVE?CB low (000h), R0
                          M         CHK?RP  R0
                          M     if (((R0)    & 180h) == 0)
                          M       if (PREV_BANK == 1)
                          M         bcf     STATUS, RP0
                          M       endif
                          M       if (PREV_BANK == 2)
                          M         bcf     STATUS, RP1
                          M       endif
                          M       if (PREV_BANK == 3)
                          M         bcf     STATUS, RP0
                          M         bcf     STATUS, RP1
                          M       endif
  00000000                M PREV_BANK = 0
                          M     endif
                          M 
                          M     if (((R0)    & 180h) == 80h)
                          M       if (PREV_BANK == 0)
                          M         bsf     STATUS, RP0
                          M       endif
                          M       if (PREV_BANK == 2)
                          M         bsf     STATUS, RP0
                          M         bcf     STATUS, RP1
                          M       endif
                          M       if (PREV_BANK == 3)
                          M         bcf     STATUS, RP1
                          M       endif
                          M PREV_BANK = 1
                          M     endif
                          M 
                          M     if (((R0)    & 180h) == 100h)
                          M       if (PREV_BANK == 0)
                          M         bsf     STATUS, RP1
                          M       endif
                          M       if (PREV_BANK == 1)
                          M         bcf     STATUS, RP0
                          M         bsf     STATUS, RP1
                          M       endif
                          M       if (PREV_BANK == 3)
                          M         bcf     STATUS, RP0
                          M       endif
                          M PREV_BANK = 2
                          M     endif
                          M 
                          M     if (((R0)    & 180h) == 180h)
                          M       if (PREV_BANK == 0)
                          M         bsf     STATUS, RP0
                          M         bsf     STATUS, RP1
                          M       endif
                          M       if (PREV_BANK == 1)
                          M         bsf     STATUS, RP1
                          M       endif
                          M       if (PREV_BANK == 2)
MPASM  5.36                      MB_STDIM.ASM   5-24-2019  13:22:05         PAGE 140


LOC  OBJECT CODE     LINE SOURCE TEXT
  VALUE

                          M         bsf     STATUS, RP0
                          M       endif
                          M PREV_BANK = 3
                          M     endif
                          M     if (low (low (000h)) == 0)
01FD   01A0               M         clrf    R0
                          M     else
                          M         movlw   low (low (000h))
                          M         movwf   R0
                          M     endif
                          M         MOVE?CB high (000h), (R0)  + 1
                          M         CHK?RP  (R0) + 1
                          M     if ((((R0) + 1) & 180h) == 0)
                          M       if (PREV_BANK == 1)
                          M         bcf     STATUS, RP0
                          M       endif
                          M       if (PREV_BANK == 2)
                          M         bcf     STATUS, RP1
                          M       endif
                          M       if (PREV_BANK == 3)
                          M         bcf     STATUS, RP0
                          M         bcf     STATUS, RP1
                          M       endif
  00000000                M PREV_BANK = 0
                          M     endif
                          M 
                          M     if ((((R0) + 1) & 180h) == 80h)
                          M       if (PREV_BANK == 0)
                          M         bsf     STATUS, RP0
                          M       endif
                          M       if (PREV_BANK == 2)
                          M         bsf     STATUS, RP0
                          M         bcf     STATUS, RP1
                          M       endif
                          M       if (PREV_BANK == 3)
                          M         bcf     STATUS, RP1
                          M       endif
                          M PREV_BANK = 1
                          M     endif
                          M 
                          M     if ((((R0) + 1) & 180h) == 100h)
                          M       if (PREV_BANK == 0)
                          M         bsf     STATUS, RP1
                          M       endif
                          M       if (PREV_BANK == 1)
                          M         bcf     STATUS, RP0
                          M         bsf     STATUS, RP1
                          M       endif
                          M       if (PREV_BANK == 3)
                          M         bcf     STATUS, RP0
                          M       endif
                          M PREV_BANK = 2
                          M     endif
MPASM  5.36                      MB_STDIM.ASM   5-24-2019  13:22:05         PAGE 141


LOC  OBJECT CODE     LINE SOURCE TEXT
  VALUE

                          M 
                          M     if ((((R0) + 1) & 180h) == 180h)
                          M       if (PREV_BANK == 0)
                          M         bsf     STATUS, RP0
                          M         bsf     STATUS, RP1
                          M       endif
                          M       if (PREV_BANK == 1)
                          M         bsf     STATUS, RP1
                          M       endif
                          M       if (PREV_BANK == 2)
                          M         bsf     STATUS, RP0
                          M       endif
                          M PREV_BANK = 3
                          M     endif
                          M     if (low (high (000h)) == 0)
01FE   01A1               M         clrf    (R0) + 1
                          M     else
                          M         movlw   low (high (000h))
                          M         movwf   (R0) + 1
                          M     endif
                          M     endif
                          M         MOVE?WWA _secCnt, R1
                          M         MOVE?BB (_secCnt) + 1, (R1) + 1
                          M         CHK?RP  (_secCnt) + 1
                          M     if ((((_secCnt) + 1) & 180h) == 0)
                          M       if (PREV_BANK == 1)
                          M         bcf     STATUS, RP0
                          M       endif
                          M       if (PREV_BANK == 2)
                          M         bcf     STATUS, RP1
                          M       endif
                          M       if (PREV_BANK == 3)
                          M         bcf     STATUS, RP0
                          M         bcf     STATUS, RP1
                          M       endif
  00000000                M PREV_BANK = 0
                          M     endif
                          M 
                          M     if ((((_secCnt) + 1) & 180h) == 80h)
                          M       if (PREV_BANK == 0)
                          M         bsf     STATUS, RP0
                          M       endif
                          M       if (PREV_BANK == 2)
                          M         bsf     STATUS, RP0
                          M         bcf     STATUS, RP1
                          M       endif
                          M       if (PREV_BANK == 3)
                          M         bcf     STATUS, RP1
                          M       endif
                          M PREV_BANK = 1
                          M     endif
                          M 
                          M     if ((((_secCnt) + 1) & 180h) == 100h)
MPASM  5.36                      MB_STDIM.ASM   5-24-2019  13:22:05         PAGE 142


LOC  OBJECT CODE     LINE SOURCE TEXT
  VALUE

                          M       if (PREV_BANK == 0)
                          M         bsf     STATUS, RP1
                          M       endif
                          M       if (PREV_BANK == 1)
                          M         bcf     STATUS, RP0
                          M         bsf     STATUS, RP1
                          M       endif
                          M       if (PREV_BANK == 3)
                          M         bcf     STATUS, RP0
                          M       endif
                          M PREV_BANK = 2
                          M     endif
                          M 
                          M     if ((((_secCnt) + 1) & 180h) == 180h)
                          M       if (PREV_BANK == 0)
                          M         bsf     STATUS, RP0
                          M         bsf     STATUS, RP1
                          M       endif
                          M       if (PREV_BANK == 1)
                          M         bsf     STATUS, RP1
                          M       endif
                          M       if (PREV_BANK == 2)
                          M         bsf     STATUS, RP0
                          M       endif
                          M PREV_BANK = 3
                          M     endif
01FF   083B               M         movf    (_secCnt) + 1, W
                          M         CHK?RP  (R1) + 1
                          M     if ((((R1) + 1) & 180h) == 0)
                          M       if (PREV_BANK == 1)
                          M         bcf     STATUS, RP0
                          M       endif
                          M       if (PREV_BANK == 2)
                          M         bcf     STATUS, RP1
                          M       endif
                          M       if (PREV_BANK == 3)
                          M         bcf     STATUS, RP0
                          M         bcf     STATUS, RP1
                          M       endif
  00000000                M PREV_BANK = 0
                          M     endif
                          M 
                          M     if ((((R1) + 1) & 180h) == 80h)
                          M       if (PREV_BANK == 0)
                          M         bsf     STATUS, RP0
                          M       endif
                          M       if (PREV_BANK == 2)
                          M         bsf     STATUS, RP0
                          M         bcf     STATUS, RP1
                          M       endif
                          M       if (PREV_BANK == 3)
                          M         bcf     STATUS, RP1
                          M       endif
MPASM  5.36                      MB_STDIM.ASM   5-24-2019  13:22:05         PAGE 143


LOC  OBJECT CODE     LINE SOURCE TEXT
  VALUE

                          M PREV_BANK = 1
                          M     endif
                          M 
                          M     if ((((R1) + 1) & 180h) == 100h)
                          M       if (PREV_BANK == 0)
                          M         bsf     STATUS, RP1
                          M       endif
                          M       if (PREV_BANK == 1)
                          M         bcf     STATUS, RP0
                          M         bsf     STATUS, RP1
                          M       endif
                          M       if (PREV_BANK == 3)
                          M         bcf     STATUS, RP0
                          M       endif
                          M PREV_BANK = 2
                          M     endif
                          M 
                          M     if ((((R1) + 1) & 180h) == 180h)
                          M       if (PREV_BANK == 0)
                          M         bsf     STATUS, RP0
                          M         bsf     STATUS, RP1
                          M       endif
                          M       if (PREV_BANK == 1)
                          M         bsf     STATUS, RP1
                          M       endif
                          M       if (PREV_BANK == 2)
                          M         bsf     STATUS, RP0
                          M       endif
                          M PREV_BANK = 3
                          M     endif
0200   00A3               M         movwf   (R1) + 1
                          M         MOVE?BA _secCnt
                          M         CHK?RP  _secCnt
                          M     if (((_secCnt) & 180h) == 0)
                          M       if (PREV_BANK == 1)
                          M         bcf     STATUS, RP0
                          M       endif
                          M       if (PREV_BANK == 2)
                          M         bcf     STATUS, RP1
                          M       endif
                          M       if (PREV_BANK == 3)
                          M         bcf     STATUS, RP0
                          M         bcf     STATUS, RP1
                          M       endif
  00000000                M PREV_BANK = 0
                          M     endif
                          M 
                          M     if (((_secCnt) & 180h) == 80h)
                          M       if (PREV_BANK == 0)
                          M         bsf     STATUS, RP0
                          M       endif
                          M       if (PREV_BANK == 2)
                          M         bsf     STATUS, RP0
MPASM  5.36                      MB_STDIM.ASM   5-24-2019  13:22:05         PAGE 144


LOC  OBJECT CODE     LINE SOURCE TEXT
  VALUE

                          M         bcf     STATUS, RP1
                          M       endif
                          M       if (PREV_BANK == 3)
                          M         bcf     STATUS, RP1
                          M       endif
                          M PREV_BANK = 1
                          M     endif
                          M 
                          M     if (((_secCnt) & 180h) == 100h)
                          M       if (PREV_BANK == 0)
                          M         bsf     STATUS, RP1
                          M       endif
                          M       if (PREV_BANK == 1)
                          M         bcf     STATUS, RP0
                          M         bsf     STATUS, RP1
                          M       endif
                          M       if (PREV_BANK == 3)
                          M         bcf     STATUS, RP0
                          M       endif
                          M PREV_BANK = 2
                          M     endif
                          M 
                          M     if (((_secCnt) & 180h) == 180h)
                          M       if (PREV_BANK == 0)
                          M         bsf     STATUS, RP0
                          M         bsf     STATUS, RP1
                          M       endif
                          M       if (PREV_BANK == 1)
                          M         bsf     STATUS, RP1
                          M       endif
                          M       if (PREV_BANK == 2)
                          M         bsf     STATUS, RP0
                          M       endif
                          M PREV_BANK = 3
                          M     endif
0201   083A               M         movf    _secCnt, W
                          M         L?CALL  CMPNE
                          M         RST?RP
                          M     if ((PREV_BANK & 1) != 0)
                          M         bcf     STATUS, RP0
                          M     endif
                          M     if ((PREV_BANK & 2) != 0)
                          M         bcf     STATUS, RP1
                          M     endif
  00000000                M PREV_BANK = 0
                          M 
                          M     ifdef USE_LINKER
                          M       if (CODE_SIZE > 2)
                          M         pagesel CMPNE
                          M       endif
                          M     else
                          M       if ((CMPNE) < 1)
                          M         if (CODE_SIZE > 2)
MPASM  5.36                      MB_STDIM.ASM   5-24-2019  13:22:05         PAGE 145


LOC  OBJECT CODE     LINE SOURCE TEXT
  VALUE

                          M           if (((CMPNE) & 800h) == 0)
                          M         bcf     PCLATH, 3
                          M         else
                          M         bsf     PCLATH, 3
                          M         endif
                          M         endif
                          M         if (CODE_SIZE > 4)
                          M           if (((CMPNE) & 1000h) == 0)
                          M         bcf     PCLATH, 4
                          M           else
                          M         bsf     PCLATH, 4
                          M           endif
                          M         endif
                          M       else
                          M         if ((CMPNE) > $)
                          M           if (CODE_SIZE > 2)
                          M             if (((CMPNE) & 800h) == 0)
                          M         bcf     PCLATH, 3
                          M             else
                          M         bsf     PCLATH, 3
                          M             endif
                          M           endif
                          M           if (CODE_SIZE > 4)
                          M             if (((CMPNE) & 1000h) == 0)
                          M         bcf     PCLATH, 4
                          M             else
                          M         bsf     PCLATH, 4
                          M             endif
                          M           endif
                          M         else
                          M           if (CODE_SIZE > 2)
                          M             if (((CMPNE) & 1800h) == 0)
0202   018A               M         clrf    PCLATH
                          M             else
                          M               if (((CMPNE) & 800h) == 0)
                          M         bcf     PCLATH, 3
                          M               else
                          M         bsf     PCLATH, 3
                          M               endif
                          M               if (CODE_SIZE > 4)
                          M                 if (((CMPNE) & 1000h) == 0)
                          M         bcf     PCLATH, 4
                          M                 else
                          M         bsf     PCLATH, 4
                          M                 endif   
                          M               endif
                          M             endif
                          M           endif
                          M         endif
                          M       endif
                          M     endif
                          M 
0203   20B1               M         call    CMPNE
MPASM  5.36                      MB_STDIM.ASM   5-24-2019  13:22:05         PAGE 146


LOC  OBJECT CODE     LINE SOURCE TEXT
  VALUE

                          M         BIT?GOTO 0, STATUS, Z, L00011
                          M     ifdef USE_LINKER
                          M         CLRWDT?
                          M     else
                          M       if ($ == (L00011))
                          M         CLRWDT?
                          M       endif
                          M     endif
                          M 
                          M     ifdef USE_LINKER
                          M       if (CODE_SIZE > 2)
                          M         pagesel L00011
                          M       endif
                          M     else
                          M       if (CODE_SIZE > 2)
                          M         if (((L00011) & 800h) == 0)
0204   118A               M         bcf     PCLATH, 3
                          M         else
                          M         bsf     PCLATH, 3
                          M         endif
                          M       endif
                          M       if (CODE_SIZE > 4)
                          M         if (((L00011) & 1000h) == 0)
0205   120A               M         bcf     PCLATH, 4
                          M         else
                          M         bsf     PCLATH, 4
                          M         endif
                          M       endif
                          M     endif
                          M 
                          M     if (((STATUS) & 0ff80h) != 0)
                          M         CHK?RP  STATUS
                          M         bcf     STATUS, DC
                          M       if ((0)      == 0)
                          M         btfss   STATUS, Z
                          M       else
                          M         btfsc   STATUS, Z
                          M       endif
                          M         bsf     STATUS, DC
                          M         RST?RP
                          M         btfsc   STATUS, DC
                          M     else
                          M         RST?RP
                          M     if ((PREV_BANK & 1) != 0)
                          M         bcf     STATUS, RP0
                          M     endif
                          M     if ((PREV_BANK & 2) != 0)
                          M         bcf     STATUS, RP1
                          M     endif
  00000000                M PREV_BANK = 0
                          M       if ((0)      == 0)
0206   1D03               M         btfss   STATUS, Z
                          M       else
MPASM  5.36                      MB_STDIM.ASM   5-24-2019  13:22:05         PAGE 147


LOC  OBJECT CODE     LINE SOURCE TEXT
  VALUE

                          M         btfsc   STATUS, Z
                          M       endif
                          M     endif
                          M 
0207   2A10               M         goto    L00011
                          M     else
                          M         L?GOTO  L00011
                          M     endif
                      00574 
                      00575 ; C:\USERS\JESSADA\DESKTOP\LED DIMMER PROJECT\PIC16F886\MB_STDIM.BAS    00283   Z00045                  
                                            secCnt=100 
0208                  00576 Z00045
                      00577         MOVE?CW 064h, _secCnt
                          M     ifdef USE_LINKER
                          M         CHK?RP  _secCnt
                          M         movlw   low (064h)
                          M         movwf   _secCnt
                          M         movlw   high (064h)
                          M         movwf   (_secCnt) + 1
                          M     else
                          M         MOVE?CB low (064h), _secCnt
                          M         CHK?RP  _secCnt
                          M     if (((_secCnt) & 180h) == 0)
                          M       if (PREV_BANK == 1)
                          M         bcf     STATUS, RP0
                          M       endif
                          M       if (PREV_BANK == 2)
                          M         bcf     STATUS, RP1
                          M       endif
                          M       if (PREV_BANK == 3)
                          M         bcf     STATUS, RP0
                          M         bcf     STATUS, RP1
                          M       endif
  00000000                M PREV_BANK = 0
                          M     endif
                          M 
                          M     if (((_secCnt) & 180h) == 80h)
                          M       if (PREV_BANK == 0)
                          M         bsf     STATUS, RP0
                          M       endif
                          M       if (PREV_BANK == 2)
                          M         bsf     STATUS, RP0
                          M         bcf     STATUS, RP1
                          M       endif
                          M       if (PREV_BANK == 3)
                          M         bcf     STATUS, RP1
                          M       endif
                          M PREV_BANK = 1
                          M     endif
                          M 
                          M     if (((_secCnt) & 180h) == 100h)
                          M       if (PREV_BANK == 0)
                          M         bsf     STATUS, RP1
MPASM  5.36                      MB_STDIM.ASM   5-24-2019  13:22:05         PAGE 148


LOC  OBJECT CODE     LINE SOURCE TEXT
  VALUE

                          M       endif
                          M       if (PREV_BANK == 1)
                          M         bcf     STATUS, RP0
                          M         bsf     STATUS, RP1
                          M       endif
                          M       if (PREV_BANK == 3)
                          M         bcf     STATUS, RP0
                          M       endif
                          M PREV_BANK = 2
                          M     endif
                          M 
                          M     if (((_secCnt) & 180h) == 180h)
                          M       if (PREV_BANK == 0)
                          M         bsf     STATUS, RP0
                          M         bsf     STATUS, RP1
                          M       endif
                          M       if (PREV_BANK == 1)
                          M         bsf     STATUS, RP1
                          M       endif
                          M       if (PREV_BANK == 2)
                          M         bsf     STATUS, RP0
                          M       endif
                          M PREV_BANK = 3
                          M     endif
                          M     if (low (low (064h)) == 0)
                          M         clrf    _secCnt
                          M     else
0208   3064               M         movlw   low (low (064h))
0209   00BA               M         movwf   _secCnt
                          M     endif
                          M         MOVE?CB high (064h), (_secCnt) + 1
                          M         CHK?RP  (_secCnt) + 1
                          M     if ((((_secCnt) + 1) & 180h) == 0)
                          M       if (PREV_BANK == 1)
                          M         bcf     STATUS, RP0
                          M       endif
                          M       if (PREV_BANK == 2)
                          M         bcf     STATUS, RP1
                          M       endif
                          M       if (PREV_BANK == 3)
                          M         bcf     STATUS, RP0
                          M         bcf     STATUS, RP1
                          M       endif
  00000000                M PREV_BANK = 0
                          M     endif
                          M 
                          M     if ((((_secCnt) + 1) & 180h) == 80h)
                          M       if (PREV_BANK == 0)
                          M         bsf     STATUS, RP0
                          M       endif
                          M       if (PREV_BANK == 2)
                          M         bsf     STATUS, RP0
                          M         bcf     STATUS, RP1
MPASM  5.36                      MB_STDIM.ASM   5-24-2019  13:22:05         PAGE 149


LOC  OBJECT CODE     LINE SOURCE TEXT
  VALUE

                          M       endif
                          M       if (PREV_BANK == 3)
                          M         bcf     STATUS, RP1
                          M       endif
                          M PREV_BANK = 1
                          M     endif
                          M 
                          M     if ((((_secCnt) + 1) & 180h) == 100h)
                          M       if (PREV_BANK == 0)
                          M         bsf     STATUS, RP1
                          M       endif
                          M       if (PREV_BANK == 1)
                          M         bcf     STATUS, RP0
                          M         bsf     STATUS, RP1
                          M       endif
                          M       if (PREV_BANK == 3)
                          M         bcf     STATUS, RP0
                          M       endif
                          M PREV_BANK = 2
                          M     endif
                          M 
                          M     if ((((_secCnt) + 1) & 180h) == 180h)
                          M       if (PREV_BANK == 0)
                          M         bsf     STATUS, RP0
                          M         bsf     STATUS, RP1
                          M       endif
                          M       if (PREV_BANK == 1)
                          M         bsf     STATUS, RP1
                          M       endif
                          M       if (PREV_BANK == 2)
                          M         bsf     STATUS, RP0
                          M       endif
                          M PREV_BANK = 3
                          M     endif
                          M     if (low (high (064h)) == 0)
020A   01BB               M         clrf    (_secCnt) + 1
                          M     else
                          M         movlw   low (high (064h))
                          M         movwf   (_secCnt) + 1
                          M     endif
                          M     endif
                      00578 
                      00579 ; C:\USERS\JESSADA\DESKTOP\LED DIMMER PROJECT\PIC16F886\MB_STDIM.BAS    00285   Z00046                  
                                             toggle porta.3                         ; toggle every 1 sec
020B                  00580 Z00046
                      00581         TOGGLE?T        _PORTA??3
                          M         BIT?FLIP PORTA, 003h
                          M         BIT?W   003h
                          M     if (((003h)  & 7) == 0)
                          M         movlw   01h
                          M     endif
                          M     if (((003h)  & 7) == 1)
                          M         movlw   02h
MPASM  5.36                      MB_STDIM.ASM   5-24-2019  13:22:05         PAGE 150


LOC  OBJECT CODE     LINE SOURCE TEXT
  VALUE

                          M     endif
                          M     if (((003h)  & 7) == 2)
                          M         movlw   04h
                          M     endif
                          M     if (((003h)  & 7) == 3)
020B   3008               M         movlw   08h
                          M     endif
                          M     if (((003h)  & 7) == 4)
                          M         movlw   10h
                          M     endif
                          M     if (((003h)  & 7) == 5)
                          M         movlw   20h
                          M     endif
                          M     if (((003h)  & 7) == 6)
                          M         movlw   40h
                          M     endif
                          M     if (((003h)  & 7) == 7)
                          M         movlw   80h
                          M     endif
                          M         CHK?RP  (PORTA) + ((003h)  >> 3)
                          M     if ((((PORTA) + ((003h) >> 3)) & 180h) == 0)
                          M       if (PREV_BANK == 1)
                          M         bcf     STATUS, RP0
                          M       endif
                          M       if (PREV_BANK == 2)
                          M         bcf     STATUS, RP1
                          M       endif
                          M       if (PREV_BANK == 3)
                          M         bcf     STATUS, RP0
                          M         bcf     STATUS, RP1
                          M       endif
  00000000                M PREV_BANK = 0
                          M     endif
                          M 
                          M     if ((((PORTA) + ((003h) >> 3)) & 180h) == 80h)
                          M       if (PREV_BANK == 0)
                          M         bsf     STATUS, RP0
                          M       endif
                          M       if (PREV_BANK == 2)
                          M         bsf     STATUS, RP0
                          M         bcf     STATUS, RP1
                          M       endif
                          M       if (PREV_BANK == 3)
                          M         bcf     STATUS, RP1
                          M       endif
                          M PREV_BANK = 1
                          M     endif
                          M 
                          M     if ((((PORTA) + ((003h) >> 3)) & 180h) == 100h)
                          M       if (PREV_BANK == 0)
                          M         bsf     STATUS, RP1
                          M       endif
                          M       if (PREV_BANK == 1)
MPASM  5.36                      MB_STDIM.ASM   5-24-2019  13:22:05         PAGE 151


LOC  OBJECT CODE     LINE SOURCE TEXT
  VALUE

                          M         bcf     STATUS, RP0
                          M         bsf     STATUS, RP1
                          M       endif
                          M       if (PREV_BANK == 3)
                          M         bcf     STATUS, RP0
                          M       endif
                          M PREV_BANK = 2
                          M     endif
                          M 
                          M     if ((((PORTA) + ((003h) >> 3)) & 180h) == 180h)
                          M       if (PREV_BANK == 0)
                          M         bsf     STATUS, RP0
                          M         bsf     STATUS, RP1
                          M       endif
                          M       if (PREV_BANK == 1)
                          M         bsf     STATUS, RP1
                          M       endif
                          M       if (PREV_BANK == 2)
                          M         bsf     STATUS, RP0
                          M       endif
                          M PREV_BANK = 3
                          M     endif
020C   0685               M         xorwf   (PORTA) + ((003h)  >> 3), F
                          M         MOVE?CT 0, ((PORTA) + 80h), 003h
                          M         CHK?RP  ((PORTA) + 80h)
                          M     if (((((PORTA) + 80h)) & 180h) == 0)
                          M       if (PREV_BANK == 1)
                          M         bcf     STATUS, RP0
                          M       endif
                          M       if (PREV_BANK == 2)
                          M         bcf     STATUS, RP1
                          M       endif
                          M       if (PREV_BANK == 3)
                          M         bcf     STATUS, RP0
                          M         bcf     STATUS, RP1
                          M       endif
                          M PREV_BANK = 0
                          M     endif
                          M 
                          M     if (((((PORTA) + 80h)) & 180h) == 80h)
                          M       if (PREV_BANK == 0)
020D   1683               M         bsf     STATUS, RP0
                          M       endif
                          M       if (PREV_BANK == 2)
                          M         bsf     STATUS, RP0
                          M         bcf     STATUS, RP1
                          M       endif
                          M       if (PREV_BANK == 3)
                          M         bcf     STATUS, RP1
                          M       endif
  00000001                M PREV_BANK = 1
                          M     endif
                          M 
MPASM  5.36                      MB_STDIM.ASM   5-24-2019  13:22:05         PAGE 152


LOC  OBJECT CODE     LINE SOURCE TEXT
  VALUE

                          M     if (((((PORTA) + 80h)) & 180h) == 100h)
                          M       if (PREV_BANK == 0)
                          M         bsf     STATUS, RP1
                          M       endif
                          M       if (PREV_BANK == 1)
                          M         bcf     STATUS, RP0
                          M         bsf     STATUS, RP1
                          M       endif
                          M       if (PREV_BANK == 3)
                          M         bcf     STATUS, RP0
                          M       endif
                          M PREV_BANK = 2
                          M     endif
                          M 
                          M     if (((((PORTA) + 80h)) & 180h) == 180h)
                          M       if (PREV_BANK == 0)
                          M         bsf     STATUS, RP0
                          M         bsf     STATUS, RP1
                          M       endif
                          M       if (PREV_BANK == 1)
                          M         bsf     STATUS, RP1
                          M       endif
                          M       if (PREV_BANK == 2)
                          M         bsf     STATUS, RP0
                          M       endif
                          M PREV_BANK = 3
                          M     endif
                          M     if (((0)   & 1) == 1)
                          M         bsf     ((PORTA) + 80h), 003h
                          M     else
020E   1185               M         bcf     ((PORTA) + 80h), 003h
                          M     endif
                      00582 
                      00583 ; C:\USERS\JESSADA\DESKTOP\LED DIMMER PROJECT\PIC16F886\MB_STDIM.BAS    00286   Z00047                  
                                    endif
020F                  00584 Z00047
                      00585         LABEL?L L00011  
                          M         RST?RP
                          M     if ((PREV_BANK & 1) != 0)
020F   1283               M         bcf     STATUS, RP0
                          M     endif
                          M     if ((PREV_BANK & 2) != 0)
                          M         bcf     STATUS, RP1
                          M     endif
  00000000                M PREV_BANK = 0
                          M     ifdef PM_USED
                          M         LALL
                          M L00011
                          M         XALL
                          M     else
0210                      M L00011
                          M     endif
                      00586 
MPASM  5.36                      MB_STDIM.ASM   5-24-2019  13:22:05         PAGE 153


LOC  OBJECT CODE     LINE SOURCE TEXT
  VALUE

                      00587 ; C:\USERS\JESSADA\DESKTOP\LED DIMMER PROJECT\PIC16F886\MB_STDIM.BAS    00287   Z00048                  
                            endif
0210                  00588 Z00048
                      00589         LABEL?L L00007  
                          M         RST?RP
                          M     if ((PREV_BANK & 1) != 0)
                          M         bcf     STATUS, RP0
                          M     endif
                          M     if ((PREV_BANK & 2) != 0)
                          M         bcf     STATUS, RP1
                          M     endif
  00000000                M PREV_BANK = 0
                          M     ifdef PM_USED
                          M         LALL
                          M L00007
                          M         XALL
                          M     else
0210                      M L00007
                          M     endif
                      00590 
                      00591 ; C:\USERS\JESSADA\DESKTOP\LED DIMMER PROJECT\PIC16F886\MB_STDIM.BAS    00291   Z00049                  
                            If DataRdy == 1 Then                            ; RCIF  If receive flag then...
0210                  00592 Z00049
                      00593         CMPNE?TCL       _DataRdy, 001h, L00013
                          M     if ((001h) == 0)
                          M         CLRWDT?
                          M         BIT?GOTO 1, _DatRcv_Fg, 007h, L00013
                          M     else
                          M       if ((001h) == 1)
                          M         CLRWDT?
                          M     ifndef NO_CLRWDT
0210   0064               M         clrwdt
                          M     endif
                          M         BIT?GOTO 0, _DatRcv_Fg, 007h, L00013
                          M     ifdef USE_LINKER
                          M         CLRWDT?
                          M     else
                          M       if ($ == (L00013))
                          M         CLRWDT?
                          M       endif
                          M     endif
                          M 
                          M     ifdef USE_LINKER
                          M       if (CODE_SIZE > 2)
                          M         pagesel L00013
                          M       endif
                          M     else
                          M       if (CODE_SIZE > 2)
                          M         if (((L00013) & 800h) == 0)
0211   118A               M         bcf     PCLATH, 3
                          M         else
                          M         bsf     PCLATH, 3
                          M         endif
MPASM  5.36                      MB_STDIM.ASM   5-24-2019  13:22:05         PAGE 154


LOC  OBJECT CODE     LINE SOURCE TEXT
  VALUE

                          M       endif
                          M       if (CODE_SIZE > 4)
                          M         if (((L00013) & 1000h) == 0)
0212   120A               M         bcf     PCLATH, 4
                          M         else
                          M         bsf     PCLATH, 4
                          M         endif
                          M       endif
                          M     endif
                          M 
                          M     if (((_DatRcv_Fg) & 0ff80h) != 0)
                          M         CHK?RP  _DatRcv_Fg
                          M         bcf     STATUS, DC
                          M       if ((0)      == 0)
                          M         btfss   _DatRcv_Fg, 007h
                          M       else
                          M         btfsc   _DatRcv_Fg, 007h
                          M       endif
                          M         bsf     STATUS, DC
                          M         RST?RP
                          M         btfsc   STATUS, DC
                          M     else
                          M         RST?RP
                          M     if ((PREV_BANK & 1) != 0)
                          M         bcf     STATUS, RP0
                          M     endif
                          M     if ((PREV_BANK & 2) != 0)
                          M         bcf     STATUS, RP1
                          M     endif
  00000000                M PREV_BANK = 0
                          M       if ((0)      == 0)
0213   1FC2               M         btfss   _DatRcv_Fg, 007h
                          M       else
                          M         btfsc   _DatRcv_Fg, 007h
                          M       endif
                          M     endif
                          M 
0214   2A4B               M         goto    L00013
                          M       else
                          M         L?GOTO  L00013
                          M       endif
                          M     endif
                      00594 
                      00595 ; C:\USERS\JESSADA\DESKTOP\LED DIMMER PROJECT\PIC16F886\MB_STDIM.BAS    00292   Z0004A                  
                                    low DataRdy
0215                  00596 Z0004A
                      00597         LOW?T   _DataRdy
                          M         MOVE?CT 0, _DatRcv_Fg, 007h
                          M         CHK?RP  _DatRcv_Fg
                          M     if (((_DatRcv_Fg) & 180h) == 0)
                          M       if (PREV_BANK == 1)
                          M         bcf     STATUS, RP0
                          M       endif
MPASM  5.36                      MB_STDIM.ASM   5-24-2019  13:22:05         PAGE 155


LOC  OBJECT CODE     LINE SOURCE TEXT
  VALUE

                          M       if (PREV_BANK == 2)
                          M         bcf     STATUS, RP1
                          M       endif
                          M       if (PREV_BANK == 3)
                          M         bcf     STATUS, RP0
                          M         bcf     STATUS, RP1
                          M       endif
  00000000                M PREV_BANK = 0
                          M     endif
                          M 
                          M     if (((_DatRcv_Fg) & 180h) == 80h)
                          M       if (PREV_BANK == 0)
                          M         bsf     STATUS, RP0
                          M       endif
                          M       if (PREV_BANK == 2)
                          M         bsf     STATUS, RP0
                          M         bcf     STATUS, RP1
                          M       endif
                          M       if (PREV_BANK == 3)
                          M         bcf     STATUS, RP1
                          M       endif
                          M PREV_BANK = 1
                          M     endif
                          M 
                          M     if (((_DatRcv_Fg) & 180h) == 100h)
                          M       if (PREV_BANK == 0)
                          M         bsf     STATUS, RP1
                          M       endif
                          M       if (PREV_BANK == 1)
                          M         bcf     STATUS, RP0
                          M         bsf     STATUS, RP1
                          M       endif
                          M       if (PREV_BANK == 3)
                          M         bcf     STATUS, RP0
                          M       endif
                          M PREV_BANK = 2
                          M     endif
                          M 
                          M     if (((_DatRcv_Fg) & 180h) == 180h)
                          M       if (PREV_BANK == 0)
                          M         bsf     STATUS, RP0
                          M         bsf     STATUS, RP1
                          M       endif
                          M       if (PREV_BANK == 1)
                          M         bsf     STATUS, RP1
                          M       endif
                          M       if (PREV_BANK == 2)
                          M         bsf     STATUS, RP0
                          M       endif
                          M PREV_BANK = 3
                          M     endif
                          M     if (((0)   & 1) == 1)
                          M         bsf     _DatRcv_Fg, 007h
MPASM  5.36                      MB_STDIM.ASM   5-24-2019  13:22:05         PAGE 156


LOC  OBJECT CODE     LINE SOURCE TEXT
  VALUE

                          M     else
0215   13C2               M         bcf     _DatRcv_Fg, 007h
                          M     endif
                          M         MOVE?CT 0, ((_DatRcv_Fg) + 80h), 007h
                          M         CHK?RP  ((_DatRcv_Fg) + 80h)
                          M     if (((((_DatRcv_Fg) + 80h)) & 180h) == 0)
                          M       if (PREV_BANK == 1)
                          M         bcf     STATUS, RP0
                          M       endif
                          M       if (PREV_BANK == 2)
                          M         bcf     STATUS, RP1
                          M       endif
                          M       if (PREV_BANK == 3)
                          M         bcf     STATUS, RP0
                          M         bcf     STATUS, RP1
                          M       endif
                          M PREV_BANK = 0
                          M     endif
                          M 
                          M     if (((((_DatRcv_Fg) + 80h)) & 180h) == 80h)
                          M       if (PREV_BANK == 0)
0216   1683               M         bsf     STATUS, RP0
                          M       endif
                          M       if (PREV_BANK == 2)
                          M         bsf     STATUS, RP0
                          M         bcf     STATUS, RP1
                          M       endif
                          M       if (PREV_BANK == 3)
                          M         bcf     STATUS, RP1
                          M       endif
  00000001                M PREV_BANK = 1
                          M     endif
                          M 
                          M     if (((((_DatRcv_Fg) + 80h)) & 180h) == 100h)
                          M       if (PREV_BANK == 0)
                          M         bsf     STATUS, RP1
                          M       endif
                          M       if (PREV_BANK == 1)
                          M         bcf     STATUS, RP0
                          M         bsf     STATUS, RP1
                          M       endif
                          M       if (PREV_BANK == 3)
                          M         bcf     STATUS, RP0
                          M       endif
                          M PREV_BANK = 2
                          M     endif
                          M 
                          M     if (((((_DatRcv_Fg) + 80h)) & 180h) == 180h)
                          M       if (PREV_BANK == 0)
                          M         bsf     STATUS, RP0
                          M         bsf     STATUS, RP1
                          M       endif
                          M       if (PREV_BANK == 1)
MPASM  5.36                      MB_STDIM.ASM   5-24-2019  13:22:05         PAGE 157


LOC  OBJECT CODE     LINE SOURCE TEXT
  VALUE

                          M         bsf     STATUS, RP1
                          M       endif
                          M       if (PREV_BANK == 2)
                          M         bsf     STATUS, RP0
                          M       endif
                          M PREV_BANK = 3
                          M     endif
                          M     if (((0)   & 1) == 1)
                          M         bsf     ((_DatRcv_Fg) + 80h), 007h
                          M     else
0217   13C2               M         bcf     ((_DatRcv_Fg) + 80h), 007h
                          M     endif
                      00598 
                      00599 ; C:\USERS\JESSADA\DESKTOP\LED DIMMER PROJECT\PIC16F886\MB_STDIM.BAS    00295   Z0004B                  
                                    low CREN :high CREN             ;reset error
0218                  00600 Z0004B
                      00601         LOW?T   _CREN
                          M         MOVE?CT 0, RCSTA, 004h
                          M         CHK?RP  RCSTA
                          M     if (((RCSTA) & 180h) == 0)
                          M       if (PREV_BANK == 1)
0218   1283               M         bcf     STATUS, RP0
                          M       endif
                          M       if (PREV_BANK == 2)
                          M         bcf     STATUS, RP1
                          M       endif
                          M       if (PREV_BANK == 3)
                          M         bcf     STATUS, RP0
                          M         bcf     STATUS, RP1
                          M       endif
  00000000                M PREV_BANK = 0
                          M     endif
                          M 
                          M     if (((RCSTA) & 180h) == 80h)
                          M       if (PREV_BANK == 0)
                          M         bsf     STATUS, RP0
                          M       endif
                          M       if (PREV_BANK == 2)
                          M         bsf     STATUS, RP0
                          M         bcf     STATUS, RP1
                          M       endif
                          M       if (PREV_BANK == 3)
                          M         bcf     STATUS, RP1
                          M       endif
                          M PREV_BANK = 1
                          M     endif
                          M 
                          M     if (((RCSTA) & 180h) == 100h)
                          M       if (PREV_BANK == 0)
                          M         bsf     STATUS, RP1
                          M       endif
                          M       if (PREV_BANK == 1)
                          M         bcf     STATUS, RP0
MPASM  5.36                      MB_STDIM.ASM   5-24-2019  13:22:05         PAGE 158


LOC  OBJECT CODE     LINE SOURCE TEXT
  VALUE

                          M         bsf     STATUS, RP1
                          M       endif
                          M       if (PREV_BANK == 3)
                          M         bcf     STATUS, RP0
                          M       endif
                          M PREV_BANK = 2
                          M     endif
                          M 
                          M     if (((RCSTA) & 180h) == 180h)
                          M       if (PREV_BANK == 0)
                          M         bsf     STATUS, RP0
                          M         bsf     STATUS, RP1
                          M       endif
                          M       if (PREV_BANK == 1)
                          M         bsf     STATUS, RP1
                          M       endif
                          M       if (PREV_BANK == 2)
                          M         bsf     STATUS, RP0
                          M       endif
                          M PREV_BANK = 3
                          M     endif
                          M     if (((0)   & 1) == 1)
                          M         bsf     RCSTA,  004h
                          M     else
0219   1218               M         bcf     RCSTA,  004h
                          M     endif
                          M         MOVE?CT 0, ((RCSTA) + 80h), 004h
                          M         CHK?RP  ((RCSTA) + 80h)
                          M     if (((((RCSTA) + 80h)) & 180h) == 0)
                          M       if (PREV_BANK == 1)
                          M         bcf     STATUS, RP0
                          M       endif
                          M       if (PREV_BANK == 2)
                          M         bcf     STATUS, RP1
                          M       endif
                          M       if (PREV_BANK == 3)
                          M         bcf     STATUS, RP0
                          M         bcf     STATUS, RP1
                          M       endif
                          M PREV_BANK = 0
                          M     endif
                          M 
                          M     if (((((RCSTA) + 80h)) & 180h) == 80h)
                          M       if (PREV_BANK == 0)
021A   1683               M         bsf     STATUS, RP0
                          M       endif
                          M       if (PREV_BANK == 2)
                          M         bsf     STATUS, RP0
                          M         bcf     STATUS, RP1
                          M       endif
                          M       if (PREV_BANK == 3)
                          M         bcf     STATUS, RP1
                          M       endif
MPASM  5.36                      MB_STDIM.ASM   5-24-2019  13:22:05         PAGE 159


LOC  OBJECT CODE     LINE SOURCE TEXT
  VALUE

  00000001                M PREV_BANK = 1
                          M     endif
                          M 
                          M     if (((((RCSTA) + 80h)) & 180h) == 100h)
                          M       if (PREV_BANK == 0)
                          M         bsf     STATUS, RP1
                          M       endif
                          M       if (PREV_BANK == 1)
                          M         bcf     STATUS, RP0
                          M         bsf     STATUS, RP1
                          M       endif
                          M       if (PREV_BANK == 3)
                          M         bcf     STATUS, RP0
                          M       endif
                          M PREV_BANK = 2
                          M     endif
                          M 
                          M     if (((((RCSTA) + 80h)) & 180h) == 180h)
                          M       if (PREV_BANK == 0)
                          M         bsf     STATUS, RP0
                          M         bsf     STATUS, RP1
                          M       endif
                          M       if (PREV_BANK == 1)
                          M         bsf     STATUS, RP1
                          M       endif
                          M       if (PREV_BANK == 2)
                          M         bsf     STATUS, RP0
                          M       endif
                          M PREV_BANK = 3
                          M     endif
                          M     if (((0)   & 1) == 1)
                          M         bsf     ((RCSTA) + 80h), 004h
                          M     else
021B   1218               M         bcf     ((RCSTA) + 80h), 004h
                          M     endif
                      00602 
                      00603 ; C:\USERS\JESSADA\DESKTOP\LED DIMMER PROJECT\PIC16F886\MB_STDIM.BAS    00295   Z0004C                  
                                    low CREN :high CREN             ;reset error
021C                  00604 Z0004C
                      00605         HIGH?T  _CREN
                          M         MOVE?CT 1, RCSTA, 004h
                          M         CHK?RP  RCSTA
                          M     if (((RCSTA) & 180h) == 0)
                          M       if (PREV_BANK == 1)
021C   1283               M         bcf     STATUS, RP0
                          M       endif
                          M       if (PREV_BANK == 2)
                          M         bcf     STATUS, RP1
                          M       endif
                          M       if (PREV_BANK == 3)
                          M         bcf     STATUS, RP0
                          M         bcf     STATUS, RP1
                          M       endif
MPASM  5.36                      MB_STDIM.ASM   5-24-2019  13:22:05         PAGE 160


LOC  OBJECT CODE     LINE SOURCE TEXT
  VALUE

  00000000                M PREV_BANK = 0
                          M     endif
                          M 
                          M     if (((RCSTA) & 180h) == 80h)
                          M       if (PREV_BANK == 0)
                          M         bsf     STATUS, RP0
                          M       endif
                          M       if (PREV_BANK == 2)
                          M         bsf     STATUS, RP0
                          M         bcf     STATUS, RP1
                          M       endif
                          M       if (PREV_BANK == 3)
                          M         bcf     STATUS, RP1
                          M       endif
                          M PREV_BANK = 1
                          M     endif
                          M 
                          M     if (((RCSTA) & 180h) == 100h)
                          M       if (PREV_BANK == 0)
                          M         bsf     STATUS, RP1
                          M       endif
                          M       if (PREV_BANK == 1)
                          M         bcf     STATUS, RP0
                          M         bsf     STATUS, RP1
                          M       endif
                          M       if (PREV_BANK == 3)
                          M         bcf     STATUS, RP0
                          M       endif
                          M PREV_BANK = 2
                          M     endif
                          M 
                          M     if (((RCSTA) & 180h) == 180h)
                          M       if (PREV_BANK == 0)
                          M         bsf     STATUS, RP0
                          M         bsf     STATUS, RP1
                          M       endif
                          M       if (PREV_BANK == 1)
                          M         bsf     STATUS, RP1
                          M       endif
                          M       if (PREV_BANK == 2)
                          M         bsf     STATUS, RP0
                          M       endif
                          M PREV_BANK = 3
                          M     endif
                          M     if (((1)   & 1) == 1)
021D   1618               M         bsf     RCSTA,  004h
                          M     else
                          M         bcf     RCSTA,  004h
                          M     endif
                          M         MOVE?CT 0, ((RCSTA) + 80h), 004h
                          M         CHK?RP  ((RCSTA) + 80h)
                          M     if (((((RCSTA) + 80h)) & 180h) == 0)
                          M       if (PREV_BANK == 1)
MPASM  5.36                      MB_STDIM.ASM   5-24-2019  13:22:05         PAGE 161


LOC  OBJECT CODE     LINE SOURCE TEXT
  VALUE

                          M         bcf     STATUS, RP0
                          M       endif
                          M       if (PREV_BANK == 2)
                          M         bcf     STATUS, RP1
                          M       endif
                          M       if (PREV_BANK == 3)
                          M         bcf     STATUS, RP0
                          M         bcf     STATUS, RP1
                          M       endif
                          M PREV_BANK = 0
                          M     endif
                          M 
                          M     if (((((RCSTA) + 80h)) & 180h) == 80h)
                          M       if (PREV_BANK == 0)
021E   1683               M         bsf     STATUS, RP0
                          M       endif
                          M       if (PREV_BANK == 2)
                          M         bsf     STATUS, RP0
                          M         bcf     STATUS, RP1
                          M       endif
                          M       if (PREV_BANK == 3)
                          M         bcf     STATUS, RP1
                          M       endif
  00000001                M PREV_BANK = 1
                          M     endif
                          M 
                          M     if (((((RCSTA) + 80h)) & 180h) == 100h)
                          M       if (PREV_BANK == 0)
                          M         bsf     STATUS, RP1
                          M       endif
                          M       if (PREV_BANK == 1)
                          M         bcf     STATUS, RP0
                          M         bsf     STATUS, RP1
                          M       endif
                          M       if (PREV_BANK == 3)
                          M         bcf     STATUS, RP0
                          M       endif
                          M PREV_BANK = 2
                          M     endif
                          M 
                          M     if (((((RCSTA) + 80h)) & 180h) == 180h)
                          M       if (PREV_BANK == 0)
                          M         bsf     STATUS, RP0
                          M         bsf     STATUS, RP1
                          M       endif
                          M       if (PREV_BANK == 1)
                          M         bsf     STATUS, RP1
                          M       endif
                          M       if (PREV_BANK == 2)
                          M         bsf     STATUS, RP0
                          M       endif
                          M PREV_BANK = 3
                          M     endif
MPASM  5.36                      MB_STDIM.ASM   5-24-2019  13:22:05         PAGE 162


LOC  OBJECT CODE     LINE SOURCE TEXT
  VALUE

                          M     if (((0)   & 1) == 1)
                          M         bsf     ((RCSTA) + 80h), 004h
                          M     else
021F   1218               M         bcf     ((RCSTA) + 80h), 004h
                          M     endif
                      00606 
                      00607 ; C:\USERS\JESSADA\DESKTOP\LED DIMMER PROJECT\PIC16F886\MB_STDIM.BAS    00296   Z0004D                  
                                    if charCnt>0 then
0220                  00608 Z0004D
                      00609         CMPLE?BCL       _charCnt, 000h, L00015
                          M     if ((000h) >= 0ffh)
                          M         L?GOTO  L00015
                          M     else
                          M       if ((000h) >= 0)
                          M         CLRWDT?
                          M     ifndef NO_CLRWDT
0220   0064               M         clrwdt
                          M     endif
                          M         MOVE?CA (000h) + 1
0221   3001               M         movlw   low ((000h) + 1)
                          M         CHK?RP  _charCnt
                          M     if (((_charCnt) & 180h) == 0)
                          M       if (PREV_BANK == 1)
0222   1283               M         bcf     STATUS, RP0
                          M       endif
                          M       if (PREV_BANK == 2)
                          M         bcf     STATUS, RP1
                          M       endif
                          M       if (PREV_BANK == 3)
                          M         bcf     STATUS, RP0
                          M         bcf     STATUS, RP1
                          M       endif
  00000000                M PREV_BANK = 0
                          M     endif
                          M 
                          M     if (((_charCnt) & 180h) == 80h)
                          M       if (PREV_BANK == 0)
                          M         bsf     STATUS, RP0
                          M       endif
                          M       if (PREV_BANK == 2)
                          M         bsf     STATUS, RP0
                          M         bcf     STATUS, RP1
                          M       endif
                          M       if (PREV_BANK == 3)
                          M         bcf     STATUS, RP1
                          M       endif
                          M PREV_BANK = 1
                          M     endif
                          M 
                          M     if (((_charCnt) & 180h) == 100h)
                          M       if (PREV_BANK == 0)
                          M         bsf     STATUS, RP1
                          M       endif
MPASM  5.36                      MB_STDIM.ASM   5-24-2019  13:22:05         PAGE 163


LOC  OBJECT CODE     LINE SOURCE TEXT
  VALUE

                          M       if (PREV_BANK == 1)
                          M         bcf     STATUS, RP0
                          M         bsf     STATUS, RP1
                          M       endif
                          M       if (PREV_BANK == 3)
                          M         bcf     STATUS, RP0
                          M       endif
                          M PREV_BANK = 2
                          M     endif
                          M 
                          M     if (((_charCnt) & 180h) == 180h)
                          M       if (PREV_BANK == 0)
                          M         bsf     STATUS, RP0
                          M         bsf     STATUS, RP1
                          M       endif
                          M       if (PREV_BANK == 1)
                          M         bsf     STATUS, RP1
                          M       endif
                          M       if (PREV_BANK == 2)
                          M         bsf     STATUS, RP0
                          M       endif
                          M PREV_BANK = 3
                          M     endif
0223   0278               M         subwf   _charCnt, W
                          M         BIT?GOTO 0, STATUS, C, L00015
                          M     ifdef USE_LINKER
                          M         CLRWDT?
                          M     else
                          M       if ($ == (L00015))
                          M         CLRWDT?
                          M       endif
                          M     endif
                          M 
                          M     ifdef USE_LINKER
                          M       if (CODE_SIZE > 2)
                          M         pagesel L00015
                          M       endif
                          M     else
                          M       if (CODE_SIZE > 2)
                          M         if (((L00015) & 800h) == 0)
0224   118A               M         bcf     PCLATH, 3
                          M         else
                          M         bsf     PCLATH, 3
                          M         endif
                          M       endif
                          M       if (CODE_SIZE > 4)
                          M         if (((L00015) & 1000h) == 0)
0225   120A               M         bcf     PCLATH, 4
                          M         else
                          M         bsf     PCLATH, 4
                          M         endif
                          M       endif
                          M     endif
MPASM  5.36                      MB_STDIM.ASM   5-24-2019  13:22:05         PAGE 164


LOC  OBJECT CODE     LINE SOURCE TEXT
  VALUE

                          M 
                          M     if (((STATUS) & 0ff80h) != 0)
                          M         CHK?RP  STATUS
                          M         bcf     STATUS, DC
                          M       if ((0)      == 0)
                          M         btfss   STATUS, C
                          M       else
                          M         btfsc   STATUS, C
                          M       endif
                          M         bsf     STATUS, DC
                          M         RST?RP
                          M         btfsc   STATUS, DC
                          M     else
                          M         RST?RP
                          M     if ((PREV_BANK & 1) != 0)
                          M         bcf     STATUS, RP0
                          M     endif
                          M     if ((PREV_BANK & 2) != 0)
                          M         bcf     STATUS, RP1
                          M     endif
  00000000                M PREV_BANK = 0
                          M       if ((0)      == 0)
0226   1C03               M         btfss   STATUS, C
                          M       else
                          M         btfsc   STATUS, C
                          M       endif
                          M     endif
                          M 
0227   2A4B               M         goto    L00015
                          M       endif
                          M     endif
                      00610 
                      00611 ; C:\USERS\JESSADA\DESKTOP\LED DIMMER PROJECT\PIC16F886\MB_STDIM.BAS    00297   Z0004E                  
                                            for j = 0 to charCnt-1
0228                  00612 Z0004E
                      00613         MOVE?CB 000h, _j
                          M         CHK?RP  _j
                          M     if (((_j)    & 180h) == 0)
                          M       if (PREV_BANK == 1)
                          M         bcf     STATUS, RP0
                          M       endif
                          M       if (PREV_BANK == 2)
                          M         bcf     STATUS, RP1
                          M       endif
                          M       if (PREV_BANK == 3)
                          M         bcf     STATUS, RP0
                          M         bcf     STATUS, RP1
                          M       endif
  00000000                M PREV_BANK = 0
                          M     endif
                          M 
                          M     if (((_j)    & 180h) == 80h)
                          M       if (PREV_BANK == 0)
MPASM  5.36                      MB_STDIM.ASM   5-24-2019  13:22:05         PAGE 165


LOC  OBJECT CODE     LINE SOURCE TEXT
  VALUE

                          M         bsf     STATUS, RP0
                          M       endif
                          M       if (PREV_BANK == 2)
                          M         bsf     STATUS, RP0
                          M         bcf     STATUS, RP1
                          M       endif
                          M       if (PREV_BANK == 3)
                          M         bcf     STATUS, RP1
                          M       endif
                          M PREV_BANK = 1
                          M     endif
                          M 
                          M     if (((_j)    & 180h) == 100h)
                          M       if (PREV_BANK == 0)
                          M         bsf     STATUS, RP1
                          M       endif
                          M       if (PREV_BANK == 1)
                          M         bcf     STATUS, RP0
                          M         bsf     STATUS, RP1
                          M       endif
                          M       if (PREV_BANK == 3)
                          M         bcf     STATUS, RP0
                          M       endif
                          M PREV_BANK = 2
                          M     endif
                          M 
                          M     if (((_j)    & 180h) == 180h)
                          M       if (PREV_BANK == 0)
                          M         bsf     STATUS, RP0
                          M         bsf     STATUS, RP1
                          M       endif
                          M       if (PREV_BANK == 1)
                          M         bsf     STATUS, RP1
                          M       endif
                          M       if (PREV_BANK == 2)
                          M         bsf     STATUS, RP0
                          M       endif
                          M PREV_BANK = 3
                          M     endif
                          M     if (low (000h) == 0)
0228   01C4               M         clrf    _j
                          M     else
                          M         movlw   low (000h)
                          M         movwf   _j
                          M     endif
                      00614         LABEL?L L00017  
                          M         RST?RP
                          M     if ((PREV_BANK & 1) != 0)
                          M         bcf     STATUS, RP0
                          M     endif
                          M     if ((PREV_BANK & 2) != 0)
                          M         bcf     STATUS, RP1
                          M     endif
MPASM  5.36                      MB_STDIM.ASM   5-24-2019  13:22:05         PAGE 166


LOC  OBJECT CODE     LINE SOURCE TEXT
  VALUE

  00000000                M PREV_BANK = 0
                          M     ifdef PM_USED
                          M         LALL
                          M L00017
                          M         XALL
                          M     else
0229                      M L00017
                          M     endif
                      00615         SUB?BCW _charCnt, 001h, T1
0229   30FF               M         movlw   low (-(001h))
                          M         CHK?RP  _charCnt
                          M     if (((_charCnt) & 180h) == 0)
                          M       if (PREV_BANK == 1)
                          M         bcf     STATUS, RP0
                          M       endif
                          M       if (PREV_BANK == 2)
                          M         bcf     STATUS, RP1
                          M       endif
                          M       if (PREV_BANK == 3)
                          M         bcf     STATUS, RP0
                          M         bcf     STATUS, RP1
                          M       endif
  00000000                M PREV_BANK = 0
                          M     endif
                          M 
                          M     if (((_charCnt) & 180h) == 80h)
                          M       if (PREV_BANK == 0)
                          M         bsf     STATUS, RP0
                          M       endif
                          M       if (PREV_BANK == 2)
                          M         bsf     STATUS, RP0
                          M         bcf     STATUS, RP1
                          M       endif
                          M       if (PREV_BANK == 3)
                          M         bcf     STATUS, RP1
                          M       endif
                          M PREV_BANK = 1
                          M     endif
                          M 
                          M     if (((_charCnt) & 180h) == 100h)
                          M       if (PREV_BANK == 0)
                          M         bsf     STATUS, RP1
                          M       endif
                          M       if (PREV_BANK == 1)
                          M         bcf     STATUS, RP0
                          M         bsf     STATUS, RP1
                          M       endif
                          M       if (PREV_BANK == 3)
                          M         bcf     STATUS, RP0
                          M       endif
                          M PREV_BANK = 2
                          M     endif
                          M 
MPASM  5.36                      MB_STDIM.ASM   5-24-2019  13:22:05         PAGE 167


LOC  OBJECT CODE     LINE SOURCE TEXT
  VALUE

                          M     if (((_charCnt) & 180h) == 180h)
                          M       if (PREV_BANK == 0)
                          M         bsf     STATUS, RP0
                          M         bsf     STATUS, RP1
                          M       endif
                          M       if (PREV_BANK == 1)
                          M         bsf     STATUS, RP1
                          M       endif
                          M       if (PREV_BANK == 2)
                          M         bsf     STATUS, RP0
                          M       endif
                          M PREV_BANK = 3
                          M     endif
022A   0778               M         addwf   _charCnt, W
                          M         MOVE?AB T1
                          M         CHK?RP  T1
                          M     if (((T1)    & 180h) == 0)
                          M       if (PREV_BANK == 1)
                          M         bcf     STATUS, RP0
                          M       endif
                          M       if (PREV_BANK == 2)
                          M         bcf     STATUS, RP1
                          M       endif
                          M       if (PREV_BANK == 3)
                          M         bcf     STATUS, RP0
                          M         bcf     STATUS, RP1
                          M       endif
  00000000                M PREV_BANK = 0
                          M     endif
                          M 
                          M     if (((T1)    & 180h) == 80h)
                          M       if (PREV_BANK == 0)
                          M         bsf     STATUS, RP0
                          M       endif
                          M       if (PREV_BANK == 2)
                          M         bsf     STATUS, RP0
                          M         bcf     STATUS, RP1
                          M       endif
                          M       if (PREV_BANK == 3)
                          M         bcf     STATUS, RP1
                          M       endif
                          M PREV_BANK = 1
                          M     endif
                          M 
                          M     if (((T1)    & 180h) == 100h)
                          M       if (PREV_BANK == 0)
                          M         bsf     STATUS, RP1
                          M       endif
                          M       if (PREV_BANK == 1)
                          M         bcf     STATUS, RP0
                          M         bsf     STATUS, RP1
                          M       endif
                          M       if (PREV_BANK == 3)
MPASM  5.36                      MB_STDIM.ASM   5-24-2019  13:22:05         PAGE 168


LOC  OBJECT CODE     LINE SOURCE TEXT
  VALUE

                          M         bcf     STATUS, RP0
                          M       endif
                          M PREV_BANK = 2
                          M     endif
                          M 
                          M     if (((T1)    & 180h) == 180h)
                          M       if (PREV_BANK == 0)
                          M         bsf     STATUS, RP0
                          M         bsf     STATUS, RP1
                          M       endif
                          M       if (PREV_BANK == 1)
                          M         bsf     STATUS, RP1
                          M       endif
                          M       if (PREV_BANK == 2)
                          M         bsf     STATUS, RP0
                          M       endif
                          M PREV_BANK = 3
                          M     endif
022B   00BC               M         movwf   T1
022C   30FF               M         movlw   low ((-(001h)) >> 8)
022D   1803               M         btfsc   STATUS, C
022E   3E01               M         addlw   1
022F   00BD               M         movwf   (T1)   + 1
                      00616         CMPGT?BWL       _j, T1, L00018
                          M         MOVE?BW _j,  R0
                          M         MOVE?BB _j,  R0
                          M         CHK?RP  _j
                          M     if (((_j)    & 180h) == 0)
                          M       if (PREV_BANK == 1)
                          M         bcf     STATUS, RP0
                          M       endif
                          M       if (PREV_BANK == 2)
                          M         bcf     STATUS, RP1
                          M       endif
                          M       if (PREV_BANK == 3)
                          M         bcf     STATUS, RP0
                          M         bcf     STATUS, RP1
                          M       endif
  00000000                M PREV_BANK = 0
                          M     endif
                          M 
                          M     if (((_j)    & 180h) == 80h)
                          M       if (PREV_BANK == 0)
                          M         bsf     STATUS, RP0
                          M       endif
                          M       if (PREV_BANK == 2)
                          M         bsf     STATUS, RP0
                          M         bcf     STATUS, RP1
                          M       endif
                          M       if (PREV_BANK == 3)
                          M         bcf     STATUS, RP1
                          M       endif
                          M PREV_BANK = 1
MPASM  5.36                      MB_STDIM.ASM   5-24-2019  13:22:05         PAGE 169


LOC  OBJECT CODE     LINE SOURCE TEXT
  VALUE

                          M     endif
                          M 
                          M     if (((_j)    & 180h) == 100h)
                          M       if (PREV_BANK == 0)
                          M         bsf     STATUS, RP1
                          M       endif
                          M       if (PREV_BANK == 1)
                          M         bcf     STATUS, RP0
                          M         bsf     STATUS, RP1
                          M       endif
                          M       if (PREV_BANK == 3)
                          M         bcf     STATUS, RP0
                          M       endif
                          M PREV_BANK = 2
                          M     endif
                          M 
                          M     if (((_j)    & 180h) == 180h)
                          M       if (PREV_BANK == 0)
                          M         bsf     STATUS, RP0
                          M         bsf     STATUS, RP1
                          M       endif
                          M       if (PREV_BANK == 1)
                          M         bsf     STATUS, RP1
                          M       endif
                          M       if (PREV_BANK == 2)
                          M         bsf     STATUS, RP0
                          M       endif
                          M PREV_BANK = 3
                          M     endif
0230   0844               M         movf    _j,  W
                          M         CHK?RP  R0
                          M     if (((R0)    & 180h) == 0)
                          M       if (PREV_BANK == 1)
                          M         bcf     STATUS, RP0
                          M       endif
                          M       if (PREV_BANK == 2)
                          M         bcf     STATUS, RP1
                          M       endif
                          M       if (PREV_BANK == 3)
                          M         bcf     STATUS, RP0
                          M         bcf     STATUS, RP1
                          M       endif
  00000000                M PREV_BANK = 0
                          M     endif
                          M 
                          M     if (((R0)    & 180h) == 80h)
                          M       if (PREV_BANK == 0)
                          M         bsf     STATUS, RP0
                          M       endif
                          M       if (PREV_BANK == 2)
                          M         bsf     STATUS, RP0
                          M         bcf     STATUS, RP1
                          M       endif
MPASM  5.36                      MB_STDIM.ASM   5-24-2019  13:22:05         PAGE 170


LOC  OBJECT CODE     LINE SOURCE TEXT
  VALUE

                          M       if (PREV_BANK == 3)
                          M         bcf     STATUS, RP1
                          M       endif
                          M PREV_BANK = 1
                          M     endif
                          M 
                          M     if (((R0)    & 180h) == 100h)
                          M       if (PREV_BANK == 0)
                          M         bsf     STATUS, RP1
                          M       endif
                          M       if (PREV_BANK == 1)
                          M         bcf     STATUS, RP0
                          M         bsf     STATUS, RP1
                          M       endif
                          M       if (PREV_BANK == 3)
                          M         bcf     STATUS, RP0
                          M       endif
                          M PREV_BANK = 2
                          M     endif
                          M 
                          M     if (((R0)    & 180h) == 180h)
                          M       if (PREV_BANK == 0)
                          M         bsf     STATUS, RP0
                          M         bsf     STATUS, RP1
                          M       endif
                          M       if (PREV_BANK == 1)
                          M         bsf     STATUS, RP1
                          M       endif
                          M       if (PREV_BANK == 2)
                          M         bsf     STATUS, RP0
                          M       endif
                          M PREV_BANK = 3
                          M     endif
0231   00A0               M         movwf   R0
                          M         CHK?RP  R0
                          M     if (((R0)    & 180h) == 0)
                          M       if (PREV_BANK == 1)
                          M         bcf     STATUS, RP0
                          M       endif
                          M       if (PREV_BANK == 2)
                          M         bcf     STATUS, RP1
                          M       endif
                          M       if (PREV_BANK == 3)
                          M         bcf     STATUS, RP0
                          M         bcf     STATUS, RP1
                          M       endif
  00000000                M PREV_BANK = 0
                          M     endif
                          M 
                          M     if (((R0)    & 180h) == 80h)
                          M       if (PREV_BANK == 0)
                          M         bsf     STATUS, RP0
                          M       endif
MPASM  5.36                      MB_STDIM.ASM   5-24-2019  13:22:05         PAGE 171


LOC  OBJECT CODE     LINE SOURCE TEXT
  VALUE

                          M       if (PREV_BANK == 2)
                          M         bsf     STATUS, RP0
                          M         bcf     STATUS, RP1
                          M       endif
                          M       if (PREV_BANK == 3)
                          M         bcf     STATUS, RP1
                          M       endif
                          M PREV_BANK = 1
                          M     endif
                          M 
                          M     if (((R0)    & 180h) == 100h)
                          M       if (PREV_BANK == 0)
                          M         bsf     STATUS, RP1
                          M       endif
                          M       if (PREV_BANK == 1)
                          M         bcf     STATUS, RP0
                          M         bsf     STATUS, RP1
                          M       endif
                          M       if (PREV_BANK == 3)
                          M         bcf     STATUS, RP0
                          M       endif
                          M PREV_BANK = 2
                          M     endif
                          M 
                          M     if (((R0)    & 180h) == 180h)
                          M       if (PREV_BANK == 0)
                          M         bsf     STATUS, RP0
                          M         bsf     STATUS, RP1
                          M       endif
                          M       if (PREV_BANK == 1)
                          M         bsf     STATUS, RP1
                          M       endif
                          M       if (PREV_BANK == 2)
                          M         bsf     STATUS, RP0
                          M       endif
                          M PREV_BANK = 3
                          M     endif
0232   01A1               M         clrf    (R0)   + 1
                          M         MOVE?WWA T1,  R1
                          M         MOVE?BB (T1)  + 1, (R1)   + 1
                          M         CHK?RP  (T1) + 1
                          M     if ((((T1) + 1) & 180h) == 0)
                          M       if (PREV_BANK == 1)
                          M         bcf     STATUS, RP0
                          M       endif
                          M       if (PREV_BANK == 2)
                          M         bcf     STATUS, RP1
                          M       endif
                          M       if (PREV_BANK == 3)
                          M         bcf     STATUS, RP0
                          M         bcf     STATUS, RP1
                          M       endif
  00000000                M PREV_BANK = 0
MPASM  5.36                      MB_STDIM.ASM   5-24-2019  13:22:05         PAGE 172


LOC  OBJECT CODE     LINE SOURCE TEXT
  VALUE

                          M     endif
                          M 
                          M     if ((((T1) + 1) & 180h) == 80h)
                          M       if (PREV_BANK == 0)
                          M         bsf     STATUS, RP0
                          M       endif
                          M       if (PREV_BANK == 2)
                          M         bsf     STATUS, RP0
                          M         bcf     STATUS, RP1
                          M       endif
                          M       if (PREV_BANK == 3)
                          M         bcf     STATUS, RP1
                          M       endif
                          M PREV_BANK = 1
                          M     endif
                          M 
                          M     if ((((T1) + 1) & 180h) == 100h)
                          M       if (PREV_BANK == 0)
                          M         bsf     STATUS, RP1
                          M       endif
                          M       if (PREV_BANK == 1)
                          M         bcf     STATUS, RP0
                          M         bsf     STATUS, RP1
                          M       endif
                          M       if (PREV_BANK == 3)
                          M         bcf     STATUS, RP0
                          M       endif
                          M PREV_BANK = 2
                          M     endif
                          M 
                          M     if ((((T1) + 1) & 180h) == 180h)
                          M       if (PREV_BANK == 0)
                          M         bsf     STATUS, RP0
                          M         bsf     STATUS, RP1
                          M       endif
                          M       if (PREV_BANK == 1)
                          M         bsf     STATUS, RP1
                          M       endif
                          M       if (PREV_BANK == 2)
                          M         bsf     STATUS, RP0
                          M       endif
                          M PREV_BANK = 3
                          M     endif
0233   083D               M         movf    (T1) + 1, W
                          M         CHK?RP  (R1) + 1
                          M     if ((((R1) + 1) & 180h) == 0)
                          M       if (PREV_BANK == 1)
                          M         bcf     STATUS, RP0
                          M       endif
                          M       if (PREV_BANK == 2)
                          M         bcf     STATUS, RP1
                          M       endif
                          M       if (PREV_BANK == 3)
MPASM  5.36                      MB_STDIM.ASM   5-24-2019  13:22:05         PAGE 173


LOC  OBJECT CODE     LINE SOURCE TEXT
  VALUE

                          M         bcf     STATUS, RP0
                          M         bcf     STATUS, RP1
                          M       endif
  00000000                M PREV_BANK = 0
                          M     endif
                          M 
                          M     if ((((R1) + 1) & 180h) == 80h)
                          M       if (PREV_BANK == 0)
                          M         bsf     STATUS, RP0
                          M       endif
                          M       if (PREV_BANK == 2)
                          M         bsf     STATUS, RP0
                          M         bcf     STATUS, RP1
                          M       endif
                          M       if (PREV_BANK == 3)
                          M         bcf     STATUS, RP1
                          M       endif
                          M PREV_BANK = 1
                          M     endif
                          M 
                          M     if ((((R1) + 1) & 180h) == 100h)
                          M       if (PREV_BANK == 0)
                          M         bsf     STATUS, RP1
                          M       endif
                          M       if (PREV_BANK == 1)
                          M         bcf     STATUS, RP0
                          M         bsf     STATUS, RP1
                          M       endif
                          M       if (PREV_BANK == 3)
                          M         bcf     STATUS, RP0
                          M       endif
                          M PREV_BANK = 2
                          M     endif
                          M 
                          M     if ((((R1) + 1) & 180h) == 180h)
                          M       if (PREV_BANK == 0)
                          M         bsf     STATUS, RP0
                          M         bsf     STATUS, RP1
                          M       endif
                          M       if (PREV_BANK == 1)
                          M         bsf     STATUS, RP1
                          M       endif
                          M       if (PREV_BANK == 2)
                          M         bsf     STATUS, RP0
                          M       endif
                          M PREV_BANK = 3
                          M     endif
0234   00A3               M         movwf   (R1) + 1
                          M         MOVE?BA T1
                          M         CHK?RP  T1
                          M     if (((T1)    & 180h) == 0)
                          M       if (PREV_BANK == 1)
                          M         bcf     STATUS, RP0
MPASM  5.36                      MB_STDIM.ASM   5-24-2019  13:22:05         PAGE 174


LOC  OBJECT CODE     LINE SOURCE TEXT
  VALUE

                          M       endif
                          M       if (PREV_BANK == 2)
                          M         bcf     STATUS, RP1
                          M       endif
                          M       if (PREV_BANK == 3)
                          M         bcf     STATUS, RP0
                          M         bcf     STATUS, RP1
                          M       endif
  00000000                M PREV_BANK = 0
                          M     endif
                          M 
                          M     if (((T1)    & 180h) == 80h)
                          M       if (PREV_BANK == 0)
                          M         bsf     STATUS, RP0
                          M       endif
                          M       if (PREV_BANK == 2)
                          M         bsf     STATUS, RP0
                          M         bcf     STATUS, RP1
                          M       endif
                          M       if (PREV_BANK == 3)
                          M         bcf     STATUS, RP1
                          M       endif
                          M PREV_BANK = 1
                          M     endif
                          M 
                          M     if (((T1)    & 180h) == 100h)
                          M       if (PREV_BANK == 0)
                          M         bsf     STATUS, RP1
                          M       endif
                          M       if (PREV_BANK == 1)
                          M         bcf     STATUS, RP0
                          M         bsf     STATUS, RP1
                          M       endif
                          M       if (PREV_BANK == 3)
                          M         bcf     STATUS, RP0
                          M       endif
                          M PREV_BANK = 2
                          M     endif
                          M 
                          M     if (((T1)    & 180h) == 180h)
                          M       if (PREV_BANK == 0)
                          M         bsf     STATUS, RP0
                          M         bsf     STATUS, RP1
                          M       endif
                          M       if (PREV_BANK == 1)
                          M         bsf     STATUS, RP1
                          M       endif
                          M       if (PREV_BANK == 2)
                          M         bsf     STATUS, RP0
                          M       endif
                          M PREV_BANK = 3
                          M     endif
0235   083C               M         movf    T1,  W
MPASM  5.36                      MB_STDIM.ASM   5-24-2019  13:22:05         PAGE 175


LOC  OBJECT CODE     LINE SOURCE TEXT
  VALUE

                          M         L?CALL  CMPGT
                          M         RST?RP
                          M     if ((PREV_BANK & 1) != 0)
                          M         bcf     STATUS, RP0
                          M     endif
                          M     if ((PREV_BANK & 2) != 0)
                          M         bcf     STATUS, RP1
                          M     endif
  00000000                M PREV_BANK = 0
                          M 
                          M     ifdef USE_LINKER
                          M       if (CODE_SIZE > 2)
                          M         pagesel CMPGT
                          M       endif
                          M     else
                          M       if ((CMPGT) < 1)
                          M         if (CODE_SIZE > 2)
                          M           if (((CMPGT) & 800h) == 0)
                          M         bcf     PCLATH, 3
                          M         else
                          M         bsf     PCLATH, 3
                          M         endif
                          M         endif
                          M         if (CODE_SIZE > 4)
                          M           if (((CMPGT) & 1000h) == 0)
                          M         bcf     PCLATH, 4
                          M           else
                          M         bsf     PCLATH, 4
                          M           endif
                          M         endif
                          M       else
                          M         if ((CMPGT) > $)
                          M           if (CODE_SIZE > 2)
                          M             if (((CMPGT) & 800h) == 0)
                          M         bcf     PCLATH, 3
                          M             else
                          M         bsf     PCLATH, 3
                          M             endif
                          M           endif
                          M           if (CODE_SIZE > 4)
                          M             if (((CMPGT) & 1000h) == 0)
                          M         bcf     PCLATH, 4
                          M             else
                          M         bsf     PCLATH, 4
                          M             endif
                          M           endif
                          M         else
                          M           if (CODE_SIZE > 2)
                          M             if (((CMPGT) & 1800h) == 0)
0236   018A               M         clrf    PCLATH
                          M             else
                          M               if (((CMPGT) & 800h) == 0)
                          M         bcf     PCLATH, 3
MPASM  5.36                      MB_STDIM.ASM   5-24-2019  13:22:05         PAGE 176


LOC  OBJECT CODE     LINE SOURCE TEXT
  VALUE

                          M               else
                          M         bsf     PCLATH, 3
                          M               endif
                          M               if (CODE_SIZE > 4)
                          M                 if (((CMPGT) & 1000h) == 0)
                          M         bcf     PCLATH, 4
                          M                 else
                          M         bsf     PCLATH, 4
                          M                 endif   
                          M               endif
                          M             endif
                          M           endif
                          M         endif
                          M       endif
                          M     endif
                          M 
0237   20AB               M         call    CMPGT
                          M         BIT?GOTO 0, STATUS, Z, L00018
                          M     ifdef USE_LINKER
                          M         CLRWDT?
                          M     else
                          M       if ($ == (L00018))
                          M         CLRWDT?
                          M       endif
                          M     endif
                          M 
                          M     ifdef USE_LINKER
                          M       if (CODE_SIZE > 2)
                          M         pagesel L00018
                          M       endif
                          M     else
                          M       if (CODE_SIZE > 2)
                          M         if (((L00018) & 800h) == 0)
0238   118A               M         bcf     PCLATH, 3
                          M         else
                          M         bsf     PCLATH, 3
                          M         endif
                          M       endif
                          M       if (CODE_SIZE > 4)
                          M         if (((L00018) & 1000h) == 0)
0239   120A               M         bcf     PCLATH, 4
                          M         else
                          M         bsf     PCLATH, 4
                          M         endif
                          M       endif
                          M     endif
                          M 
                          M     if (((STATUS) & 0ff80h) != 0)
                          M         CHK?RP  STATUS
                          M         bcf     STATUS, DC
                          M       if ((0)      == 0)
                          M         btfss   STATUS, Z
                          M       else
MPASM  5.36                      MB_STDIM.ASM   5-24-2019  13:22:05         PAGE 177


LOC  OBJECT CODE     LINE SOURCE TEXT
  VALUE

                          M         btfsc   STATUS, Z
                          M       endif
                          M         bsf     STATUS, DC
                          M         RST?RP
                          M         btfsc   STATUS, DC
                          M     else
                          M         RST?RP
                          M     if ((PREV_BANK & 1) != 0)
                          M         bcf     STATUS, RP0
                          M     endif
                          M     if ((PREV_BANK & 2) != 0)
                          M         bcf     STATUS, RP1
                          M     endif
  00000000                M PREV_BANK = 0
                          M       if ((0)      == 0)
023A   1D03               M         btfss   STATUS, Z
                          M       else
                          M         btfsc   STATUS, Z
                          M       endif
                          M     endif
                          M 
023B   2A4B               M         goto    L00018
                      00617 
                      00618 ; C:\USERS\JESSADA\DESKTOP\LED DIMMER PROJECT\PIC16F886\MB_STDIM.BAS    00298   Z0004F                  
                                                    d=intBuffer[j]
023C                  00619 Z0004F
                      00620         AOUT?BBB        _intBuffer, _j, _d
                          M         MOVE?BA _j
                          M         CHK?RP  _j
                          M     if (((_j)    & 180h) == 0)
                          M       if (PREV_BANK == 1)
                          M         bcf     STATUS, RP0
                          M       endif
                          M       if (PREV_BANK == 2)
                          M         bcf     STATUS, RP1
                          M       endif
                          M       if (PREV_BANK == 3)
                          M         bcf     STATUS, RP0
                          M         bcf     STATUS, RP1
                          M       endif
  00000000                M PREV_BANK = 0
                          M     endif
                          M 
                          M     if (((_j)    & 180h) == 80h)
                          M       if (PREV_BANK == 0)
                          M         bsf     STATUS, RP0
                          M       endif
                          M       if (PREV_BANK == 2)
                          M         bsf     STATUS, RP0
                          M         bcf     STATUS, RP1
                          M       endif
                          M       if (PREV_BANK == 3)
                          M         bcf     STATUS, RP1
MPASM  5.36                      MB_STDIM.ASM   5-24-2019  13:22:05         PAGE 178


LOC  OBJECT CODE     LINE SOURCE TEXT
  VALUE

                          M       endif
                          M PREV_BANK = 1
                          M     endif
                          M 
                          M     if (((_j)    & 180h) == 100h)
                          M       if (PREV_BANK == 0)
                          M         bsf     STATUS, RP1
                          M       endif
                          M       if (PREV_BANK == 1)
                          M         bcf     STATUS, RP0
                          M         bsf     STATUS, RP1
                          M       endif
                          M       if (PREV_BANK == 3)
                          M         bcf     STATUS, RP0
                          M       endif
                          M PREV_BANK = 2
                          M     endif
                          M 
                          M     if (((_j)    & 180h) == 180h)
                          M       if (PREV_BANK == 0)
                          M         bsf     STATUS, RP0
                          M         bsf     STATUS, RP1
                          M       endif
                          M       if (PREV_BANK == 1)
                          M         bsf     STATUS, RP1
                          M       endif
                          M       if (PREV_BANK == 2)
                          M         bsf     STATUS, RP0
                          M       endif
                          M PREV_BANK = 3
                          M     endif
023C   0844               M         movf    _j,  W
023D   3EC0               M         addlw   low (_intBuffer)
023E   0084               M         movwf   FSR
                          M     if ((_intBuffer) > 255)
                          M         bsf     STATUS, IRP
                          M     endif
                          M         MOVE?BB INDF, _d
                          M         CHK?RP  INDF
                          M     if (((INDF)  & 180h) == 0)
                          M       if (PREV_BANK == 1)
                          M         bcf     STATUS, RP0
                          M       endif
                          M       if (PREV_BANK == 2)
                          M         bcf     STATUS, RP1
                          M       endif
                          M       if (PREV_BANK == 3)
                          M         bcf     STATUS, RP0
                          M         bcf     STATUS, RP1
                          M       endif
  00000000                M PREV_BANK = 0
                          M     endif
                          M 
MPASM  5.36                      MB_STDIM.ASM   5-24-2019  13:22:05         PAGE 179


LOC  OBJECT CODE     LINE SOURCE TEXT
  VALUE

                          M     if (((INDF)  & 180h) == 80h)
                          M       if (PREV_BANK == 0)
                          M         bsf     STATUS, RP0
                          M       endif
                          M       if (PREV_BANK == 2)
                          M         bsf     STATUS, RP0
                          M         bcf     STATUS, RP1
                          M       endif
                          M       if (PREV_BANK == 3)
                          M         bcf     STATUS, RP1
                          M       endif
                          M PREV_BANK = 1
                          M     endif
                          M 
                          M     if (((INDF)  & 180h) == 100h)
                          M       if (PREV_BANK == 0)
                          M         bsf     STATUS, RP1
                          M       endif
                          M       if (PREV_BANK == 1)
                          M         bcf     STATUS, RP0
                          M         bsf     STATUS, RP1
                          M       endif
                          M       if (PREV_BANK == 3)
                          M         bcf     STATUS, RP0
                          M       endif
                          M PREV_BANK = 2
                          M     endif
                          M 
                          M     if (((INDF)  & 180h) == 180h)
                          M       if (PREV_BANK == 0)
                          M         bsf     STATUS, RP0
                          M         bsf     STATUS, RP1
                          M       endif
                          M       if (PREV_BANK == 1)
                          M         bsf     STATUS, RP1
                          M       endif
                          M       if (PREV_BANK == 2)
                          M         bsf     STATUS, RP0
                          M       endif
                          M PREV_BANK = 3
                          M     endif
023F   0800               M         movf    INDF, W
                          M         CHK?RP  _d
                          M     if (((_d)    & 180h) == 0)
                          M       if (PREV_BANK == 1)
                          M         bcf     STATUS, RP0
                          M       endif
                          M       if (PREV_BANK == 2)
                          M         bcf     STATUS, RP1
                          M       endif
                          M       if (PREV_BANK == 3)
                          M         bcf     STATUS, RP0
                          M         bcf     STATUS, RP1
MPASM  5.36                      MB_STDIM.ASM   5-24-2019  13:22:05         PAGE 180


LOC  OBJECT CODE     LINE SOURCE TEXT
  VALUE

                          M       endif
  00000000                M PREV_BANK = 0
                          M     endif
                          M 
                          M     if (((_d)    & 180h) == 80h)
                          M       if (PREV_BANK == 0)
                          M         bsf     STATUS, RP0
                          M       endif
                          M       if (PREV_BANK == 2)
                          M         bsf     STATUS, RP0
                          M         bcf     STATUS, RP1
                          M       endif
                          M       if (PREV_BANK == 3)
                          M         bcf     STATUS, RP1
                          M       endif
                          M PREV_BANK = 1
                          M     endif
                          M 
                          M     if (((_d)    & 180h) == 100h)
                          M       if (PREV_BANK == 0)
                          M         bsf     STATUS, RP1
                          M       endif
                          M       if (PREV_BANK == 1)
                          M         bcf     STATUS, RP0
                          M         bsf     STATUS, RP1
                          M       endif
                          M       if (PREV_BANK == 3)
                          M         bcf     STATUS, RP0
                          M       endif
                          M PREV_BANK = 2
                          M     endif
                          M 
                          M     if (((_d)    & 180h) == 180h)
                          M       if (PREV_BANK == 0)
                          M         bsf     STATUS, RP0
                          M         bsf     STATUS, RP1
                          M       endif
                          M       if (PREV_BANK == 1)
                          M         bsf     STATUS, RP1
                          M       endif
                          M       if (PREV_BANK == 2)
                          M         bsf     STATUS, RP0
                          M       endif
                          M PREV_BANK = 3
                          M     endif
0240   00BE               M         movwf   _d
                          M     if ((_intBuffer) > 255)
                          M         bcf     STATUS, IRP
                          M     endif
                      00621 
                      00622 ; C:\USERS\JESSADA\DESKTOP\LED DIMMER PROJECT\PIC16F886\MB_STDIM.BAS    00300   Z00050                  
                                                    CCPR1L= d
0241                  00623 Z00050
MPASM  5.36                      MB_STDIM.ASM   5-24-2019  13:22:05         PAGE 181


LOC  OBJECT CODE     LINE SOURCE TEXT
  VALUE

                      00624         MOVE?BB _d, CCPR1L
                          M         CHK?RP  _d
                          M     if (((_d)    & 180h) == 0)
                          M       if (PREV_BANK == 1)
                          M         bcf     STATUS, RP0
                          M       endif
                          M       if (PREV_BANK == 2)
                          M         bcf     STATUS, RP1
                          M       endif
                          M       if (PREV_BANK == 3)
                          M         bcf     STATUS, RP0
                          M         bcf     STATUS, RP1
                          M       endif
  00000000                M PREV_BANK = 0
                          M     endif
                          M 
                          M     if (((_d)    & 180h) == 80h)
                          M       if (PREV_BANK == 0)
                          M         bsf     STATUS, RP0
                          M       endif
                          M       if (PREV_BANK == 2)
                          M         bsf     STATUS, RP0
                          M         bcf     STATUS, RP1
                          M       endif
                          M       if (PREV_BANK == 3)
                          M         bcf     STATUS, RP1
                          M       endif
                          M PREV_BANK = 1
                          M     endif
                          M 
                          M     if (((_d)    & 180h) == 100h)
                          M       if (PREV_BANK == 0)
                          M         bsf     STATUS, RP1
                          M       endif
                          M       if (PREV_BANK == 1)
                          M         bcf     STATUS, RP0
                          M         bsf     STATUS, RP1
                          M       endif
                          M       if (PREV_BANK == 3)
                          M         bcf     STATUS, RP0
                          M       endif
                          M PREV_BANK = 2
                          M     endif
                          M 
                          M     if (((_d)    & 180h) == 180h)
                          M       if (PREV_BANK == 0)
                          M         bsf     STATUS, RP0
                          M         bsf     STATUS, RP1
                          M       endif
                          M       if (PREV_BANK == 1)
                          M         bsf     STATUS, RP1
                          M       endif
                          M       if (PREV_BANK == 2)
MPASM  5.36                      MB_STDIM.ASM   5-24-2019  13:22:05         PAGE 182


LOC  OBJECT CODE     LINE SOURCE TEXT
  VALUE

                          M         bsf     STATUS, RP0
                          M       endif
                          M PREV_BANK = 3
                          M     endif
0241   083E               M         movf    _d,  W
                          M         CHK?RP  CCPR1L
                          M     if (((CCPR1L) & 180h) == 0)
                          M       if (PREV_BANK == 1)
                          M         bcf     STATUS, RP0
                          M       endif
                          M       if (PREV_BANK == 2)
                          M         bcf     STATUS, RP1
                          M       endif
                          M       if (PREV_BANK == 3)
                          M         bcf     STATUS, RP0
                          M         bcf     STATUS, RP1
                          M       endif
  00000000                M PREV_BANK = 0
                          M     endif
                          M 
                          M     if (((CCPR1L) & 180h) == 80h)
                          M       if (PREV_BANK == 0)
                          M         bsf     STATUS, RP0
                          M       endif
                          M       if (PREV_BANK == 2)
                          M         bsf     STATUS, RP0
                          M         bcf     STATUS, RP1
                          M       endif
                          M       if (PREV_BANK == 3)
                          M         bcf     STATUS, RP1
                          M       endif
                          M PREV_BANK = 1
                          M     endif
                          M 
                          M     if (((CCPR1L) & 180h) == 100h)
                          M       if (PREV_BANK == 0)
                          M         bsf     STATUS, RP1
                          M       endif
                          M       if (PREV_BANK == 1)
                          M         bcf     STATUS, RP0
                          M         bsf     STATUS, RP1
                          M       endif
                          M       if (PREV_BANK == 3)
                          M         bcf     STATUS, RP0
                          M       endif
                          M PREV_BANK = 2
                          M     endif
                          M 
                          M     if (((CCPR1L) & 180h) == 180h)
                          M       if (PREV_BANK == 0)
                          M         bsf     STATUS, RP0
                          M         bsf     STATUS, RP1
                          M       endif
MPASM  5.36                      MB_STDIM.ASM   5-24-2019  13:22:05         PAGE 183


LOC  OBJECT CODE     LINE SOURCE TEXT
  VALUE

                          M       if (PREV_BANK == 1)
                          M         bsf     STATUS, RP1
                          M       endif
                          M       if (PREV_BANK == 2)
                          M         bsf     STATUS, RP0
                          M       endif
                          M PREV_BANK = 3
                          M     endif
0242   0095               M         movwf   CCPR1L
                      00625 
                      00626 ; C:\USERS\JESSADA\DESKTOP\LED DIMMER PROJECT\PIC16F886\MB_STDIM.BAS    00302   Z00051                  
                                                    hserout [d]
0243                  00627 Z00051
                      00628         HSEROUT?B       _d
                          M         MOVE?BA _d
                          M         CHK?RP  _d
                          M     if (((_d)    & 180h) == 0)
                          M       if (PREV_BANK == 1)
                          M         bcf     STATUS, RP0
                          M       endif
                          M       if (PREV_BANK == 2)
                          M         bcf     STATUS, RP1
                          M       endif
                          M       if (PREV_BANK == 3)
                          M         bcf     STATUS, RP0
                          M         bcf     STATUS, RP1
                          M       endif
  00000000                M PREV_BANK = 0
                          M     endif
                          M 
                          M     if (((_d)    & 180h) == 80h)
                          M       if (PREV_BANK == 0)
                          M         bsf     STATUS, RP0
                          M       endif
                          M       if (PREV_BANK == 2)
                          M         bsf     STATUS, RP0
                          M         bcf     STATUS, RP1
                          M       endif
                          M       if (PREV_BANK == 3)
                          M         bcf     STATUS, RP1
                          M       endif
                          M PREV_BANK = 1
                          M     endif
                          M 
                          M     if (((_d)    & 180h) == 100h)
                          M       if (PREV_BANK == 0)
                          M         bsf     STATUS, RP1
                          M       endif
                          M       if (PREV_BANK == 1)
                          M         bcf     STATUS, RP0
                          M         bsf     STATUS, RP1
                          M       endif
                          M       if (PREV_BANK == 3)
MPASM  5.36                      MB_STDIM.ASM   5-24-2019  13:22:05         PAGE 184


LOC  OBJECT CODE     LINE SOURCE TEXT
  VALUE

                          M         bcf     STATUS, RP0
                          M       endif
                          M PREV_BANK = 2
                          M     endif
                          M 
                          M     if (((_d)    & 180h) == 180h)
                          M       if (PREV_BANK == 0)
                          M         bsf     STATUS, RP0
                          M         bsf     STATUS, RP1
                          M       endif
                          M       if (PREV_BANK == 1)
                          M         bsf     STATUS, RP1
                          M       endif
                          M       if (PREV_BANK == 2)
                          M         bsf     STATUS, RP0
                          M       endif
                          M PREV_BANK = 3
                          M     endif
0243   083E               M         movf    _d,  W
                          M         L?CALL  HSEROUT
                          M         RST?RP
                          M     if ((PREV_BANK & 1) != 0)
                          M         bcf     STATUS, RP0
                          M     endif
                          M     if ((PREV_BANK & 2) != 0)
                          M         bcf     STATUS, RP1
                          M     endif
  00000000                M PREV_BANK = 0
                          M 
                          M     ifdef USE_LINKER
                          M       if (CODE_SIZE > 2)
                          M         pagesel HSEROUT
                          M       endif
                          M     else
                          M       if ((HSEROUT) < 1)
                          M         if (CODE_SIZE > 2)
                          M           if (((HSEROUT) & 800h) == 0)
                          M         bcf     PCLATH, 3
                          M         else
                          M         bsf     PCLATH, 3
                          M         endif
                          M         endif
                          M         if (CODE_SIZE > 4)
                          M           if (((HSEROUT) & 1000h) == 0)
                          M         bcf     PCLATH, 4
                          M           else
                          M         bsf     PCLATH, 4
                          M           endif
                          M         endif
                          M       else
                          M         if ((HSEROUT) > $)
                          M           if (CODE_SIZE > 2)
                          M             if (((HSEROUT) & 800h) == 0)
MPASM  5.36                      MB_STDIM.ASM   5-24-2019  13:22:05         PAGE 185


LOC  OBJECT CODE     LINE SOURCE TEXT
  VALUE

                          M         bcf     PCLATH, 3
                          M             else
                          M         bsf     PCLATH, 3
                          M             endif
                          M           endif
                          M           if (CODE_SIZE > 4)
                          M             if (((HSEROUT) & 1000h) == 0)
                          M         bcf     PCLATH, 4
                          M             else
                          M         bsf     PCLATH, 4
                          M             endif
                          M           endif
                          M         else
                          M           if (CODE_SIZE > 2)
                          M             if (((HSEROUT) & 1800h) == 0)
0244   018A               M         clrf    PCLATH
                          M             else
                          M               if (((HSEROUT) & 800h) == 0)
                          M         bcf     PCLATH, 3
                          M               else
                          M         bsf     PCLATH, 3
                          M               endif
                          M               if (CODE_SIZE > 4)
                          M                 if (((HSEROUT) & 1000h) == 0)
                          M         bcf     PCLATH, 4
                          M                 else
                          M         bsf     PCLATH, 4
                          M                 endif   
                          M               endif
                          M             endif
                          M           endif
                          M         endif
                          M       endif
                          M     endif
                          M 
0245   2027               M         call    HSEROUT
                      00629 
                      00630 ; C:\USERS\JESSADA\DESKTOP\LED DIMMER PROJECT\PIC16F886\MB_STDIM.BAS    00303   Z00052                  
                                            next j
0246                  00631 Z00052
                      00632         NEXT?BCL        _j, 001h, L00017
                          M     if ((001h) == 1)
                          M         CHK?RP  _j
                          M     if (((_j)    & 180h) == 0)
                          M       if (PREV_BANK == 1)
                          M         bcf     STATUS, RP0
                          M       endif
                          M       if (PREV_BANK == 2)
                          M         bcf     STATUS, RP1
                          M       endif
                          M       if (PREV_BANK == 3)
                          M         bcf     STATUS, RP0
                          M         bcf     STATUS, RP1
MPASM  5.36                      MB_STDIM.ASM   5-24-2019  13:22:05         PAGE 186


LOC  OBJECT CODE     LINE SOURCE TEXT
  VALUE

                          M       endif
  00000000                M PREV_BANK = 0
                          M     endif
                          M 
                          M     if (((_j)    & 180h) == 80h)
                          M       if (PREV_BANK == 0)
                          M         bsf     STATUS, RP0
                          M       endif
                          M       if (PREV_BANK == 2)
                          M         bsf     STATUS, RP0
                          M         bcf     STATUS, RP1
                          M       endif
                          M       if (PREV_BANK == 3)
                          M         bcf     STATUS, RP1
                          M       endif
                          M PREV_BANK = 1
                          M     endif
                          M 
                          M     if (((_j)    & 180h) == 100h)
                          M       if (PREV_BANK == 0)
                          M         bsf     STATUS, RP1
                          M       endif
                          M       if (PREV_BANK == 1)
                          M         bcf     STATUS, RP0
                          M         bsf     STATUS, RP1
                          M       endif
                          M       if (PREV_BANK == 3)
                          M         bcf     STATUS, RP0
                          M       endif
                          M PREV_BANK = 2
                          M     endif
                          M 
                          M     if (((_j)    & 180h) == 180h)
                          M       if (PREV_BANK == 0)
                          M         bsf     STATUS, RP0
                          M         bsf     STATUS, RP1
                          M       endif
                          M       if (PREV_BANK == 1)
                          M         bsf     STATUS, RP1
                          M       endif
                          M       if (PREV_BANK == 2)
                          M         bsf     STATUS, RP0
                          M       endif
                          M PREV_BANK = 3
                          M     endif
                          M       if ((PREV_BANK == 0) & (CODE_SIZE <= 2))
                          M         incfsz  _j,  F
                          M         goto    L00017
                          M       else
0246   0AC4               M         incf    _j,  F
                          M         BIT?GOTO 0, STATUS, Z, L00017
                          M     ifdef USE_LINKER
                          M         CLRWDT?
MPASM  5.36                      MB_STDIM.ASM   5-24-2019  13:22:05         PAGE 187


LOC  OBJECT CODE     LINE SOURCE TEXT
  VALUE

                          M     else
                          M       if ($ == (L00017))
                          M         CLRWDT?
                          M       endif
                          M     endif
                          M 
                          M     ifdef USE_LINKER
                          M       if (CODE_SIZE > 2)
                          M         pagesel L00017
                          M       endif
                          M     else
                          M       if (CODE_SIZE > 2)
                          M         if (((L00017) & 800h) == 0)
0247   118A               M         bcf     PCLATH, 3
                          M         else
                          M         bsf     PCLATH, 3
                          M         endif
                          M       endif
                          M       if (CODE_SIZE > 4)
                          M         if (((L00017) & 1000h) == 0)
0248   120A               M         bcf     PCLATH, 4
                          M         else
                          M         bsf     PCLATH, 4
                          M         endif
                          M       endif
                          M     endif
                          M 
                          M     if (((STATUS) & 0ff80h) != 0)
                          M         CHK?RP  STATUS
                          M         bcf     STATUS, DC
                          M       if ((0)      == 0)
                          M         btfss   STATUS, Z
                          M       else
                          M         btfsc   STATUS, Z
                          M       endif
                          M         bsf     STATUS, DC
                          M         RST?RP
                          M         btfsc   STATUS, DC
                          M     else
                          M         RST?RP
                          M     if ((PREV_BANK & 1) != 0)
                          M         bcf     STATUS, RP0
                          M     endif
                          M     if ((PREV_BANK & 2) != 0)
                          M         bcf     STATUS, RP1
                          M     endif
  00000000                M PREV_BANK = 0
                          M       if ((0)      == 0)
0249   1D03               M         btfss   STATUS, Z
                          M       else
                          M         btfsc   STATUS, Z
                          M       endif
                          M     endif
MPASM  5.36                      MB_STDIM.ASM   5-24-2019  13:22:05         PAGE 188


LOC  OBJECT CODE     LINE SOURCE TEXT
  VALUE

                          M 
024A   2A29               M         goto    L00017
                          M       endif
                          M     else
                          M         movlw   001h
                          M         CHK?RP  _j
                          M         addwf   _j,  F
                          M       if ((001h) <= 255)
                          M         BIT?GOTO 0, STATUS, C, L00017
                          M       endif
                          M     endif
                      00633         LABEL?L L00018  
                          M         RST?RP
                          M     if ((PREV_BANK & 1) != 0)
                          M         bcf     STATUS, RP0
                          M     endif
                          M     if ((PREV_BANK & 2) != 0)
                          M         bcf     STATUS, RP1
                          M     endif
  00000000                M PREV_BANK = 0
                          M     ifdef PM_USED
                          M         LALL
                          M L00018
                          M         XALL
                          M     else
024B                      M L00018
                          M     endif
                      00634 
                      00635 ; C:\USERS\JESSADA\DESKTOP\LED DIMMER PROJECT\PIC16F886\MB_STDIM.BAS    00306   Z00053                  
                                    endif
024B                  00636 Z00053
                      00637         LABEL?L L00015  
                          M         RST?RP
                          M     if ((PREV_BANK & 1) != 0)
                          M         bcf     STATUS, RP0
                          M     endif
                          M     if ((PREV_BANK & 2) != 0)
                          M         bcf     STATUS, RP1
                          M     endif
  00000000                M PREV_BANK = 0
                          M     ifdef PM_USED
                          M         LALL
                          M L00015
                          M         XALL
                          M     else
024B                      M L00015
                          M     endif
                      00638 
                      00639 ; C:\USERS\JESSADA\DESKTOP\LED DIMMER PROJECT\PIC16F886\MB_STDIM.BAS    00310   Z00054                  
                            endif
024B                  00640 Z00054
                      00641         LABEL?L L00013  
                          M         RST?RP
MPASM  5.36                      MB_STDIM.ASM   5-24-2019  13:22:05         PAGE 189


LOC  OBJECT CODE     LINE SOURCE TEXT
  VALUE

                          M     if ((PREV_BANK & 1) != 0)
                          M         bcf     STATUS, RP0
                          M     endif
                          M     if ((PREV_BANK & 2) != 0)
                          M         bcf     STATUS, RP1
                          M     endif
  00000000                M PREV_BANK = 0
                          M     ifdef PM_USED
                          M         LALL
                          M L00013
                          M         XALL
                          M     else
024B                      M L00013
                          M     endif
                      00642 
                      00643 ; C:\USERS\JESSADA\DESKTOP\LED DIMMER PROJECT\PIC16F886\MB_STDIM.BAS    00312   Z00055                  
                            goto start
024B                  00644 Z00055
                      00645         GOTO?L  _start
                          M         L?GOTO  _start
                          M     ifdef USE_LINKER
                          M         CLRWDT?
                          M     else
                          M       if ($ == (_start))
                          M         CLRWDT?
                          M       endif
                          M     endif
                          M 
                          M         RST?RP
                          M     if ((PREV_BANK & 1) != 0)
                          M         bcf     STATUS, RP0
                          M     endif
                          M     if ((PREV_BANK & 2) != 0)
                          M         bcf     STATUS, RP1
                          M     endif
  00000000                M PREV_BANK = 0
                          M 
                          M     ifdef USE_LINKER
                          M       if (CODE_SIZE > 2)
                          M         pagesel _start
                          M       endif
                          M     else
                          M       if ((_start) < 1)
                          M         if (CODE_SIZE > 2)
                          M           if (((_start) & 800h) == 0)
                          M         bcf     PCLATH, 3
                          M           else
                          M         bsf     PCLATH, 3
                          M           endif
                          M         endif
                          M         if (CODE_SIZE > 4)
                          M           if (((_start) & 1000h) == 0)
                          M         bcf     PCLATH, 4
MPASM  5.36                      MB_STDIM.ASM   5-24-2019  13:22:05         PAGE 190


LOC  OBJECT CODE     LINE SOURCE TEXT
  VALUE

                          M           else
                          M         bsf     PCLATH, 4
                          M           endif
                          M         endif
                          M       else
                          M         if ((_start) > $)
                          M           if (CODE_SIZE > 2)
                          M             if (((_start) & 800h) == 0)
                          M         bcf     PCLATH, 3
                          M             else
                          M         bsf     PCLATH, 3
                          M             endif
                          M           endif
                          M           if (CODE_SIZE > 4)
                          M             if (((_start) & 1000h) == 0)
                          M         bcf     PCLATH, 4
                          M             else
                          M         bsf     PCLATH, 4
                          M             endif
                          M           endif
                          M         else
                          M           if (CODE_SIZE > 2)
                          M             if (((_start) & 1800h) == 0)
024B   018A               M         clrf    PCLATH
                          M             else
                          M               if (((_start) & 800h) == 0)
                          M         bcf     PCLATH, 3
                          M               else
                          M         bsf     PCLATH, 3
                          M               endif
                          M               if (CODE_SIZE > 4)
                          M                 if (((_start) & 1000h) == 0)
                          M         bcf     PCLATH, 4
                          M                 else
                          M         bsf     PCLATH, 4
                          M                 endif
                          M               endif
                          M             endif
                          M           endif
                          M         endif
                          M       endif
                          M     endif
                          M 
024C   293C               M         goto    _start
                      00646 
                      00647 ; C:\USERS\JESSADA\DESKTOP\LED DIMMER PROJECT\PIC16F886\MB_STDIM.BAS    00317   Z00056  cktmOut:
024D                  00648 Z00056
                      00649 
                      00650         LABEL?L _cktmOut        
                          M         RST?RP
                          M     if ((PREV_BANK & 1) != 0)
                          M         bcf     STATUS, RP0
                          M     endif
MPASM  5.36                      MB_STDIM.ASM   5-24-2019  13:22:05         PAGE 191


LOC  OBJECT CODE     LINE SOURCE TEXT
  VALUE

                          M     if ((PREV_BANK & 2) != 0)
                          M         bcf     STATUS, RP1
                          M     endif
  00000000                M PREV_BANK = 0
                          M     ifdef PM_USED
                          M         LALL
                          M _cktmOut
                          M         XALL
                          M     else
024D                      M _cktmOut
                          M     endif
                      00651 
                      00652 ; C:\USERS\JESSADA\DESKTOP\LED DIMMER PROJECT\PIC16F886\MB_STDIM.BAS    00318   Z00057          Rpt=0 :i
                            f (TMR1IF) then Rpt=1
024D                  00653 Z00057
                      00654         MOVE?CB 000h, _Rpt
                          M         CHK?RP  _Rpt
                          M     if (((_Rpt)  & 180h) == 0)
                          M       if (PREV_BANK == 1)
                          M         bcf     STATUS, RP0
                          M       endif
                          M       if (PREV_BANK == 2)
                          M         bcf     STATUS, RP1
                          M       endif
                          M       if (PREV_BANK == 3)
                          M         bcf     STATUS, RP0
                          M         bcf     STATUS, RP1
                          M       endif
  00000000                M PREV_BANK = 0
                          M     endif
                          M 
                          M     if (((_Rpt)  & 180h) == 80h)
                          M       if (PREV_BANK == 0)
                          M         bsf     STATUS, RP0
                          M       endif
                          M       if (PREV_BANK == 2)
                          M         bsf     STATUS, RP0
                          M         bcf     STATUS, RP1
                          M       endif
                          M       if (PREV_BANK == 3)
                          M         bcf     STATUS, RP1
                          M       endif
                          M PREV_BANK = 1
                          M     endif
                          M 
                          M     if (((_Rpt)  & 180h) == 100h)
                          M       if (PREV_BANK == 0)
                          M         bsf     STATUS, RP1
                          M       endif
                          M       if (PREV_BANK == 1)
                          M         bcf     STATUS, RP0
                          M         bsf     STATUS, RP1
                          M       endif
MPASM  5.36                      MB_STDIM.ASM   5-24-2019  13:22:05         PAGE 192


LOC  OBJECT CODE     LINE SOURCE TEXT
  VALUE

                          M       if (PREV_BANK == 3)
                          M         bcf     STATUS, RP0
                          M       endif
                          M PREV_BANK = 2
                          M     endif
                          M 
                          M     if (((_Rpt)  & 180h) == 180h)
                          M       if (PREV_BANK == 0)
                          M         bsf     STATUS, RP0
                          M         bsf     STATUS, RP1
                          M       endif
                          M       if (PREV_BANK == 1)
                          M         bsf     STATUS, RP1
                          M       endif
                          M       if (PREV_BANK == 2)
                          M         bsf     STATUS, RP0
                          M       endif
                          M PREV_BANK = 3
                          M     endif
                          M     if (low (000h) == 0)
024D   01CA               M         clrf    _Rpt
                          M     else
                          M         movlw   low (000h)
                          M         movwf   _Rpt
                          M     endif
                      00655 
                      00656 ; C:\USERS\JESSADA\DESKTOP\LED DIMMER PROJECT\PIC16F886\MB_STDIM.BAS    00318   Z00058          Rpt=0 :i
                            f (TMR1IF) then Rpt=1
024E                  00657 Z00058
                      00658         CMPF?TL _TMR1IF, L00019
                          M         CLRWDT?
                          M     ifndef NO_CLRWDT
024E   0064               M         clrwdt
                          M     endif
                          M         BIT?GOTO 0, PIR1,  000h,  L00019
                          M     ifdef USE_LINKER
                          M         CLRWDT?
                          M     else
                          M       if ($ == (L00019))
                          M         CLRWDT?
                          M       endif
                          M     endif
                          M 
                          M     ifdef USE_LINKER
                          M       if (CODE_SIZE > 2)
                          M         pagesel L00019
                          M       endif
                          M     else
                          M       if (CODE_SIZE > 2)
                          M         if (((L00019) & 800h) == 0)
024F   118A               M         bcf     PCLATH, 3
                          M         else
                          M         bsf     PCLATH, 3
MPASM  5.36                      MB_STDIM.ASM   5-24-2019  13:22:05         PAGE 193


LOC  OBJECT CODE     LINE SOURCE TEXT
  VALUE

                          M         endif
                          M       endif
                          M       if (CODE_SIZE > 4)
                          M         if (((L00019) & 1000h) == 0)
0250   120A               M         bcf     PCLATH, 4
                          M         else
                          M         bsf     PCLATH, 4
                          M         endif
                          M       endif
                          M     endif
                          M 
                          M     if (((PIR1)  & 0ff80h) != 0)
                          M         CHK?RP  PIR1
                          M         bcf     STATUS, DC
                          M       if ((0)      == 0)
                          M         btfss   PIR1,  000h
                          M       else
                          M         btfsc   PIR1,  000h
                          M       endif
                          M         bsf     STATUS, DC
                          M         RST?RP
                          M         btfsc   STATUS, DC
                          M     else
                          M         RST?RP
                          M     if ((PREV_BANK & 1) != 0)
                          M         bcf     STATUS, RP0
                          M     endif
                          M     if ((PREV_BANK & 2) != 0)
                          M         bcf     STATUS, RP1
                          M     endif
  00000000                M PREV_BANK = 0
                          M       if ((0)      == 0)
0251   1C0C               M         btfss   PIR1,  000h
                          M       else
                          M         btfsc   PIR1,  000h
                          M       endif
                          M     endif
                          M 
0252   2A55               M         goto    L00019
                      00659         MOVE?CB 001h, _Rpt
                          M         CHK?RP  _Rpt
                          M     if (((_Rpt)  & 180h) == 0)
                          M       if (PREV_BANK == 1)
                          M         bcf     STATUS, RP0
                          M       endif
                          M       if (PREV_BANK == 2)
                          M         bcf     STATUS, RP1
                          M       endif
                          M       if (PREV_BANK == 3)
                          M         bcf     STATUS, RP0
                          M         bcf     STATUS, RP1
                          M       endif
  00000000                M PREV_BANK = 0
MPASM  5.36                      MB_STDIM.ASM   5-24-2019  13:22:05         PAGE 194


LOC  OBJECT CODE     LINE SOURCE TEXT
  VALUE

                          M     endif
                          M 
                          M     if (((_Rpt)  & 180h) == 80h)
                          M       if (PREV_BANK == 0)
                          M         bsf     STATUS, RP0
                          M       endif
                          M       if (PREV_BANK == 2)
                          M         bsf     STATUS, RP0
                          M         bcf     STATUS, RP1
                          M       endif
                          M       if (PREV_BANK == 3)
                          M         bcf     STATUS, RP1
                          M       endif
                          M PREV_BANK = 1
                          M     endif
                          M 
                          M     if (((_Rpt)  & 180h) == 100h)
                          M       if (PREV_BANK == 0)
                          M         bsf     STATUS, RP1
                          M       endif
                          M       if (PREV_BANK == 1)
                          M         bcf     STATUS, RP0
                          M         bsf     STATUS, RP1
                          M       endif
                          M       if (PREV_BANK == 3)
                          M         bcf     STATUS, RP0
                          M       endif
                          M PREV_BANK = 2
                          M     endif
                          M 
                          M     if (((_Rpt)  & 180h) == 180h)
                          M       if (PREV_BANK == 0)
                          M         bsf     STATUS, RP0
                          M         bsf     STATUS, RP1
                          M       endif
                          M       if (PREV_BANK == 1)
                          M         bsf     STATUS, RP1
                          M       endif
                          M       if (PREV_BANK == 2)
                          M         bsf     STATUS, RP0
                          M       endif
                          M PREV_BANK = 3
                          M     endif
                          M     if (low (001h) == 0)
                          M         clrf    _Rpt
                          M     else
0253   3001               M         movlw   low (001h)
0254   00CA               M         movwf   _Rpt
                          M     endif
                      00660         LABEL?L L00019  
                          M         RST?RP
                          M     if ((PREV_BANK & 1) != 0)
                          M         bcf     STATUS, RP0
MPASM  5.36                      MB_STDIM.ASM   5-24-2019  13:22:05         PAGE 195


LOC  OBJECT CODE     LINE SOURCE TEXT
  VALUE

                          M     endif
                          M     if ((PREV_BANK & 2) != 0)
                          M         bcf     STATUS, RP1
                          M     endif
  00000000                M PREV_BANK = 0
                          M     ifdef PM_USED
                          M         LALL
                          M L00019
                          M         XALL
                          M     else
0255                      M L00019
                          M     endif
                      00661 
                      00662 ; C:\USERS\JESSADA\DESKTOP\LED DIMMER PROJECT\PIC16F886\MB_STDIM.BAS    00319   Z00059          debug 13
                            ,10,"found TMR1IF", TMR1IF, 13,10       
0255                  00663 Z00059
                      00664         DEBUG?C 00Dh
0255   300D               M         movlw   00Dh
                          M         L?CALL  DEBUG
                          M         RST?RP
                          M     if ((PREV_BANK & 1) != 0)
                          M         bcf     STATUS, RP0
                          M     endif
                          M     if ((PREV_BANK & 2) != 0)
                          M         bcf     STATUS, RP1
                          M     endif
  00000000                M PREV_BANK = 0
                          M 
                          M     ifdef USE_LINKER
                          M       if (CODE_SIZE > 2)
                          M         pagesel DEBUG
                          M       endif
                          M     else
                          M       if ((DEBUG) < 1)
                          M         if (CODE_SIZE > 2)
                          M           if (((DEBUG) & 800h) == 0)
                          M         bcf     PCLATH, 3
                          M         else
                          M         bsf     PCLATH, 3
                          M         endif
                          M         endif
                          M         if (CODE_SIZE > 4)
                          M           if (((DEBUG) & 1000h) == 0)
                          M         bcf     PCLATH, 4
                          M           else
                          M         bsf     PCLATH, 4
                          M           endif
                          M         endif
                          M       else
                          M         if ((DEBUG) > $)
                          M           if (CODE_SIZE > 2)
                          M             if (((DEBUG) & 800h) == 0)
                          M         bcf     PCLATH, 3
MPASM  5.36                      MB_STDIM.ASM   5-24-2019  13:22:05         PAGE 196


LOC  OBJECT CODE     LINE SOURCE TEXT
  VALUE

                          M             else
                          M         bsf     PCLATH, 3
                          M             endif
                          M           endif
                          M           if (CODE_SIZE > 4)
                          M             if (((DEBUG) & 1000h) == 0)
                          M         bcf     PCLATH, 4
                          M             else
                          M         bsf     PCLATH, 4
                          M             endif
                          M           endif
                          M         else
                          M           if (CODE_SIZE > 2)
                          M             if (((DEBUG) & 1800h) == 0)
0256   018A               M         clrf    PCLATH
                          M             else
                          M               if (((DEBUG) & 800h) == 0)
                          M         bcf     PCLATH, 3
                          M               else
                          M         bsf     PCLATH, 3
                          M               endif
                          M               if (CODE_SIZE > 4)
                          M                 if (((DEBUG) & 1000h) == 0)
                          M         bcf     PCLATH, 4
                          M                 else
                          M         bsf     PCLATH, 4
                          M                 endif   
                          M               endif
                          M             endif
                          M           endif
                          M         endif
                          M       endif
                          M     endif
                          M 
0257   200D               M         call    DEBUG
                      00665         DEBUG?C 00Ah
0258   300A               M         movlw   00Ah
                          M         L?CALL  DEBUG
                          M         RST?RP
                          M     if ((PREV_BANK & 1) != 0)
                          M         bcf     STATUS, RP0
                          M     endif
                          M     if ((PREV_BANK & 2) != 0)
                          M         bcf     STATUS, RP1
                          M     endif
  00000000                M PREV_BANK = 0
                          M 
                          M     ifdef USE_LINKER
                          M       if (CODE_SIZE > 2)
                          M         pagesel DEBUG
                          M       endif
                          M     else
                          M       if ((DEBUG) < 1)
MPASM  5.36                      MB_STDIM.ASM   5-24-2019  13:22:05         PAGE 197


LOC  OBJECT CODE     LINE SOURCE TEXT
  VALUE

                          M         if (CODE_SIZE > 2)
                          M           if (((DEBUG) & 800h) == 0)
                          M         bcf     PCLATH, 3
                          M         else
                          M         bsf     PCLATH, 3
                          M         endif
                          M         endif
                          M         if (CODE_SIZE > 4)
                          M           if (((DEBUG) & 1000h) == 0)
                          M         bcf     PCLATH, 4
                          M           else
                          M         bsf     PCLATH, 4
                          M           endif
                          M         endif
                          M       else
                          M         if ((DEBUG) > $)
                          M           if (CODE_SIZE > 2)
                          M             if (((DEBUG) & 800h) == 0)
                          M         bcf     PCLATH, 3
                          M             else
                          M         bsf     PCLATH, 3
                          M             endif
                          M           endif
                          M           if (CODE_SIZE > 4)
                          M             if (((DEBUG) & 1000h) == 0)
                          M         bcf     PCLATH, 4
                          M             else
                          M         bsf     PCLATH, 4
                          M             endif
                          M           endif
                          M         else
                          M           if (CODE_SIZE > 2)
                          M             if (((DEBUG) & 1800h) == 0)
0259   018A               M         clrf    PCLATH
                          M             else
                          M               if (((DEBUG) & 800h) == 0)
                          M         bcf     PCLATH, 3
                          M               else
                          M         bsf     PCLATH, 3
                          M               endif
                          M               if (CODE_SIZE > 4)
                          M                 if (((DEBUG) & 1000h) == 0)
                          M         bcf     PCLATH, 4
                          M                 else
                          M         bsf     PCLATH, 4
                          M                 endif   
                          M               endif
                          M             endif
                          M           endif
                          M         endif
                          M       endif
                          M     endif
                          M 
MPASM  5.36                      MB_STDIM.ASM   5-24-2019  13:22:05         PAGE 198


LOC  OBJECT CODE     LINE SOURCE TEXT
  VALUE

025A   200D               M         call    DEBUG
                      00666         DEBUG?C 066h
025B   3066               M         movlw   066h
                          M         L?CALL  DEBUG
                          M         RST?RP
                          M     if ((PREV_BANK & 1) != 0)
                          M         bcf     STATUS, RP0
                          M     endif
                          M     if ((PREV_BANK & 2) != 0)
                          M         bcf     STATUS, RP1
                          M     endif
  00000000                M PREV_BANK = 0
                          M 
                          M     ifdef USE_LINKER
                          M       if (CODE_SIZE > 2)
                          M         pagesel DEBUG
                          M       endif
                          M     else
                          M       if ((DEBUG) < 1)
                          M         if (CODE_SIZE > 2)
                          M           if (((DEBUG) & 800h) == 0)
                          M         bcf     PCLATH, 3
                          M         else
                          M         bsf     PCLATH, 3
                          M         endif
                          M         endif
                          M         if (CODE_SIZE > 4)
                          M           if (((DEBUG) & 1000h) == 0)
                          M         bcf     PCLATH, 4
                          M           else
                          M         bsf     PCLATH, 4
                          M           endif
                          M         endif
                          M       else
                          M         if ((DEBUG) > $)
                          M           if (CODE_SIZE > 2)
                          M             if (((DEBUG) & 800h) == 0)
                          M         bcf     PCLATH, 3
                          M             else
                          M         bsf     PCLATH, 3
                          M             endif
                          M           endif
                          M           if (CODE_SIZE > 4)
                          M             if (((DEBUG) & 1000h) == 0)
                          M         bcf     PCLATH, 4
                          M             else
                          M         bsf     PCLATH, 4
                          M             endif
                          M           endif
                          M         else
                          M           if (CODE_SIZE > 2)
                          M             if (((DEBUG) & 1800h) == 0)
025C   018A               M         clrf    PCLATH
MPASM  5.36                      MB_STDIM.ASM   5-24-2019  13:22:05         PAGE 199


LOC  OBJECT CODE     LINE SOURCE TEXT
  VALUE

                          M             else
                          M               if (((DEBUG) & 800h) == 0)
                          M         bcf     PCLATH, 3
                          M               else
                          M         bsf     PCLATH, 3
                          M               endif
                          M               if (CODE_SIZE > 4)
                          M                 if (((DEBUG) & 1000h) == 0)
                          M         bcf     PCLATH, 4
                          M                 else
                          M         bsf     PCLATH, 4
                          M                 endif   
                          M               endif
                          M             endif
                          M           endif
                          M         endif
                          M       endif
                          M     endif
                          M 
025D   200D               M         call    DEBUG
                      00667         DEBUG?C 06Fh
025E   306F               M         movlw   06Fh
                          M         L?CALL  DEBUG
                          M         RST?RP
                          M     if ((PREV_BANK & 1) != 0)
                          M         bcf     STATUS, RP0
                          M     endif
                          M     if ((PREV_BANK & 2) != 0)
                          M         bcf     STATUS, RP1
                          M     endif
  00000000                M PREV_BANK = 0
                          M 
                          M     ifdef USE_LINKER
                          M       if (CODE_SIZE > 2)
                          M         pagesel DEBUG
                          M       endif
                          M     else
                          M       if ((DEBUG) < 1)
                          M         if (CODE_SIZE > 2)
                          M           if (((DEBUG) & 800h) == 0)
                          M         bcf     PCLATH, 3
                          M         else
                          M         bsf     PCLATH, 3
                          M         endif
                          M         endif
                          M         if (CODE_SIZE > 4)
                          M           if (((DEBUG) & 1000h) == 0)
                          M         bcf     PCLATH, 4
                          M           else
                          M         bsf     PCLATH, 4
                          M           endif
                          M         endif
                          M       else
MPASM  5.36                      MB_STDIM.ASM   5-24-2019  13:22:05         PAGE 200


LOC  OBJECT CODE     LINE SOURCE TEXT
  VALUE

                          M         if ((DEBUG) > $)
                          M           if (CODE_SIZE > 2)
                          M             if (((DEBUG) & 800h) == 0)
                          M         bcf     PCLATH, 3
                          M             else
                          M         bsf     PCLATH, 3
                          M             endif
                          M           endif
                          M           if (CODE_SIZE > 4)
                          M             if (((DEBUG) & 1000h) == 0)
                          M         bcf     PCLATH, 4
                          M             else
                          M         bsf     PCLATH, 4
                          M             endif
                          M           endif
                          M         else
                          M           if (CODE_SIZE > 2)
                          M             if (((DEBUG) & 1800h) == 0)
025F   018A               M         clrf    PCLATH
                          M             else
                          M               if (((DEBUG) & 800h) == 0)
                          M         bcf     PCLATH, 3
                          M               else
                          M         bsf     PCLATH, 3
                          M               endif
                          M               if (CODE_SIZE > 4)
                          M                 if (((DEBUG) & 1000h) == 0)
                          M         bcf     PCLATH, 4
                          M                 else
                          M         bsf     PCLATH, 4
                          M                 endif   
                          M               endif
                          M             endif
                          M           endif
                          M         endif
                          M       endif
                          M     endif
                          M 
0260   200D               M         call    DEBUG
                      00668         DEBUG?C 075h
0261   3075               M         movlw   075h
                          M         L?CALL  DEBUG
                          M         RST?RP
                          M     if ((PREV_BANK & 1) != 0)
                          M         bcf     STATUS, RP0
                          M     endif
                          M     if ((PREV_BANK & 2) != 0)
                          M         bcf     STATUS, RP1
                          M     endif
  00000000                M PREV_BANK = 0
                          M 
                          M     ifdef USE_LINKER
                          M       if (CODE_SIZE > 2)
MPASM  5.36                      MB_STDIM.ASM   5-24-2019  13:22:05         PAGE 201


LOC  OBJECT CODE     LINE SOURCE TEXT
  VALUE

                          M         pagesel DEBUG
                          M       endif
                          M     else
                          M       if ((DEBUG) < 1)
                          M         if (CODE_SIZE > 2)
                          M           if (((DEBUG) & 800h) == 0)
                          M         bcf     PCLATH, 3
                          M         else
                          M         bsf     PCLATH, 3
                          M         endif
                          M         endif
                          M         if (CODE_SIZE > 4)
                          M           if (((DEBUG) & 1000h) == 0)
                          M         bcf     PCLATH, 4
                          M           else
                          M         bsf     PCLATH, 4
                          M           endif
                          M         endif
                          M       else
                          M         if ((DEBUG) > $)
                          M           if (CODE_SIZE > 2)
                          M             if (((DEBUG) & 800h) == 0)
                          M         bcf     PCLATH, 3
                          M             else
                          M         bsf     PCLATH, 3
                          M             endif
                          M           endif
                          M           if (CODE_SIZE > 4)
                          M             if (((DEBUG) & 1000h) == 0)
                          M         bcf     PCLATH, 4
                          M             else
                          M         bsf     PCLATH, 4
                          M             endif
                          M           endif
                          M         else
                          M           if (CODE_SIZE > 2)
                          M             if (((DEBUG) & 1800h) == 0)
0262   018A               M         clrf    PCLATH
                          M             else
                          M               if (((DEBUG) & 800h) == 0)
                          M         bcf     PCLATH, 3
                          M               else
                          M         bsf     PCLATH, 3
                          M               endif
                          M               if (CODE_SIZE > 4)
                          M                 if (((DEBUG) & 1000h) == 0)
                          M         bcf     PCLATH, 4
                          M                 else
                          M         bsf     PCLATH, 4
                          M                 endif   
                          M               endif
                          M             endif
                          M           endif
MPASM  5.36                      MB_STDIM.ASM   5-24-2019  13:22:05         PAGE 202


LOC  OBJECT CODE     LINE SOURCE TEXT
  VALUE

                          M         endif
                          M       endif
                          M     endif
                          M 
0263   200D               M         call    DEBUG
                      00669         DEBUG?C 06Eh
0264   306E               M         movlw   06Eh
                          M         L?CALL  DEBUG
                          M         RST?RP
                          M     if ((PREV_BANK & 1) != 0)
                          M         bcf     STATUS, RP0
                          M     endif
                          M     if ((PREV_BANK & 2) != 0)
                          M         bcf     STATUS, RP1
                          M     endif
  00000000                M PREV_BANK = 0
                          M 
                          M     ifdef USE_LINKER
                          M       if (CODE_SIZE > 2)
                          M         pagesel DEBUG
                          M       endif
                          M     else
                          M       if ((DEBUG) < 1)
                          M         if (CODE_SIZE > 2)
                          M           if (((DEBUG) & 800h) == 0)
                          M         bcf     PCLATH, 3
                          M         else
                          M         bsf     PCLATH, 3
                          M         endif
                          M         endif
                          M         if (CODE_SIZE > 4)
                          M           if (((DEBUG) & 1000h) == 0)
                          M         bcf     PCLATH, 4
                          M           else
                          M         bsf     PCLATH, 4
                          M           endif
                          M         endif
                          M       else
                          M         if ((DEBUG) > $)
                          M           if (CODE_SIZE > 2)
                          M             if (((DEBUG) & 800h) == 0)
                          M         bcf     PCLATH, 3
                          M             else
                          M         bsf     PCLATH, 3
                          M             endif
                          M           endif
                          M           if (CODE_SIZE > 4)
                          M             if (((DEBUG) & 1000h) == 0)
                          M         bcf     PCLATH, 4
                          M             else
                          M         bsf     PCLATH, 4
                          M             endif
                          M           endif
MPASM  5.36                      MB_STDIM.ASM   5-24-2019  13:22:05         PAGE 203


LOC  OBJECT CODE     LINE SOURCE TEXT
  VALUE

                          M         else
                          M           if (CODE_SIZE > 2)
                          M             if (((DEBUG) & 1800h) == 0)
0265   018A               M         clrf    PCLATH
                          M             else
                          M               if (((DEBUG) & 800h) == 0)
                          M         bcf     PCLATH, 3
                          M               else
                          M         bsf     PCLATH, 3
                          M               endif
                          M               if (CODE_SIZE > 4)
                          M                 if (((DEBUG) & 1000h) == 0)
                          M         bcf     PCLATH, 4
                          M                 else
                          M         bsf     PCLATH, 4
                          M                 endif   
                          M               endif
                          M             endif
                          M           endif
                          M         endif
                          M       endif
                          M     endif
                          M 
0266   200D               M         call    DEBUG
                      00670         DEBUG?C 064h
0267   3064               M         movlw   064h
                          M         L?CALL  DEBUG
                          M         RST?RP
                          M     if ((PREV_BANK & 1) != 0)
                          M         bcf     STATUS, RP0
                          M     endif
                          M     if ((PREV_BANK & 2) != 0)
                          M         bcf     STATUS, RP1
                          M     endif
  00000000                M PREV_BANK = 0
                          M 
                          M     ifdef USE_LINKER
                          M       if (CODE_SIZE > 2)
                          M         pagesel DEBUG
                          M       endif
                          M     else
                          M       if ((DEBUG) < 1)
                          M         if (CODE_SIZE > 2)
                          M           if (((DEBUG) & 800h) == 0)
                          M         bcf     PCLATH, 3
                          M         else
                          M         bsf     PCLATH, 3
                          M         endif
                          M         endif
                          M         if (CODE_SIZE > 4)
                          M           if (((DEBUG) & 1000h) == 0)
                          M         bcf     PCLATH, 4
                          M           else
MPASM  5.36                      MB_STDIM.ASM   5-24-2019  13:22:05         PAGE 204


LOC  OBJECT CODE     LINE SOURCE TEXT
  VALUE

                          M         bsf     PCLATH, 4
                          M           endif
                          M         endif
                          M       else
                          M         if ((DEBUG) > $)
                          M           if (CODE_SIZE > 2)
                          M             if (((DEBUG) & 800h) == 0)
                          M         bcf     PCLATH, 3
                          M             else
                          M         bsf     PCLATH, 3
                          M             endif
                          M           endif
                          M           if (CODE_SIZE > 4)
                          M             if (((DEBUG) & 1000h) == 0)
                          M         bcf     PCLATH, 4
                          M             else
                          M         bsf     PCLATH, 4
                          M             endif
                          M           endif
                          M         else
                          M           if (CODE_SIZE > 2)
                          M             if (((DEBUG) & 1800h) == 0)
0268   018A               M         clrf    PCLATH
                          M             else
                          M               if (((DEBUG) & 800h) == 0)
                          M         bcf     PCLATH, 3
                          M               else
                          M         bsf     PCLATH, 3
                          M               endif
                          M               if (CODE_SIZE > 4)
                          M                 if (((DEBUG) & 1000h) == 0)
                          M         bcf     PCLATH, 4
                          M                 else
                          M         bsf     PCLATH, 4
                          M                 endif   
                          M               endif
                          M             endif
                          M           endif
                          M         endif
                          M       endif
                          M     endif
                          M 
0269   200D               M         call    DEBUG
                      00671         DEBUG?C 020h
026A   3020               M         movlw   020h
                          M         L?CALL  DEBUG
                          M         RST?RP
                          M     if ((PREV_BANK & 1) != 0)
                          M         bcf     STATUS, RP0
                          M     endif
                          M     if ((PREV_BANK & 2) != 0)
                          M         bcf     STATUS, RP1
                          M     endif
MPASM  5.36                      MB_STDIM.ASM   5-24-2019  13:22:05         PAGE 205


LOC  OBJECT CODE     LINE SOURCE TEXT
  VALUE

  00000000                M PREV_BANK = 0
                          M 
                          M     ifdef USE_LINKER
                          M       if (CODE_SIZE > 2)
                          M         pagesel DEBUG
                          M       endif
                          M     else
                          M       if ((DEBUG) < 1)
                          M         if (CODE_SIZE > 2)
                          M           if (((DEBUG) & 800h) == 0)
                          M         bcf     PCLATH, 3
                          M         else
                          M         bsf     PCLATH, 3
                          M         endif
                          M         endif
                          M         if (CODE_SIZE > 4)
                          M           if (((DEBUG) & 1000h) == 0)
                          M         bcf     PCLATH, 4
                          M           else
                          M         bsf     PCLATH, 4
                          M           endif
                          M         endif
                          M       else
                          M         if ((DEBUG) > $)
                          M           if (CODE_SIZE > 2)
                          M             if (((DEBUG) & 800h) == 0)
                          M         bcf     PCLATH, 3
                          M             else
                          M         bsf     PCLATH, 3
                          M             endif
                          M           endif
                          M           if (CODE_SIZE > 4)
                          M             if (((DEBUG) & 1000h) == 0)
                          M         bcf     PCLATH, 4
                          M             else
                          M         bsf     PCLATH, 4
                          M             endif
                          M           endif
                          M         else
                          M           if (CODE_SIZE > 2)
                          M             if (((DEBUG) & 1800h) == 0)
026B   018A               M         clrf    PCLATH
                          M             else
                          M               if (((DEBUG) & 800h) == 0)
                          M         bcf     PCLATH, 3
                          M               else
                          M         bsf     PCLATH, 3
                          M               endif
                          M               if (CODE_SIZE > 4)
                          M                 if (((DEBUG) & 1000h) == 0)
                          M         bcf     PCLATH, 4
                          M                 else
                          M         bsf     PCLATH, 4
MPASM  5.36                      MB_STDIM.ASM   5-24-2019  13:22:05         PAGE 206


LOC  OBJECT CODE     LINE SOURCE TEXT
  VALUE

                          M                 endif   
                          M               endif
                          M             endif
                          M           endif
                          M         endif
                          M       endif
                          M     endif
                          M 
026C   200D               M         call    DEBUG
                      00672         DEBUG?C 054h
026D   3054               M         movlw   054h
                          M         L?CALL  DEBUG
                          M         RST?RP
                          M     if ((PREV_BANK & 1) != 0)
                          M         bcf     STATUS, RP0
                          M     endif
                          M     if ((PREV_BANK & 2) != 0)
                          M         bcf     STATUS, RP1
                          M     endif
  00000000                M PREV_BANK = 0
                          M 
                          M     ifdef USE_LINKER
                          M       if (CODE_SIZE > 2)
                          M         pagesel DEBUG
                          M       endif
                          M     else
                          M       if ((DEBUG) < 1)
                          M         if (CODE_SIZE > 2)
                          M           if (((DEBUG) & 800h) == 0)
                          M         bcf     PCLATH, 3
                          M         else
                          M         bsf     PCLATH, 3
                          M         endif
                          M         endif
                          M         if (CODE_SIZE > 4)
                          M           if (((DEBUG) & 1000h) == 0)
                          M         bcf     PCLATH, 4
                          M           else
                          M         bsf     PCLATH, 4
                          M           endif
                          M         endif
                          M       else
                          M         if ((DEBUG) > $)
                          M           if (CODE_SIZE > 2)
                          M             if (((DEBUG) & 800h) == 0)
                          M         bcf     PCLATH, 3
                          M             else
                          M         bsf     PCLATH, 3
                          M             endif
                          M           endif
                          M           if (CODE_SIZE > 4)
                          M             if (((DEBUG) & 1000h) == 0)
                          M         bcf     PCLATH, 4
MPASM  5.36                      MB_STDIM.ASM   5-24-2019  13:22:05         PAGE 207


LOC  OBJECT CODE     LINE SOURCE TEXT
  VALUE

                          M             else
                          M         bsf     PCLATH, 4
                          M             endif
                          M           endif
                          M         else
                          M           if (CODE_SIZE > 2)
                          M             if (((DEBUG) & 1800h) == 0)
026E   018A               M         clrf    PCLATH
                          M             else
                          M               if (((DEBUG) & 800h) == 0)
                          M         bcf     PCLATH, 3
                          M               else
                          M         bsf     PCLATH, 3
                          M               endif
                          M               if (CODE_SIZE > 4)
                          M                 if (((DEBUG) & 1000h) == 0)
                          M         bcf     PCLATH, 4
                          M                 else
                          M         bsf     PCLATH, 4
                          M                 endif   
                          M               endif
                          M             endif
                          M           endif
                          M         endif
                          M       endif
                          M     endif
                          M 
026F   200D               M         call    DEBUG
                      00673         DEBUG?C 04Dh
0270   304D               M         movlw   04Dh
                          M         L?CALL  DEBUG
                          M         RST?RP
                          M     if ((PREV_BANK & 1) != 0)
                          M         bcf     STATUS, RP0
                          M     endif
                          M     if ((PREV_BANK & 2) != 0)
                          M         bcf     STATUS, RP1
                          M     endif
  00000000                M PREV_BANK = 0
                          M 
                          M     ifdef USE_LINKER
                          M       if (CODE_SIZE > 2)
                          M         pagesel DEBUG
                          M       endif
                          M     else
                          M       if ((DEBUG) < 1)
                          M         if (CODE_SIZE > 2)
                          M           if (((DEBUG) & 800h) == 0)
                          M         bcf     PCLATH, 3
                          M         else
                          M         bsf     PCLATH, 3
                          M         endif
                          M         endif
MPASM  5.36                      MB_STDIM.ASM   5-24-2019  13:22:05         PAGE 208


LOC  OBJECT CODE     LINE SOURCE TEXT
  VALUE

                          M         if (CODE_SIZE > 4)
                          M           if (((DEBUG) & 1000h) == 0)
                          M         bcf     PCLATH, 4
                          M           else
                          M         bsf     PCLATH, 4
                          M           endif
                          M         endif
                          M       else
                          M         if ((DEBUG) > $)
                          M           if (CODE_SIZE > 2)
                          M             if (((DEBUG) & 800h) == 0)
                          M         bcf     PCLATH, 3
                          M             else
                          M         bsf     PCLATH, 3
                          M             endif
                          M           endif
                          M           if (CODE_SIZE > 4)
                          M             if (((DEBUG) & 1000h) == 0)
                          M         bcf     PCLATH, 4
                          M             else
                          M         bsf     PCLATH, 4
                          M             endif
                          M           endif
                          M         else
                          M           if (CODE_SIZE > 2)
                          M             if (((DEBUG) & 1800h) == 0)
0271   018A               M         clrf    PCLATH
                          M             else
                          M               if (((DEBUG) & 800h) == 0)
                          M         bcf     PCLATH, 3
                          M               else
                          M         bsf     PCLATH, 3
                          M               endif
                          M               if (CODE_SIZE > 4)
                          M                 if (((DEBUG) & 1000h) == 0)
                          M         bcf     PCLATH, 4
                          M                 else
                          M         bsf     PCLATH, 4
                          M                 endif   
                          M               endif
                          M             endif
                          M           endif
                          M         endif
                          M       endif
                          M     endif
                          M 
0272   200D               M         call    DEBUG
                      00674         DEBUG?C 052h
0273   3052               M         movlw   052h
                          M         L?CALL  DEBUG
                          M         RST?RP
                          M     if ((PREV_BANK & 1) != 0)
                          M         bcf     STATUS, RP0
MPASM  5.36                      MB_STDIM.ASM   5-24-2019  13:22:05         PAGE 209


LOC  OBJECT CODE     LINE SOURCE TEXT
  VALUE

                          M     endif
                          M     if ((PREV_BANK & 2) != 0)
                          M         bcf     STATUS, RP1
                          M     endif
  00000000                M PREV_BANK = 0
                          M 
                          M     ifdef USE_LINKER
                          M       if (CODE_SIZE > 2)
                          M         pagesel DEBUG
                          M       endif
                          M     else
                          M       if ((DEBUG) < 1)
                          M         if (CODE_SIZE > 2)
                          M           if (((DEBUG) & 800h) == 0)
                          M         bcf     PCLATH, 3
                          M         else
                          M         bsf     PCLATH, 3
                          M         endif
                          M         endif
                          M         if (CODE_SIZE > 4)
                          M           if (((DEBUG) & 1000h) == 0)
                          M         bcf     PCLATH, 4
                          M           else
                          M         bsf     PCLATH, 4
                          M           endif
                          M         endif
                          M       else
                          M         if ((DEBUG) > $)
                          M           if (CODE_SIZE > 2)
                          M             if (((DEBUG) & 800h) == 0)
                          M         bcf     PCLATH, 3
                          M             else
                          M         bsf     PCLATH, 3
                          M             endif
                          M           endif
                          M           if (CODE_SIZE > 4)
                          M             if (((DEBUG) & 1000h) == 0)
                          M         bcf     PCLATH, 4
                          M             else
                          M         bsf     PCLATH, 4
                          M             endif
                          M           endif
                          M         else
                          M           if (CODE_SIZE > 2)
                          M             if (((DEBUG) & 1800h) == 0)
0274   018A               M         clrf    PCLATH
                          M             else
                          M               if (((DEBUG) & 800h) == 0)
                          M         bcf     PCLATH, 3
                          M               else
                          M         bsf     PCLATH, 3
                          M               endif
                          M               if (CODE_SIZE > 4)
MPASM  5.36                      MB_STDIM.ASM   5-24-2019  13:22:05         PAGE 210


LOC  OBJECT CODE     LINE SOURCE TEXT
  VALUE

                          M                 if (((DEBUG) & 1000h) == 0)
                          M         bcf     PCLATH, 4
                          M                 else
                          M         bsf     PCLATH, 4
                          M                 endif   
                          M               endif
                          M             endif
                          M           endif
                          M         endif
                          M       endif
                          M     endif
                          M 
0275   200D               M         call    DEBUG
                      00675         DEBUG?C 031h
0276   3031               M         movlw   031h
                          M         L?CALL  DEBUG
                          M         RST?RP
                          M     if ((PREV_BANK & 1) != 0)
                          M         bcf     STATUS, RP0
                          M     endif
                          M     if ((PREV_BANK & 2) != 0)
                          M         bcf     STATUS, RP1
                          M     endif
  00000000                M PREV_BANK = 0
                          M 
                          M     ifdef USE_LINKER
                          M       if (CODE_SIZE > 2)
                          M         pagesel DEBUG
                          M       endif
                          M     else
                          M       if ((DEBUG) < 1)
                          M         if (CODE_SIZE > 2)
                          M           if (((DEBUG) & 800h) == 0)
                          M         bcf     PCLATH, 3
                          M         else
                          M         bsf     PCLATH, 3
                          M         endif
                          M         endif
                          M         if (CODE_SIZE > 4)
                          M           if (((DEBUG) & 1000h) == 0)
                          M         bcf     PCLATH, 4
                          M           else
                          M         bsf     PCLATH, 4
                          M           endif
                          M         endif
                          M       else
                          M         if ((DEBUG) > $)
                          M           if (CODE_SIZE > 2)
                          M             if (((DEBUG) & 800h) == 0)
                          M         bcf     PCLATH, 3
                          M             else
                          M         bsf     PCLATH, 3
                          M             endif
MPASM  5.36                      MB_STDIM.ASM   5-24-2019  13:22:05         PAGE 211


LOC  OBJECT CODE     LINE SOURCE TEXT
  VALUE

                          M           endif
                          M           if (CODE_SIZE > 4)
                          M             if (((DEBUG) & 1000h) == 0)
                          M         bcf     PCLATH, 4
                          M             else
                          M         bsf     PCLATH, 4
                          M             endif
                          M           endif
                          M         else
                          M           if (CODE_SIZE > 2)
                          M             if (((DEBUG) & 1800h) == 0)
0277   018A               M         clrf    PCLATH
                          M             else
                          M               if (((DEBUG) & 800h) == 0)
                          M         bcf     PCLATH, 3
                          M               else
                          M         bsf     PCLATH, 3
                          M               endif
                          M               if (CODE_SIZE > 4)
                          M                 if (((DEBUG) & 1000h) == 0)
                          M         bcf     PCLATH, 4
                          M                 else
                          M         bsf     PCLATH, 4
                          M                 endif   
                          M               endif
                          M             endif
                          M           endif
                          M         endif
                          M       endif
                          M     endif
                          M 
0278   200D               M         call    DEBUG
                      00676         DEBUG?C 049h
0279   3049               M         movlw   049h
                          M         L?CALL  DEBUG
                          M         RST?RP
                          M     if ((PREV_BANK & 1) != 0)
                          M         bcf     STATUS, RP0
                          M     endif
                          M     if ((PREV_BANK & 2) != 0)
                          M         bcf     STATUS, RP1
                          M     endif
  00000000                M PREV_BANK = 0
                          M 
                          M     ifdef USE_LINKER
                          M       if (CODE_SIZE > 2)
                          M         pagesel DEBUG
                          M       endif
                          M     else
                          M       if ((DEBUG) < 1)
                          M         if (CODE_SIZE > 2)
                          M           if (((DEBUG) & 800h) == 0)
                          M         bcf     PCLATH, 3
MPASM  5.36                      MB_STDIM.ASM   5-24-2019  13:22:05         PAGE 212


LOC  OBJECT CODE     LINE SOURCE TEXT
  VALUE

                          M         else
                          M         bsf     PCLATH, 3
                          M         endif
                          M         endif
                          M         if (CODE_SIZE > 4)
                          M           if (((DEBUG) & 1000h) == 0)
                          M         bcf     PCLATH, 4
                          M           else
                          M         bsf     PCLATH, 4
                          M           endif
                          M         endif
                          M       else
                          M         if ((DEBUG) > $)
                          M           if (CODE_SIZE > 2)
                          M             if (((DEBUG) & 800h) == 0)
                          M         bcf     PCLATH, 3
                          M             else
                          M         bsf     PCLATH, 3
                          M             endif
                          M           endif
                          M           if (CODE_SIZE > 4)
                          M             if (((DEBUG) & 1000h) == 0)
                          M         bcf     PCLATH, 4
                          M             else
                          M         bsf     PCLATH, 4
                          M             endif
                          M           endif
                          M         else
                          M           if (CODE_SIZE > 2)
                          M             if (((DEBUG) & 1800h) == 0)
027A   018A               M         clrf    PCLATH
                          M             else
                          M               if (((DEBUG) & 800h) == 0)
                          M         bcf     PCLATH, 3
                          M               else
                          M         bsf     PCLATH, 3
                          M               endif
                          M               if (CODE_SIZE > 4)
                          M                 if (((DEBUG) & 1000h) == 0)
                          M         bcf     PCLATH, 4
                          M                 else
                          M         bsf     PCLATH, 4
                          M                 endif   
                          M               endif
                          M             endif
                          M           endif
                          M         endif
                          M       endif
                          M     endif
                          M 
027B   200D               M         call    DEBUG
                      00677         DEBUG?C 046h
027C   3046               M         movlw   046h
MPASM  5.36                      MB_STDIM.ASM   5-24-2019  13:22:05         PAGE 213


LOC  OBJECT CODE     LINE SOURCE TEXT
  VALUE

                          M         L?CALL  DEBUG
                          M         RST?RP
                          M     if ((PREV_BANK & 1) != 0)
                          M         bcf     STATUS, RP0
                          M     endif
                          M     if ((PREV_BANK & 2) != 0)
                          M         bcf     STATUS, RP1
                          M     endif
  00000000                M PREV_BANK = 0
                          M 
                          M     ifdef USE_LINKER
                          M       if (CODE_SIZE > 2)
                          M         pagesel DEBUG
                          M       endif
                          M     else
                          M       if ((DEBUG) < 1)
                          M         if (CODE_SIZE > 2)
                          M           if (((DEBUG) & 800h) == 0)
                          M         bcf     PCLATH, 3
                          M         else
                          M         bsf     PCLATH, 3
                          M         endif
                          M         endif
                          M         if (CODE_SIZE > 4)
                          M           if (((DEBUG) & 1000h) == 0)
                          M         bcf     PCLATH, 4
                          M           else
                          M         bsf     PCLATH, 4
                          M           endif
                          M         endif
                          M       else
                          M         if ((DEBUG) > $)
                          M           if (CODE_SIZE > 2)
                          M             if (((DEBUG) & 800h) == 0)
                          M         bcf     PCLATH, 3
                          M             else
                          M         bsf     PCLATH, 3
                          M             endif
                          M           endif
                          M           if (CODE_SIZE > 4)
                          M             if (((DEBUG) & 1000h) == 0)
                          M         bcf     PCLATH, 4
                          M             else
                          M         bsf     PCLATH, 4
                          M             endif
                          M           endif
                          M         else
                          M           if (CODE_SIZE > 2)
                          M             if (((DEBUG) & 1800h) == 0)
027D   018A               M         clrf    PCLATH
                          M             else
                          M               if (((DEBUG) & 800h) == 0)
                          M         bcf     PCLATH, 3
MPASM  5.36                      MB_STDIM.ASM   5-24-2019  13:22:05         PAGE 214


LOC  OBJECT CODE     LINE SOURCE TEXT
  VALUE

                          M               else
                          M         bsf     PCLATH, 3
                          M               endif
                          M               if (CODE_SIZE > 4)
                          M                 if (((DEBUG) & 1000h) == 0)
                          M         bcf     PCLATH, 4
                          M                 else
                          M         bsf     PCLATH, 4
                          M                 endif   
                          M               endif
                          M             endif
                          M           endif
                          M         endif
                          M       endif
                          M     endif
                          M 
027E   200D               M         call    DEBUG
                      00678         DEBUG?T _TMR1IF
                          M         MOVE?TA PIR1,  000h
                          M         CHK?RP  PIR1
                          M     if (((PIR1)  & 180h) == 0)
                          M       if (PREV_BANK == 1)
                          M         bcf     STATUS, RP0
                          M       endif
                          M       if (PREV_BANK == 2)
                          M         bcf     STATUS, RP1
                          M       endif
                          M       if (PREV_BANK == 3)
                          M         bcf     STATUS, RP0
                          M         bcf     STATUS, RP1
                          M       endif
  00000000                M PREV_BANK = 0
                          M     endif
                          M 
                          M     if (((PIR1)  & 180h) == 80h)
                          M       if (PREV_BANK == 0)
                          M         bsf     STATUS, RP0
                          M       endif
                          M       if (PREV_BANK == 2)
                          M         bsf     STATUS, RP0
                          M         bcf     STATUS, RP1
                          M       endif
                          M       if (PREV_BANK == 3)
                          M         bcf     STATUS, RP1
                          M       endif
                          M PREV_BANK = 1
                          M     endif
                          M 
                          M     if (((PIR1)  & 180h) == 100h)
                          M       if (PREV_BANK == 0)
                          M         bsf     STATUS, RP1
                          M       endif
                          M       if (PREV_BANK == 1)
MPASM  5.36                      MB_STDIM.ASM   5-24-2019  13:22:05         PAGE 215


LOC  OBJECT CODE     LINE SOURCE TEXT
  VALUE

                          M         bcf     STATUS, RP0
                          M         bsf     STATUS, RP1
                          M       endif
                          M       if (PREV_BANK == 3)
                          M         bcf     STATUS, RP0
                          M       endif
                          M PREV_BANK = 2
                          M     endif
                          M 
                          M     if (((PIR1)  & 180h) == 180h)
                          M       if (PREV_BANK == 0)
                          M         bsf     STATUS, RP0
                          M         bsf     STATUS, RP1
                          M       endif
                          M       if (PREV_BANK == 1)
                          M         bsf     STATUS, RP1
                          M       endif
                          M       if (PREV_BANK == 2)
                          M         bsf     STATUS, RP0
                          M       endif
                          M PREV_BANK = 3
                          M     endif
027F   3000               M         movlw   0
0280   180C               M         btfsc   PIR1,  000h
0281   3001               M         movlw   1
                          M         L?CALL  DEBUG
                          M         RST?RP
                          M     if ((PREV_BANK & 1) != 0)
                          M         bcf     STATUS, RP0
                          M     endif
                          M     if ((PREV_BANK & 2) != 0)
                          M         bcf     STATUS, RP1
                          M     endif
  00000000                M PREV_BANK = 0
                          M 
                          M     ifdef USE_LINKER
                          M       if (CODE_SIZE > 2)
                          M         pagesel DEBUG
                          M       endif
                          M     else
                          M       if ((DEBUG) < 1)
                          M         if (CODE_SIZE > 2)
                          M           if (((DEBUG) & 800h) == 0)
                          M         bcf     PCLATH, 3
                          M         else
                          M         bsf     PCLATH, 3
                          M         endif
                          M         endif
                          M         if (CODE_SIZE > 4)
                          M           if (((DEBUG) & 1000h) == 0)
                          M         bcf     PCLATH, 4
                          M           else
                          M         bsf     PCLATH, 4
MPASM  5.36                      MB_STDIM.ASM   5-24-2019  13:22:05         PAGE 216


LOC  OBJECT CODE     LINE SOURCE TEXT
  VALUE

                          M           endif
                          M         endif
                          M       else
                          M         if ((DEBUG) > $)
                          M           if (CODE_SIZE > 2)
                          M             if (((DEBUG) & 800h) == 0)
                          M         bcf     PCLATH, 3
                          M             else
                          M         bsf     PCLATH, 3
                          M             endif
                          M           endif
                          M           if (CODE_SIZE > 4)
                          M             if (((DEBUG) & 1000h) == 0)
                          M         bcf     PCLATH, 4
                          M             else
                          M         bsf     PCLATH, 4
                          M             endif
                          M           endif
                          M         else
                          M           if (CODE_SIZE > 2)
                          M             if (((DEBUG) & 1800h) == 0)
0282   018A               M         clrf    PCLATH
                          M             else
                          M               if (((DEBUG) & 800h) == 0)
                          M         bcf     PCLATH, 3
                          M               else
                          M         bsf     PCLATH, 3
                          M               endif
                          M               if (CODE_SIZE > 4)
                          M                 if (((DEBUG) & 1000h) == 0)
                          M         bcf     PCLATH, 4
                          M                 else
                          M         bsf     PCLATH, 4
                          M                 endif   
                          M               endif
                          M             endif
                          M           endif
                          M         endif
                          M       endif
                          M     endif
                          M 
0283   200D               M         call    DEBUG
                      00679         DEBUG?C 00Dh
0284   300D               M         movlw   00Dh
                          M         L?CALL  DEBUG
                          M         RST?RP
                          M     if ((PREV_BANK & 1) != 0)
                          M         bcf     STATUS, RP0
                          M     endif
                          M     if ((PREV_BANK & 2) != 0)
                          M         bcf     STATUS, RP1
                          M     endif
  00000000                M PREV_BANK = 0
MPASM  5.36                      MB_STDIM.ASM   5-24-2019  13:22:05         PAGE 217


LOC  OBJECT CODE     LINE SOURCE TEXT
  VALUE

                          M 
                          M     ifdef USE_LINKER
                          M       if (CODE_SIZE > 2)
                          M         pagesel DEBUG
                          M       endif
                          M     else
                          M       if ((DEBUG) < 1)
                          M         if (CODE_SIZE > 2)
                          M           if (((DEBUG) & 800h) == 0)
                          M         bcf     PCLATH, 3
                          M         else
                          M         bsf     PCLATH, 3
                          M         endif
                          M         endif
                          M         if (CODE_SIZE > 4)
                          M           if (((DEBUG) & 1000h) == 0)
                          M         bcf     PCLATH, 4
                          M           else
                          M         bsf     PCLATH, 4
                          M           endif
                          M         endif
                          M       else
                          M         if ((DEBUG) > $)
                          M           if (CODE_SIZE > 2)
                          M             if (((DEBUG) & 800h) == 0)
                          M         bcf     PCLATH, 3
                          M             else
                          M         bsf     PCLATH, 3
                          M             endif
                          M           endif
                          M           if (CODE_SIZE > 4)
                          M             if (((DEBUG) & 1000h) == 0)
                          M         bcf     PCLATH, 4
                          M             else
                          M         bsf     PCLATH, 4
                          M             endif
                          M           endif
                          M         else
                          M           if (CODE_SIZE > 2)
                          M             if (((DEBUG) & 1800h) == 0)
0285   018A               M         clrf    PCLATH
                          M             else
                          M               if (((DEBUG) & 800h) == 0)
                          M         bcf     PCLATH, 3
                          M               else
                          M         bsf     PCLATH, 3
                          M               endif
                          M               if (CODE_SIZE > 4)
                          M                 if (((DEBUG) & 1000h) == 0)
                          M         bcf     PCLATH, 4
                          M                 else
                          M         bsf     PCLATH, 4
                          M                 endif   
MPASM  5.36                      MB_STDIM.ASM   5-24-2019  13:22:05         PAGE 218


LOC  OBJECT CODE     LINE SOURCE TEXT
  VALUE

                          M               endif
                          M             endif
                          M           endif
                          M         endif
                          M       endif
                          M     endif
                          M 
0286   200D               M         call    DEBUG
                      00680         DEBUG?C 00Ah
0287   300A               M         movlw   00Ah
                          M         L?CALL  DEBUG
                          M         RST?RP
                          M     if ((PREV_BANK & 1) != 0)
                          M         bcf     STATUS, RP0
                          M     endif
                          M     if ((PREV_BANK & 2) != 0)
                          M         bcf     STATUS, RP1
                          M     endif
  00000000                M PREV_BANK = 0
                          M 
                          M     ifdef USE_LINKER
                          M       if (CODE_SIZE > 2)
                          M         pagesel DEBUG
                          M       endif
                          M     else
                          M       if ((DEBUG) < 1)
                          M         if (CODE_SIZE > 2)
                          M           if (((DEBUG) & 800h) == 0)
                          M         bcf     PCLATH, 3
                          M         else
                          M         bsf     PCLATH, 3
                          M         endif
                          M         endif
                          M         if (CODE_SIZE > 4)
                          M           if (((DEBUG) & 1000h) == 0)
                          M         bcf     PCLATH, 4
                          M           else
                          M         bsf     PCLATH, 4
                          M           endif
                          M         endif
                          M       else
                          M         if ((DEBUG) > $)
                          M           if (CODE_SIZE > 2)
                          M             if (((DEBUG) & 800h) == 0)
                          M         bcf     PCLATH, 3
                          M             else
                          M         bsf     PCLATH, 3
                          M             endif
                          M           endif
                          M           if (CODE_SIZE > 4)
                          M             if (((DEBUG) & 1000h) == 0)
                          M         bcf     PCLATH, 4
                          M             else
MPASM  5.36                      MB_STDIM.ASM   5-24-2019  13:22:05         PAGE 219


LOC  OBJECT CODE     LINE SOURCE TEXT
  VALUE

                          M         bsf     PCLATH, 4
                          M             endif
                          M           endif
                          M         else
                          M           if (CODE_SIZE > 2)
                          M             if (((DEBUG) & 1800h) == 0)
0288   018A               M         clrf    PCLATH
                          M             else
                          M               if (((DEBUG) & 800h) == 0)
                          M         bcf     PCLATH, 3
                          M               else
                          M         bsf     PCLATH, 3
                          M               endif
                          M               if (CODE_SIZE > 4)
                          M                 if (((DEBUG) & 1000h) == 0)
                          M         bcf     PCLATH, 4
                          M                 else
                          M         bsf     PCLATH, 4
                          M                 endif   
                          M               endif
                          M             endif
                          M           endif
                          M         endif
                          M       endif
                          M     endif
                          M 
0289   200D               M         call    DEBUG
                      00681 
                      00682 ; C:\USERS\JESSADA\DESKTOP\LED DIMMER PROJECT\PIC16F886\MB_STDIM.BAS    00320   Z0005A          return
028A                  00683 Z0005A
                      00684         RETURN? 
                          M     ifdef DEBUG_STACK
                          M         CHK?RP  DEBUG_STACK
                          M         decf    DEBUG_STACK, F
                          M     endif
                          M         RST?RP
                          M     if ((PREV_BANK & 1) != 0)
                          M         bcf     STATUS, RP0
                          M     endif
                          M     if ((PREV_BANK & 2) != 0)
                          M         bcf     STATUS, RP1
                          M     endif
  00000000                M PREV_BANK = 0
028A   0008               M         return
                      00685 
                      00686 ; C:\USERS\JESSADA\DESKTOP\LED DIMMER PROJECT\PIC16F886\MB_STDIM.BAS    00325   Z0005B  init_PWM:
028B                  00687 Z0005B
                      00688 
                      00689         LABEL?L _init_PWM       
                          M         RST?RP
                          M     if ((PREV_BANK & 1) != 0)
                          M         bcf     STATUS, RP0
                          M     endif
MPASM  5.36                      MB_STDIM.ASM   5-24-2019  13:22:05         PAGE 220


LOC  OBJECT CODE     LINE SOURCE TEXT
  VALUE

                          M     if ((PREV_BANK & 2) != 0)
                          M         bcf     STATUS, RP1
                          M     endif
  00000000                M PREV_BANK = 0
                          M     ifdef PM_USED
                          M         LALL
                          M _init_PWM
                          M         XALL
                          M     else
028B                      M _init_PWM
                          M     endif
                      00690 
                      00691 ; C:\USERS\JESSADA\DESKTOP\LED DIMMER PROJECT\PIC16F886\MB_STDIM.BAS    00329   Z0005C          CCP1CON=
                            %00001100       ;            0     0    d       d       1       1      0       0                
028B                  00692 Z0005C
                      00693         MOVE?CB 00Ch, CCP1CON
                          M         CHK?RP  CCP1CON
                          M     if (((CCP1CON) & 180h) == 0)
                          M       if (PREV_BANK == 1)
                          M         bcf     STATUS, RP0
                          M       endif
                          M       if (PREV_BANK == 2)
                          M         bcf     STATUS, RP1
                          M       endif
                          M       if (PREV_BANK == 3)
                          M         bcf     STATUS, RP0
                          M         bcf     STATUS, RP1
                          M       endif
  00000000                M PREV_BANK = 0
                          M     endif
                          M 
                          M     if (((CCP1CON) & 180h) == 80h)
                          M       if (PREV_BANK == 0)
                          M         bsf     STATUS, RP0
                          M       endif
                          M       if (PREV_BANK == 2)
                          M         bsf     STATUS, RP0
                          M         bcf     STATUS, RP1
                          M       endif
                          M       if (PREV_BANK == 3)
                          M         bcf     STATUS, RP1
                          M       endif
                          M PREV_BANK = 1
                          M     endif
                          M 
                          M     if (((CCP1CON) & 180h) == 100h)
                          M       if (PREV_BANK == 0)
                          M         bsf     STATUS, RP1
                          M       endif
                          M       if (PREV_BANK == 1)
                          M         bcf     STATUS, RP0
                          M         bsf     STATUS, RP1
                          M       endif
MPASM  5.36                      MB_STDIM.ASM   5-24-2019  13:22:05         PAGE 221


LOC  OBJECT CODE     LINE SOURCE TEXT
  VALUE

                          M       if (PREV_BANK == 3)
                          M         bcf     STATUS, RP0
                          M       endif
                          M PREV_BANK = 2
                          M     endif
                          M 
                          M     if (((CCP1CON) & 180h) == 180h)
                          M       if (PREV_BANK == 0)
                          M         bsf     STATUS, RP0
                          M         bsf     STATUS, RP1
                          M       endif
                          M       if (PREV_BANK == 1)
                          M         bsf     STATUS, RP1
                          M       endif
                          M       if (PREV_BANK == 2)
                          M         bsf     STATUS, RP0
                          M       endif
                          M PREV_BANK = 3
                          M     endif
                          M     if (low (00Ch) == 0)
                          M         clrf    CCP1CON
                          M     else
028B   300C               M         movlw   low (00Ch)
028C   0097               M         movwf   CCP1CON
                          M     endif
                      00694 
                      00695 ; C:\USERS\JESSADA\DESKTOP\LED DIMMER PROJECT\PIC16F886\MB_STDIM.BAS    00330   Z0005D          CCPR1L=$
                            00                      ;high 8 bits
028D                  00696 Z0005D
                      00697         MOVE?CB 000h, CCPR1L
                          M         CHK?RP  CCPR1L
                          M     if (((CCPR1L) & 180h) == 0)
                          M       if (PREV_BANK == 1)
                          M         bcf     STATUS, RP0
                          M       endif
                          M       if (PREV_BANK == 2)
                          M         bcf     STATUS, RP1
                          M       endif
                          M       if (PREV_BANK == 3)
                          M         bcf     STATUS, RP0
                          M         bcf     STATUS, RP1
                          M       endif
  00000000                M PREV_BANK = 0
                          M     endif
                          M 
                          M     if (((CCPR1L) & 180h) == 80h)
                          M       if (PREV_BANK == 0)
                          M         bsf     STATUS, RP0
                          M       endif
                          M       if (PREV_BANK == 2)
                          M         bsf     STATUS, RP0
                          M         bcf     STATUS, RP1
                          M       endif
MPASM  5.36                      MB_STDIM.ASM   5-24-2019  13:22:05         PAGE 222


LOC  OBJECT CODE     LINE SOURCE TEXT
  VALUE

                          M       if (PREV_BANK == 3)
                          M         bcf     STATUS, RP1
                          M       endif
                          M PREV_BANK = 1
                          M     endif
                          M 
                          M     if (((CCPR1L) & 180h) == 100h)
                          M       if (PREV_BANK == 0)
                          M         bsf     STATUS, RP1
                          M       endif
                          M       if (PREV_BANK == 1)
                          M         bcf     STATUS, RP0
                          M         bsf     STATUS, RP1
                          M       endif
                          M       if (PREV_BANK == 3)
                          M         bcf     STATUS, RP0
                          M       endif
                          M PREV_BANK = 2
                          M     endif
                          M 
                          M     if (((CCPR1L) & 180h) == 180h)
                          M       if (PREV_BANK == 0)
                          M         bsf     STATUS, RP0
                          M         bsf     STATUS, RP1
                          M       endif
                          M       if (PREV_BANK == 1)
                          M         bsf     STATUS, RP1
                          M       endif
                          M       if (PREV_BANK == 2)
                          M         bsf     STATUS, RP0
                          M       endif
                          M PREV_BANK = 3
                          M     endif
                          M     if (low (000h) == 0)
028D   0195               M         clrf    CCPR1L
                          M     else
                          M         movlw   low (000h)
                          M         movwf   CCPR1L
                          M     endif
                      00698 
                      00699 ; C:\USERS\JESSADA\DESKTOP\LED DIMMER PROJECT\PIC16F886\MB_STDIM.BAS    00334   Z0005E          T2CON=$0
                            7
028E                  00700 Z0005E
                      00701         MOVE?CB 007h, T2CON
                          M         CHK?RP  T2CON
                          M     if (((T2CON) & 180h) == 0)
                          M       if (PREV_BANK == 1)
                          M         bcf     STATUS, RP0
                          M       endif
                          M       if (PREV_BANK == 2)
                          M         bcf     STATUS, RP1
                          M       endif
                          M       if (PREV_BANK == 3)
MPASM  5.36                      MB_STDIM.ASM   5-24-2019  13:22:05         PAGE 223


LOC  OBJECT CODE     LINE SOURCE TEXT
  VALUE

                          M         bcf     STATUS, RP0
                          M         bcf     STATUS, RP1
                          M       endif
  00000000                M PREV_BANK = 0
                          M     endif
                          M 
                          M     if (((T2CON) & 180h) == 80h)
                          M       if (PREV_BANK == 0)
                          M         bsf     STATUS, RP0
                          M       endif
                          M       if (PREV_BANK == 2)
                          M         bsf     STATUS, RP0
                          M         bcf     STATUS, RP1
                          M       endif
                          M       if (PREV_BANK == 3)
                          M         bcf     STATUS, RP1
                          M       endif
                          M PREV_BANK = 1
                          M     endif
                          M 
                          M     if (((T2CON) & 180h) == 100h)
                          M       if (PREV_BANK == 0)
                          M         bsf     STATUS, RP1
                          M       endif
                          M       if (PREV_BANK == 1)
                          M         bcf     STATUS, RP0
                          M         bsf     STATUS, RP1
                          M       endif
                          M       if (PREV_BANK == 3)
                          M         bcf     STATUS, RP0
                          M       endif
                          M PREV_BANK = 2
                          M     endif
                          M 
                          M     if (((T2CON) & 180h) == 180h)
                          M       if (PREV_BANK == 0)
                          M         bsf     STATUS, RP0
                          M         bsf     STATUS, RP1
                          M       endif
                          M       if (PREV_BANK == 1)
                          M         bsf     STATUS, RP1
                          M       endif
                          M       if (PREV_BANK == 2)
                          M         bsf     STATUS, RP0
                          M       endif
                          M PREV_BANK = 3
                          M     endif
                          M     if (low (007h) == 0)
                          M         clrf    T2CON
                          M     else
028E   3007               M         movlw   low (007h)
028F   0092               M         movwf   T2CON
                          M     endif
MPASM  5.36                      MB_STDIM.ASM   5-24-2019  13:22:05         PAGE 224


LOC  OBJECT CODE     LINE SOURCE TEXT
  VALUE

                      00702 
                      00703 ; C:\USERS\JESSADA\DESKTOP\LED DIMMER PROJECT\PIC16F886\MB_STDIM.BAS    00335   Z0005F          PR2=$ff
0290                  00704 Z0005F
                      00705         MOVE?CB 0FFh, PR2
                          M         CHK?RP  PR2
                          M     if (((PR2)   & 180h) == 0)
                          M       if (PREV_BANK == 1)
                          M         bcf     STATUS, RP0
                          M       endif
                          M       if (PREV_BANK == 2)
                          M         bcf     STATUS, RP1
                          M       endif
                          M       if (PREV_BANK == 3)
                          M         bcf     STATUS, RP0
                          M         bcf     STATUS, RP1
                          M       endif
                          M PREV_BANK = 0
                          M     endif
                          M 
                          M     if (((PR2)   & 180h) == 80h)
                          M       if (PREV_BANK == 0)
0290   1683               M         bsf     STATUS, RP0
                          M       endif
                          M       if (PREV_BANK == 2)
                          M         bsf     STATUS, RP0
                          M         bcf     STATUS, RP1
                          M       endif
                          M       if (PREV_BANK == 3)
                          M         bcf     STATUS, RP1
                          M       endif
  00000001                M PREV_BANK = 1
                          M     endif
                          M 
                          M     if (((PR2)   & 180h) == 100h)
                          M       if (PREV_BANK == 0)
                          M         bsf     STATUS, RP1
                          M       endif
                          M       if (PREV_BANK == 1)
                          M         bcf     STATUS, RP0
                          M         bsf     STATUS, RP1
                          M       endif
                          M       if (PREV_BANK == 3)
                          M         bcf     STATUS, RP0
                          M       endif
                          M PREV_BANK = 2
                          M     endif
                          M 
                          M     if (((PR2)   & 180h) == 180h)
                          M       if (PREV_BANK == 0)
                          M         bsf     STATUS, RP0
                          M         bsf     STATUS, RP1
                          M       endif
                          M       if (PREV_BANK == 1)
MPASM  5.36                      MB_STDIM.ASM   5-24-2019  13:22:05         PAGE 225


LOC  OBJECT CODE     LINE SOURCE TEXT
  VALUE

                          M         bsf     STATUS, RP1
                          M       endif
                          M       if (PREV_BANK == 2)
                          M         bsf     STATUS, RP0
                          M       endif
                          M PREV_BANK = 3
                          M     endif
                          M     if (low (0FFh) == 0)
                          M         clrf    PR2
                          M     else
0291   30FF               M         movlw   low (0FFh)
0292   0092               M         movwf   PR2
                          M     endif
                      00706 
                      00707 ; C:\USERS\JESSADA\DESKTOP\LED DIMMER PROJECT\PIC16F886\MB_STDIM.BAS    00337   Z00060          return
0293                  00708 Z00060
                      00709         RETURN? 
                          M     ifdef DEBUG_STACK
                          M         CHK?RP  DEBUG_STACK
                          M         decf    DEBUG_STACK, F
                          M     endif
                          M         RST?RP
                          M     if ((PREV_BANK & 1) != 0)
0293   1283               M         bcf     STATUS, RP0
                          M     endif
                          M     if ((PREV_BANK & 2) != 0)
                          M         bcf     STATUS, RP1
                          M     endif
  00000000                M PREV_BANK = 0
0294   0008               M         return
                      00710 
                      00711 ; C:\USERS\JESSADA\DESKTOP\LED DIMMER PROJECT\PIC16F886\MB_STDIM.BAS    00342   Z00061  init_IO:
0295                  00712 Z00061
                      00713 
                      00714         LABEL?L _init_IO        
                          M         RST?RP
                          M     if ((PREV_BANK & 1) != 0)
                          M         bcf     STATUS, RP0
                          M     endif
                          M     if ((PREV_BANK & 2) != 0)
                          M         bcf     STATUS, RP1
                          M     endif
  00000000                M PREV_BANK = 0
                          M     ifdef PM_USED
                          M         LALL
                          M _init_IO
                          M         XALL
                          M     else
0295                      M _init_IO
                          M     endif
                      00715 
                      00716 ; C:\USERS\JESSADA\DESKTOP\LED DIMMER PROJECT\PIC16F886\MB_STDIM.BAS    00346   Z00062          ANSEL  =
                             %00000000                      ; for port a (digital I/O)
MPASM  5.36                      MB_STDIM.ASM   5-24-2019  13:22:05         PAGE 226


LOC  OBJECT CODE     LINE SOURCE TEXT
  VALUE

0295                  00717 Z00062
                      00718         MOVE?CB 000h, ANSEL
                          M         CHK?RP  ANSEL
                          M     if (((ANSEL) & 180h) == 0)
                          M       if (PREV_BANK == 1)
                          M         bcf     STATUS, RP0
                          M       endif
                          M       if (PREV_BANK == 2)
                          M         bcf     STATUS, RP1
                          M       endif
                          M       if (PREV_BANK == 3)
                          M         bcf     STATUS, RP0
                          M         bcf     STATUS, RP1
                          M       endif
                          M PREV_BANK = 0
                          M     endif
                          M 
                          M     if (((ANSEL) & 180h) == 80h)
                          M       if (PREV_BANK == 0)
                          M         bsf     STATUS, RP0
                          M       endif
                          M       if (PREV_BANK == 2)
                          M         bsf     STATUS, RP0
                          M         bcf     STATUS, RP1
                          M       endif
                          M       if (PREV_BANK == 3)
                          M         bcf     STATUS, RP1
                          M       endif
                          M PREV_BANK = 1
                          M     endif
                          M 
                          M     if (((ANSEL) & 180h) == 100h)
                          M       if (PREV_BANK == 0)
                          M         bsf     STATUS, RP1
                          M       endif
                          M       if (PREV_BANK == 1)
                          M         bcf     STATUS, RP0
                          M         bsf     STATUS, RP1
                          M       endif
                          M       if (PREV_BANK == 3)
                          M         bcf     STATUS, RP0
                          M       endif
                          M PREV_BANK = 2
                          M     endif
                          M 
                          M     if (((ANSEL) & 180h) == 180h)
                          M       if (PREV_BANK == 0)
0295   1683               M         bsf     STATUS, RP0
0296   1703               M         bsf     STATUS, RP1
                          M       endif
                          M       if (PREV_BANK == 1)
                          M         bsf     STATUS, RP1
                          M       endif
MPASM  5.36                      MB_STDIM.ASM   5-24-2019  13:22:05         PAGE 227


LOC  OBJECT CODE     LINE SOURCE TEXT
  VALUE

                          M       if (PREV_BANK == 2)
                          M         bsf     STATUS, RP0
                          M       endif
  00000003                M PREV_BANK = 3
                          M     endif
                          M     if (low (000h) == 0)
0297   0188               M         clrf    ANSEL
                          M     else
                          M         movlw   low (000h)
                          M         movwf   ANSEL
                          M     endif
                      00719 
                      00720 ; C:\USERS\JESSADA\DESKTOP\LED DIMMER PROJECT\PIC16F886\MB_STDIM.BAS    00347   Z00063          TRISA  =
                             %00100111              ; port a
0298                  00721 Z00063
                      00722         MOVE?CB 027h, TRISA
                          M         CHK?RP  TRISA
                          M     if (((TRISA) & 180h) == 0)
                          M       if (PREV_BANK == 1)
                          M         bcf     STATUS, RP0
                          M       endif
                          M       if (PREV_BANK == 2)
                          M         bcf     STATUS, RP1
                          M       endif
                          M       if (PREV_BANK == 3)
                          M         bcf     STATUS, RP0
                          M         bcf     STATUS, RP1
                          M       endif
                          M PREV_BANK = 0
                          M     endif
                          M 
                          M     if (((TRISA) & 180h) == 80h)
                          M       if (PREV_BANK == 0)
                          M         bsf     STATUS, RP0
                          M       endif
                          M       if (PREV_BANK == 2)
                          M         bsf     STATUS, RP0
                          M         bcf     STATUS, RP1
                          M       endif
                          M       if (PREV_BANK == 3)
0298   1303               M         bcf     STATUS, RP1
                          M       endif
  00000001                M PREV_BANK = 1
                          M     endif
                          M 
                          M     if (((TRISA) & 180h) == 100h)
                          M       if (PREV_BANK == 0)
                          M         bsf     STATUS, RP1
                          M       endif
                          M       if (PREV_BANK == 1)
                          M         bcf     STATUS, RP0
                          M         bsf     STATUS, RP1
                          M       endif
MPASM  5.36                      MB_STDIM.ASM   5-24-2019  13:22:05         PAGE 228


LOC  OBJECT CODE     LINE SOURCE TEXT
  VALUE

                          M       if (PREV_BANK == 3)
                          M         bcf     STATUS, RP0
                          M       endif
                          M PREV_BANK = 2
                          M     endif
                          M 
                          M     if (((TRISA) & 180h) == 180h)
                          M       if (PREV_BANK == 0)
                          M         bsf     STATUS, RP0
                          M         bsf     STATUS, RP1
                          M       endif
                          M       if (PREV_BANK == 1)
                          M         bsf     STATUS, RP1
                          M       endif
                          M       if (PREV_BANK == 2)
                          M         bsf     STATUS, RP0
                          M       endif
                          M PREV_BANK = 3
                          M     endif
                          M     if (low (027h) == 0)
                          M         clrf    TRISA
                          M     else
0299   3027               M         movlw   low (027h)
029A   0085               M         movwf   TRISA
                          M     endif
                      00723 
                      00724 ; C:\USERS\JESSADA\DESKTOP\LED DIMMER PROJECT\PIC16F886\MB_STDIM.BAS    00350   Z00064          TRISB  =
                             %00000000              ; port b
029B                  00725 Z00064
                      00726         MOVE?CB 000h, TRISB
                          M         CHK?RP  TRISB
                          M     if (((TRISB) & 180h) == 0)
                          M       if (PREV_BANK == 1)
                          M         bcf     STATUS, RP0
                          M       endif
                          M       if (PREV_BANK == 2)
                          M         bcf     STATUS, RP1
                          M       endif
                          M       if (PREV_BANK == 3)
                          M         bcf     STATUS, RP0
                          M         bcf     STATUS, RP1
                          M       endif
                          M PREV_BANK = 0
                          M     endif
                          M 
                          M     if (((TRISB) & 180h) == 80h)
                          M       if (PREV_BANK == 0)
                          M         bsf     STATUS, RP0
                          M       endif
                          M       if (PREV_BANK == 2)
                          M         bsf     STATUS, RP0
                          M         bcf     STATUS, RP1
                          M       endif
MPASM  5.36                      MB_STDIM.ASM   5-24-2019  13:22:05         PAGE 229


LOC  OBJECT CODE     LINE SOURCE TEXT
  VALUE

                          M       if (PREV_BANK == 3)
                          M         bcf     STATUS, RP1
                          M       endif
  00000001                M PREV_BANK = 1
                          M     endif
                          M 
                          M     if (((TRISB) & 180h) == 100h)
                          M       if (PREV_BANK == 0)
                          M         bsf     STATUS, RP1
                          M       endif
                          M       if (PREV_BANK == 1)
                          M         bcf     STATUS, RP0
                          M         bsf     STATUS, RP1
                          M       endif
                          M       if (PREV_BANK == 3)
                          M         bcf     STATUS, RP0
                          M       endif
                          M PREV_BANK = 2
                          M     endif
                          M 
                          M     if (((TRISB) & 180h) == 180h)
                          M       if (PREV_BANK == 0)
                          M         bsf     STATUS, RP0
                          M         bsf     STATUS, RP1
                          M       endif
                          M       if (PREV_BANK == 1)
                          M         bsf     STATUS, RP1
                          M       endif
                          M       if (PREV_BANK == 2)
                          M         bsf     STATUS, RP0
                          M       endif
                          M PREV_BANK = 3
                          M     endif
                          M     if (low (000h) == 0)
029B   0186               M         clrf    TRISB
                          M     else
                          M         movlw   low (000h)
                          M         movwf   TRISB
                          M     endif
                      00727 
                      00728 ; C:\USERS\JESSADA\DESKTOP\LED DIMMER PROJECT\PIC16F886\MB_STDIM.BAS    00351   Z00065          ANSELH =
                             %00000000                      ; Need to be initialize for port b
029C                  00729 Z00065
                      00730         MOVE?CB 000h, ANSELH
                          M         CHK?RP  ANSELH
                          M     if (((ANSELH) & 180h) == 0)
                          M       if (PREV_BANK == 1)
                          M         bcf     STATUS, RP0
                          M       endif
                          M       if (PREV_BANK == 2)
                          M         bcf     STATUS, RP1
                          M       endif
                          M       if (PREV_BANK == 3)
MPASM  5.36                      MB_STDIM.ASM   5-24-2019  13:22:05         PAGE 230


LOC  OBJECT CODE     LINE SOURCE TEXT
  VALUE

                          M         bcf     STATUS, RP0
                          M         bcf     STATUS, RP1
                          M       endif
                          M PREV_BANK = 0
                          M     endif
                          M 
                          M     if (((ANSELH) & 180h) == 80h)
                          M       if (PREV_BANK == 0)
                          M         bsf     STATUS, RP0
                          M       endif
                          M       if (PREV_BANK == 2)
                          M         bsf     STATUS, RP0
                          M         bcf     STATUS, RP1
                          M       endif
                          M       if (PREV_BANK == 3)
                          M         bcf     STATUS, RP1
                          M       endif
                          M PREV_BANK = 1
                          M     endif
                          M 
                          M     if (((ANSELH) & 180h) == 100h)
                          M       if (PREV_BANK == 0)
                          M         bsf     STATUS, RP1
                          M       endif
                          M       if (PREV_BANK == 1)
                          M         bcf     STATUS, RP0
                          M         bsf     STATUS, RP1
                          M       endif
                          M       if (PREV_BANK == 3)
                          M         bcf     STATUS, RP0
                          M       endif
                          M PREV_BANK = 2
                          M     endif
                          M 
                          M     if (((ANSELH) & 180h) == 180h)
                          M       if (PREV_BANK == 0)
                          M         bsf     STATUS, RP0
                          M         bsf     STATUS, RP1
                          M       endif
                          M       if (PREV_BANK == 1)
029C   1703               M         bsf     STATUS, RP1
                          M       endif
                          M       if (PREV_BANK == 2)
                          M         bsf     STATUS, RP0
                          M       endif
  00000003                M PREV_BANK = 3
                          M     endif
                          M     if (low (000h) == 0)
029D   0189               M         clrf    ANSELH
                          M     else
                          M         movlw   low (000h)
                          M         movwf   ANSELH
                          M     endif
MPASM  5.36                      MB_STDIM.ASM   5-24-2019  13:22:05         PAGE 231


LOC  OBJECT CODE     LINE SOURCE TEXT
  VALUE

                      00731 
                      00732 ; C:\USERS\JESSADA\DESKTOP\LED DIMMER PROJECT\PIC16F886\MB_STDIM.BAS    00354   Z00066          TRISC  =
                             %10000000              ; port b
029E                  00733 Z00066
                      00734         MOVE?CB 080h, TRISC
                          M         CHK?RP  TRISC
                          M     if (((TRISC) & 180h) == 0)
                          M       if (PREV_BANK == 1)
                          M         bcf     STATUS, RP0
                          M       endif
                          M       if (PREV_BANK == 2)
                          M         bcf     STATUS, RP1
                          M       endif
                          M       if (PREV_BANK == 3)
                          M         bcf     STATUS, RP0
                          M         bcf     STATUS, RP1
                          M       endif
                          M PREV_BANK = 0
                          M     endif
                          M 
                          M     if (((TRISC) & 180h) == 80h)
                          M       if (PREV_BANK == 0)
                          M         bsf     STATUS, RP0
                          M       endif
                          M       if (PREV_BANK == 2)
                          M         bsf     STATUS, RP0
                          M         bcf     STATUS, RP1
                          M       endif
                          M       if (PREV_BANK == 3)
029E   1303               M         bcf     STATUS, RP1
                          M       endif
  00000001                M PREV_BANK = 1
                          M     endif
                          M 
                          M     if (((TRISC) & 180h) == 100h)
                          M       if (PREV_BANK == 0)
                          M         bsf     STATUS, RP1
                          M       endif
                          M       if (PREV_BANK == 1)
                          M         bcf     STATUS, RP0
                          M         bsf     STATUS, RP1
                          M       endif
                          M       if (PREV_BANK == 3)
                          M         bcf     STATUS, RP0
                          M       endif
                          M PREV_BANK = 2
                          M     endif
                          M 
                          M     if (((TRISC) & 180h) == 180h)
                          M       if (PREV_BANK == 0)
                          M         bsf     STATUS, RP0
                          M         bsf     STATUS, RP1
                          M       endif
MPASM  5.36                      MB_STDIM.ASM   5-24-2019  13:22:05         PAGE 232


LOC  OBJECT CODE     LINE SOURCE TEXT
  VALUE

                          M       if (PREV_BANK == 1)
                          M         bsf     STATUS, RP1
                          M       endif
                          M       if (PREV_BANK == 2)
                          M         bsf     STATUS, RP0
                          M       endif
                          M PREV_BANK = 3
                          M     endif
                          M     if (low (080h) == 0)
                          M         clrf    TRISC
                          M     else
029F   3080               M         movlw   low (080h)
02A0   0087               M         movwf   TRISC
                          M     endif
                      00735 
                      00736 ; C:\USERS\JESSADA\DESKTOP\LED DIMMER PROJECT\PIC16F886\MB_STDIM.BAS    00355   Z00067          TRISC.7 
                            =1                                      ;receive pin
02A1                  00737 Z00067
                      00738         MOVE?CT 001h, _TRISC??7
                          M         CHK?RP  TRISC
                          M     if (((TRISC) & 180h) == 0)
                          M       if (PREV_BANK == 1)
                          M         bcf     STATUS, RP0
                          M       endif
                          M       if (PREV_BANK == 2)
                          M         bcf     STATUS, RP1
                          M       endif
                          M       if (PREV_BANK == 3)
                          M         bcf     STATUS, RP0
                          M         bcf     STATUS, RP1
                          M       endif
                          M PREV_BANK = 0
                          M     endif
                          M 
                          M     if (((TRISC) & 180h) == 80h)
                          M       if (PREV_BANK == 0)
                          M         bsf     STATUS, RP0
                          M       endif
                          M       if (PREV_BANK == 2)
                          M         bsf     STATUS, RP0
                          M         bcf     STATUS, RP1
                          M       endif
                          M       if (PREV_BANK == 3)
                          M         bcf     STATUS, RP1
                          M       endif
  00000001                M PREV_BANK = 1
                          M     endif
                          M 
                          M     if (((TRISC) & 180h) == 100h)
                          M       if (PREV_BANK == 0)
                          M         bsf     STATUS, RP1
                          M       endif
                          M       if (PREV_BANK == 1)
MPASM  5.36                      MB_STDIM.ASM   5-24-2019  13:22:05         PAGE 233


LOC  OBJECT CODE     LINE SOURCE TEXT
  VALUE

                          M         bcf     STATUS, RP0
                          M         bsf     STATUS, RP1
                          M       endif
                          M       if (PREV_BANK == 3)
                          M         bcf     STATUS, RP0
                          M       endif
                          M PREV_BANK = 2
                          M     endif
                          M 
                          M     if (((TRISC) & 180h) == 180h)
                          M       if (PREV_BANK == 0)
                          M         bsf     STATUS, RP0
                          M         bsf     STATUS, RP1
                          M       endif
                          M       if (PREV_BANK == 1)
                          M         bsf     STATUS, RP1
                          M       endif
                          M       if (PREV_BANK == 2)
                          M         bsf     STATUS, RP0
                          M       endif
                          M PREV_BANK = 3
                          M     endif
                          M     if (((001h) & 1) == 1)
02A1   1787               M         bsf     TRISC,  007h
                          M     else
                          M         bcf     TRISC,  007h
                          M     endif
                      00739 
                      00740 ; C:\USERS\JESSADA\DESKTOP\LED DIMMER PROJECT\PIC16F886\MB_STDIM.BAS    00356   Z00068          TRISC.6 
                            =0                                      ;transmit pin
02A2                  00741 Z00068
                      00742         MOVE?CT 000h, _TRISC??6
                          M         CHK?RP  TRISC
                          M     if (((TRISC) & 180h) == 0)
                          M       if (PREV_BANK == 1)
                          M         bcf     STATUS, RP0
                          M       endif
                          M       if (PREV_BANK == 2)
                          M         bcf     STATUS, RP1
                          M       endif
                          M       if (PREV_BANK == 3)
                          M         bcf     STATUS, RP0
                          M         bcf     STATUS, RP1
                          M       endif
                          M PREV_BANK = 0
                          M     endif
                          M 
                          M     if (((TRISC) & 180h) == 80h)
                          M       if (PREV_BANK == 0)
                          M         bsf     STATUS, RP0
                          M       endif
                          M       if (PREV_BANK == 2)
                          M         bsf     STATUS, RP0
MPASM  5.36                      MB_STDIM.ASM   5-24-2019  13:22:05         PAGE 234


LOC  OBJECT CODE     LINE SOURCE TEXT
  VALUE

                          M         bcf     STATUS, RP1
                          M       endif
                          M       if (PREV_BANK == 3)
                          M         bcf     STATUS, RP1
                          M       endif
  00000001                M PREV_BANK = 1
                          M     endif
                          M 
                          M     if (((TRISC) & 180h) == 100h)
                          M       if (PREV_BANK == 0)
                          M         bsf     STATUS, RP1
                          M       endif
                          M       if (PREV_BANK == 1)
                          M         bcf     STATUS, RP0
                          M         bsf     STATUS, RP1
                          M       endif
                          M       if (PREV_BANK == 3)
                          M         bcf     STATUS, RP0
                          M       endif
                          M PREV_BANK = 2
                          M     endif
                          M 
                          M     if (((TRISC) & 180h) == 180h)
                          M       if (PREV_BANK == 0)
                          M         bsf     STATUS, RP0
                          M         bsf     STATUS, RP1
                          M       endif
                          M       if (PREV_BANK == 1)
                          M         bsf     STATUS, RP1
                          M       endif
                          M       if (PREV_BANK == 2)
                          M         bsf     STATUS, RP0
                          M       endif
                          M PREV_BANK = 3
                          M     endif
                          M     if (((000h) & 1) == 1)
                          M         bsf     TRISC,  006h
                          M     else
02A2   1307               M         bcf     TRISC,  006h
                          M     endif
                      00743 
                      00744 ; C:\USERS\JESSADA\DESKTOP\LED DIMMER PROJECT\PIC16F886\MB_STDIM.BAS    00357   Z00069          debug 13
                            ,10,"init IO",13,10
02A3                  00745 Z00069
                      00746         DEBUG?C 00Dh
02A3   300D               M         movlw   00Dh
                          M         L?CALL  DEBUG
                          M         RST?RP
                          M     if ((PREV_BANK & 1) != 0)
02A4   1283               M         bcf     STATUS, RP0
                          M     endif
                          M     if ((PREV_BANK & 2) != 0)
                          M         bcf     STATUS, RP1
MPASM  5.36                      MB_STDIM.ASM   5-24-2019  13:22:05         PAGE 235


LOC  OBJECT CODE     LINE SOURCE TEXT
  VALUE

                          M     endif
  00000000                M PREV_BANK = 0
                          M 
                          M     ifdef USE_LINKER
                          M       if (CODE_SIZE > 2)
                          M         pagesel DEBUG
                          M       endif
                          M     else
                          M       if ((DEBUG) < 1)
                          M         if (CODE_SIZE > 2)
                          M           if (((DEBUG) & 800h) == 0)
                          M         bcf     PCLATH, 3
                          M         else
                          M         bsf     PCLATH, 3
                          M         endif
                          M         endif
                          M         if (CODE_SIZE > 4)
                          M           if (((DEBUG) & 1000h) == 0)
                          M         bcf     PCLATH, 4
                          M           else
                          M         bsf     PCLATH, 4
                          M           endif
                          M         endif
                          M       else
                          M         if ((DEBUG) > $)
                          M           if (CODE_SIZE > 2)
                          M             if (((DEBUG) & 800h) == 0)
                          M         bcf     PCLATH, 3
                          M             else
                          M         bsf     PCLATH, 3
                          M             endif
                          M           endif
                          M           if (CODE_SIZE > 4)
                          M             if (((DEBUG) & 1000h) == 0)
                          M         bcf     PCLATH, 4
                          M             else
                          M         bsf     PCLATH, 4
                          M             endif
                          M           endif
                          M         else
                          M           if (CODE_SIZE > 2)
                          M             if (((DEBUG) & 1800h) == 0)
02A5   018A               M         clrf    PCLATH
                          M             else
                          M               if (((DEBUG) & 800h) == 0)
                          M         bcf     PCLATH, 3
                          M               else
                          M         bsf     PCLATH, 3
                          M               endif
                          M               if (CODE_SIZE > 4)
                          M                 if (((DEBUG) & 1000h) == 0)
                          M         bcf     PCLATH, 4
                          M                 else
MPASM  5.36                      MB_STDIM.ASM   5-24-2019  13:22:05         PAGE 236


LOC  OBJECT CODE     LINE SOURCE TEXT
  VALUE

                          M         bsf     PCLATH, 4
                          M                 endif   
                          M               endif
                          M             endif
                          M           endif
                          M         endif
                          M       endif
                          M     endif
                          M 
02A6   200D               M         call    DEBUG
                      00747         DEBUG?C 00Ah
02A7   300A               M         movlw   00Ah
                          M         L?CALL  DEBUG
                          M         RST?RP
                          M     if ((PREV_BANK & 1) != 0)
                          M         bcf     STATUS, RP0
                          M     endif
                          M     if ((PREV_BANK & 2) != 0)
                          M         bcf     STATUS, RP1
                          M     endif
  00000000                M PREV_BANK = 0
                          M 
                          M     ifdef USE_LINKER
                          M       if (CODE_SIZE > 2)
                          M         pagesel DEBUG
                          M       endif
                          M     else
                          M       if ((DEBUG) < 1)
                          M         if (CODE_SIZE > 2)
                          M           if (((DEBUG) & 800h) == 0)
                          M         bcf     PCLATH, 3
                          M         else
                          M         bsf     PCLATH, 3
                          M         endif
                          M         endif
                          M         if (CODE_SIZE > 4)
                          M           if (((DEBUG) & 1000h) == 0)
                          M         bcf     PCLATH, 4
                          M           else
                          M         bsf     PCLATH, 4
                          M           endif
                          M         endif
                          M       else
                          M         if ((DEBUG) > $)
                          M           if (CODE_SIZE > 2)
                          M             if (((DEBUG) & 800h) == 0)
                          M         bcf     PCLATH, 3
                          M             else
                          M         bsf     PCLATH, 3
                          M             endif
                          M           endif
                          M           if (CODE_SIZE > 4)
                          M             if (((DEBUG) & 1000h) == 0)
MPASM  5.36                      MB_STDIM.ASM   5-24-2019  13:22:05         PAGE 237


LOC  OBJECT CODE     LINE SOURCE TEXT
  VALUE

                          M         bcf     PCLATH, 4
                          M             else
                          M         bsf     PCLATH, 4
                          M             endif
                          M           endif
                          M         else
                          M           if (CODE_SIZE > 2)
                          M             if (((DEBUG) & 1800h) == 0)
02A8   018A               M         clrf    PCLATH
                          M             else
                          M               if (((DEBUG) & 800h) == 0)
                          M         bcf     PCLATH, 3
                          M               else
                          M         bsf     PCLATH, 3
                          M               endif
                          M               if (CODE_SIZE > 4)
                          M                 if (((DEBUG) & 1000h) == 0)
                          M         bcf     PCLATH, 4
                          M                 else
                          M         bsf     PCLATH, 4
                          M                 endif   
                          M               endif
                          M             endif
                          M           endif
                          M         endif
                          M       endif
                          M     endif
                          M 
02A9   200D               M         call    DEBUG
                      00748         DEBUG?C 069h
02AA   3069               M         movlw   069h
                          M         L?CALL  DEBUG
                          M         RST?RP
                          M     if ((PREV_BANK & 1) != 0)
                          M         bcf     STATUS, RP0
                          M     endif
                          M     if ((PREV_BANK & 2) != 0)
                          M         bcf     STATUS, RP1
                          M     endif
  00000000                M PREV_BANK = 0
                          M 
                          M     ifdef USE_LINKER
                          M       if (CODE_SIZE > 2)
                          M         pagesel DEBUG
                          M       endif
                          M     else
                          M       if ((DEBUG) < 1)
                          M         if (CODE_SIZE > 2)
                          M           if (((DEBUG) & 800h) == 0)
                          M         bcf     PCLATH, 3
                          M         else
                          M         bsf     PCLATH, 3
                          M         endif
MPASM  5.36                      MB_STDIM.ASM   5-24-2019  13:22:05         PAGE 238


LOC  OBJECT CODE     LINE SOURCE TEXT
  VALUE

                          M         endif
                          M         if (CODE_SIZE > 4)
                          M           if (((DEBUG) & 1000h) == 0)
                          M         bcf     PCLATH, 4
                          M           else
                          M         bsf     PCLATH, 4
                          M           endif
                          M         endif
                          M       else
                          M         if ((DEBUG) > $)
                          M           if (CODE_SIZE > 2)
                          M             if (((DEBUG) & 800h) == 0)
                          M         bcf     PCLATH, 3
                          M             else
                          M         bsf     PCLATH, 3
                          M             endif
                          M           endif
                          M           if (CODE_SIZE > 4)
                          M             if (((DEBUG) & 1000h) == 0)
                          M         bcf     PCLATH, 4
                          M             else
                          M         bsf     PCLATH, 4
                          M             endif
                          M           endif
                          M         else
                          M           if (CODE_SIZE > 2)
                          M             if (((DEBUG) & 1800h) == 0)
02AB   018A               M         clrf    PCLATH
                          M             else
                          M               if (((DEBUG) & 800h) == 0)
                          M         bcf     PCLATH, 3
                          M               else
                          M         bsf     PCLATH, 3
                          M               endif
                          M               if (CODE_SIZE > 4)
                          M                 if (((DEBUG) & 1000h) == 0)
                          M         bcf     PCLATH, 4
                          M                 else
                          M         bsf     PCLATH, 4
                          M                 endif   
                          M               endif
                          M             endif
                          M           endif
                          M         endif
                          M       endif
                          M     endif
                          M 
02AC   200D               M         call    DEBUG
                      00749         DEBUG?C 06Eh
02AD   306E               M         movlw   06Eh
                          M         L?CALL  DEBUG
                          M         RST?RP
                          M     if ((PREV_BANK & 1) != 0)
MPASM  5.36                      MB_STDIM.ASM   5-24-2019  13:22:05         PAGE 239


LOC  OBJECT CODE     LINE SOURCE TEXT
  VALUE

                          M         bcf     STATUS, RP0
                          M     endif
                          M     if ((PREV_BANK & 2) != 0)
                          M         bcf     STATUS, RP1
                          M     endif
  00000000                M PREV_BANK = 0
                          M 
                          M     ifdef USE_LINKER
                          M       if (CODE_SIZE > 2)
                          M         pagesel DEBUG
                          M       endif
                          M     else
                          M       if ((DEBUG) < 1)
                          M         if (CODE_SIZE > 2)
                          M           if (((DEBUG) & 800h) == 0)
                          M         bcf     PCLATH, 3
                          M         else
                          M         bsf     PCLATH, 3
                          M         endif
                          M         endif
                          M         if (CODE_SIZE > 4)
                          M           if (((DEBUG) & 1000h) == 0)
                          M         bcf     PCLATH, 4
                          M           else
                          M         bsf     PCLATH, 4
                          M           endif
                          M         endif
                          M       else
                          M         if ((DEBUG) > $)
                          M           if (CODE_SIZE > 2)
                          M             if (((DEBUG) & 800h) == 0)
                          M         bcf     PCLATH, 3
                          M             else
                          M         bsf     PCLATH, 3
                          M             endif
                          M           endif
                          M           if (CODE_SIZE > 4)
                          M             if (((DEBUG) & 1000h) == 0)
                          M         bcf     PCLATH, 4
                          M             else
                          M         bsf     PCLATH, 4
                          M             endif
                          M           endif
                          M         else
                          M           if (CODE_SIZE > 2)
                          M             if (((DEBUG) & 1800h) == 0)
02AE   018A               M         clrf    PCLATH
                          M             else
                          M               if (((DEBUG) & 800h) == 0)
                          M         bcf     PCLATH, 3
                          M               else
                          M         bsf     PCLATH, 3
                          M               endif
MPASM  5.36                      MB_STDIM.ASM   5-24-2019  13:22:05         PAGE 240


LOC  OBJECT CODE     LINE SOURCE TEXT
  VALUE

                          M               if (CODE_SIZE > 4)
                          M                 if (((DEBUG) & 1000h) == 0)
                          M         bcf     PCLATH, 4
                          M                 else
                          M         bsf     PCLATH, 4
                          M                 endif   
                          M               endif
                          M             endif
                          M           endif
                          M         endif
                          M       endif
                          M     endif
                          M 
02AF   200D               M         call    DEBUG
                      00750         DEBUG?C 069h
02B0   3069               M         movlw   069h
                          M         L?CALL  DEBUG
                          M         RST?RP
                          M     if ((PREV_BANK & 1) != 0)
                          M         bcf     STATUS, RP0
                          M     endif
                          M     if ((PREV_BANK & 2) != 0)
                          M         bcf     STATUS, RP1
                          M     endif
  00000000                M PREV_BANK = 0
                          M 
                          M     ifdef USE_LINKER
                          M       if (CODE_SIZE > 2)
                          M         pagesel DEBUG
                          M       endif
                          M     else
                          M       if ((DEBUG) < 1)
                          M         if (CODE_SIZE > 2)
                          M           if (((DEBUG) & 800h) == 0)
                          M         bcf     PCLATH, 3
                          M         else
                          M         bsf     PCLATH, 3
                          M         endif
                          M         endif
                          M         if (CODE_SIZE > 4)
                          M           if (((DEBUG) & 1000h) == 0)
                          M         bcf     PCLATH, 4
                          M           else
                          M         bsf     PCLATH, 4
                          M           endif
                          M         endif
                          M       else
                          M         if ((DEBUG) > $)
                          M           if (CODE_SIZE > 2)
                          M             if (((DEBUG) & 800h) == 0)
                          M         bcf     PCLATH, 3
                          M             else
                          M         bsf     PCLATH, 3
MPASM  5.36                      MB_STDIM.ASM   5-24-2019  13:22:05         PAGE 241


LOC  OBJECT CODE     LINE SOURCE TEXT
  VALUE

                          M             endif
                          M           endif
                          M           if (CODE_SIZE > 4)
                          M             if (((DEBUG) & 1000h) == 0)
                          M         bcf     PCLATH, 4
                          M             else
                          M         bsf     PCLATH, 4
                          M             endif
                          M           endif
                          M         else
                          M           if (CODE_SIZE > 2)
                          M             if (((DEBUG) & 1800h) == 0)
02B1   018A               M         clrf    PCLATH
                          M             else
                          M               if (((DEBUG) & 800h) == 0)
                          M         bcf     PCLATH, 3
                          M               else
                          M         bsf     PCLATH, 3
                          M               endif
                          M               if (CODE_SIZE > 4)
                          M                 if (((DEBUG) & 1000h) == 0)
                          M         bcf     PCLATH, 4
                          M                 else
                          M         bsf     PCLATH, 4
                          M                 endif   
                          M               endif
                          M             endif
                          M           endif
                          M         endif
                          M       endif
                          M     endif
                          M 
02B2   200D               M         call    DEBUG
                      00751         DEBUG?C 074h
02B3   3074               M         movlw   074h
                          M         L?CALL  DEBUG
                          M         RST?RP
                          M     if ((PREV_BANK & 1) != 0)
                          M         bcf     STATUS, RP0
                          M     endif
                          M     if ((PREV_BANK & 2) != 0)
                          M         bcf     STATUS, RP1
                          M     endif
  00000000                M PREV_BANK = 0
                          M 
                          M     ifdef USE_LINKER
                          M       if (CODE_SIZE > 2)
                          M         pagesel DEBUG
                          M       endif
                          M     else
                          M       if ((DEBUG) < 1)
                          M         if (CODE_SIZE > 2)
                          M           if (((DEBUG) & 800h) == 0)
MPASM  5.36                      MB_STDIM.ASM   5-24-2019  13:22:05         PAGE 242


LOC  OBJECT CODE     LINE SOURCE TEXT
  VALUE

                          M         bcf     PCLATH, 3
                          M         else
                          M         bsf     PCLATH, 3
                          M         endif
                          M         endif
                          M         if (CODE_SIZE > 4)
                          M           if (((DEBUG) & 1000h) == 0)
                          M         bcf     PCLATH, 4
                          M           else
                          M         bsf     PCLATH, 4
                          M           endif
                          M         endif
                          M       else
                          M         if ((DEBUG) > $)
                          M           if (CODE_SIZE > 2)
                          M             if (((DEBUG) & 800h) == 0)
                          M         bcf     PCLATH, 3
                          M             else
                          M         bsf     PCLATH, 3
                          M             endif
                          M           endif
                          M           if (CODE_SIZE > 4)
                          M             if (((DEBUG) & 1000h) == 0)
                          M         bcf     PCLATH, 4
                          M             else
                          M         bsf     PCLATH, 4
                          M             endif
                          M           endif
                          M         else
                          M           if (CODE_SIZE > 2)
                          M             if (((DEBUG) & 1800h) == 0)
02B4   018A               M         clrf    PCLATH
                          M             else
                          M               if (((DEBUG) & 800h) == 0)
                          M         bcf     PCLATH, 3
                          M               else
                          M         bsf     PCLATH, 3
                          M               endif
                          M               if (CODE_SIZE > 4)
                          M                 if (((DEBUG) & 1000h) == 0)
                          M         bcf     PCLATH, 4
                          M                 else
                          M         bsf     PCLATH, 4
                          M                 endif   
                          M               endif
                          M             endif
                          M           endif
                          M         endif
                          M       endif
                          M     endif
                          M 
02B5   200D               M         call    DEBUG
                      00752         DEBUG?C 020h
MPASM  5.36                      MB_STDIM.ASM   5-24-2019  13:22:05         PAGE 243


LOC  OBJECT CODE     LINE SOURCE TEXT
  VALUE

02B6   3020               M         movlw   020h
                          M         L?CALL  DEBUG
                          M         RST?RP
                          M     if ((PREV_BANK & 1) != 0)
                          M         bcf     STATUS, RP0
                          M     endif
                          M     if ((PREV_BANK & 2) != 0)
                          M         bcf     STATUS, RP1
                          M     endif
  00000000                M PREV_BANK = 0
                          M 
                          M     ifdef USE_LINKER
                          M       if (CODE_SIZE > 2)
                          M         pagesel DEBUG
                          M       endif
                          M     else
                          M       if ((DEBUG) < 1)
                          M         if (CODE_SIZE > 2)
                          M           if (((DEBUG) & 800h) == 0)
                          M         bcf     PCLATH, 3
                          M         else
                          M         bsf     PCLATH, 3
                          M         endif
                          M         endif
                          M         if (CODE_SIZE > 4)
                          M           if (((DEBUG) & 1000h) == 0)
                          M         bcf     PCLATH, 4
                          M           else
                          M         bsf     PCLATH, 4
                          M           endif
                          M         endif
                          M       else
                          M         if ((DEBUG) > $)
                          M           if (CODE_SIZE > 2)
                          M             if (((DEBUG) & 800h) == 0)
                          M         bcf     PCLATH, 3
                          M             else
                          M         bsf     PCLATH, 3
                          M             endif
                          M           endif
                          M           if (CODE_SIZE > 4)
                          M             if (((DEBUG) & 1000h) == 0)
                          M         bcf     PCLATH, 4
                          M             else
                          M         bsf     PCLATH, 4
                          M             endif
                          M           endif
                          M         else
                          M           if (CODE_SIZE > 2)
                          M             if (((DEBUG) & 1800h) == 0)
02B7   018A               M         clrf    PCLATH
                          M             else
                          M               if (((DEBUG) & 800h) == 0)
MPASM  5.36                      MB_STDIM.ASM   5-24-2019  13:22:05         PAGE 244


LOC  OBJECT CODE     LINE SOURCE TEXT
  VALUE

                          M         bcf     PCLATH, 3
                          M               else
                          M         bsf     PCLATH, 3
                          M               endif
                          M               if (CODE_SIZE > 4)
                          M                 if (((DEBUG) & 1000h) == 0)
                          M         bcf     PCLATH, 4
                          M                 else
                          M         bsf     PCLATH, 4
                          M                 endif   
                          M               endif
                          M             endif
                          M           endif
                          M         endif
                          M       endif
                          M     endif
                          M 
02B8   200D               M         call    DEBUG
                      00753         DEBUG?C 049h
02B9   3049               M         movlw   049h
                          M         L?CALL  DEBUG
                          M         RST?RP
                          M     if ((PREV_BANK & 1) != 0)
                          M         bcf     STATUS, RP0
                          M     endif
                          M     if ((PREV_BANK & 2) != 0)
                          M         bcf     STATUS, RP1
                          M     endif
  00000000                M PREV_BANK = 0
                          M 
                          M     ifdef USE_LINKER
                          M       if (CODE_SIZE > 2)
                          M         pagesel DEBUG
                          M       endif
                          M     else
                          M       if ((DEBUG) < 1)
                          M         if (CODE_SIZE > 2)
                          M           if (((DEBUG) & 800h) == 0)
                          M         bcf     PCLATH, 3
                          M         else
                          M         bsf     PCLATH, 3
                          M         endif
                          M         endif
                          M         if (CODE_SIZE > 4)
                          M           if (((DEBUG) & 1000h) == 0)
                          M         bcf     PCLATH, 4
                          M           else
                          M         bsf     PCLATH, 4
                          M           endif
                          M         endif
                          M       else
                          M         if ((DEBUG) > $)
                          M           if (CODE_SIZE > 2)
MPASM  5.36                      MB_STDIM.ASM   5-24-2019  13:22:05         PAGE 245


LOC  OBJECT CODE     LINE SOURCE TEXT
  VALUE

                          M             if (((DEBUG) & 800h) == 0)
                          M         bcf     PCLATH, 3
                          M             else
                          M         bsf     PCLATH, 3
                          M             endif
                          M           endif
                          M           if (CODE_SIZE > 4)
                          M             if (((DEBUG) & 1000h) == 0)
                          M         bcf     PCLATH, 4
                          M             else
                          M         bsf     PCLATH, 4
                          M             endif
                          M           endif
                          M         else
                          M           if (CODE_SIZE > 2)
                          M             if (((DEBUG) & 1800h) == 0)
02BA   018A               M         clrf    PCLATH
                          M             else
                          M               if (((DEBUG) & 800h) == 0)
                          M         bcf     PCLATH, 3
                          M               else
                          M         bsf     PCLATH, 3
                          M               endif
                          M               if (CODE_SIZE > 4)
                          M                 if (((DEBUG) & 1000h) == 0)
                          M         bcf     PCLATH, 4
                          M                 else
                          M         bsf     PCLATH, 4
                          M                 endif   
                          M               endif
                          M             endif
                          M           endif
                          M         endif
                          M       endif
                          M     endif
                          M 
02BB   200D               M         call    DEBUG
                      00754         DEBUG?C 04Fh
02BC   304F               M         movlw   04Fh
                          M         L?CALL  DEBUG
                          M         RST?RP
                          M     if ((PREV_BANK & 1) != 0)
                          M         bcf     STATUS, RP0
                          M     endif
                          M     if ((PREV_BANK & 2) != 0)
                          M         bcf     STATUS, RP1
                          M     endif
  00000000                M PREV_BANK = 0
                          M 
                          M     ifdef USE_LINKER
                          M       if (CODE_SIZE > 2)
                          M         pagesel DEBUG
                          M       endif
MPASM  5.36                      MB_STDIM.ASM   5-24-2019  13:22:05         PAGE 246


LOC  OBJECT CODE     LINE SOURCE TEXT
  VALUE

                          M     else
                          M       if ((DEBUG) < 1)
                          M         if (CODE_SIZE > 2)
                          M           if (((DEBUG) & 800h) == 0)
                          M         bcf     PCLATH, 3
                          M         else
                          M         bsf     PCLATH, 3
                          M         endif
                          M         endif
                          M         if (CODE_SIZE > 4)
                          M           if (((DEBUG) & 1000h) == 0)
                          M         bcf     PCLATH, 4
                          M           else
                          M         bsf     PCLATH, 4
                          M           endif
                          M         endif
                          M       else
                          M         if ((DEBUG) > $)
                          M           if (CODE_SIZE > 2)
                          M             if (((DEBUG) & 800h) == 0)
                          M         bcf     PCLATH, 3
                          M             else
                          M         bsf     PCLATH, 3
                          M             endif
                          M           endif
                          M           if (CODE_SIZE > 4)
                          M             if (((DEBUG) & 1000h) == 0)
                          M         bcf     PCLATH, 4
                          M             else
                          M         bsf     PCLATH, 4
                          M             endif
                          M           endif
                          M         else
                          M           if (CODE_SIZE > 2)
                          M             if (((DEBUG) & 1800h) == 0)
02BD   018A               M         clrf    PCLATH
                          M             else
                          M               if (((DEBUG) & 800h) == 0)
                          M         bcf     PCLATH, 3
                          M               else
                          M         bsf     PCLATH, 3
                          M               endif
                          M               if (CODE_SIZE > 4)
                          M                 if (((DEBUG) & 1000h) == 0)
                          M         bcf     PCLATH, 4
                          M                 else
                          M         bsf     PCLATH, 4
                          M                 endif   
                          M               endif
                          M             endif
                          M           endif
                          M         endif
                          M       endif
MPASM  5.36                      MB_STDIM.ASM   5-24-2019  13:22:05         PAGE 247


LOC  OBJECT CODE     LINE SOURCE TEXT
  VALUE

                          M     endif
                          M 
02BE   200D               M         call    DEBUG
                      00755         DEBUG?C 00Dh
02BF   300D               M         movlw   00Dh
                          M         L?CALL  DEBUG
                          M         RST?RP
                          M     if ((PREV_BANK & 1) != 0)
                          M         bcf     STATUS, RP0
                          M     endif
                          M     if ((PREV_BANK & 2) != 0)
                          M         bcf     STATUS, RP1
                          M     endif
  00000000                M PREV_BANK = 0
                          M 
                          M     ifdef USE_LINKER
                          M       if (CODE_SIZE > 2)
                          M         pagesel DEBUG
                          M       endif
                          M     else
                          M       if ((DEBUG) < 1)
                          M         if (CODE_SIZE > 2)
                          M           if (((DEBUG) & 800h) == 0)
                          M         bcf     PCLATH, 3
                          M         else
                          M         bsf     PCLATH, 3
                          M         endif
                          M         endif
                          M         if (CODE_SIZE > 4)
                          M           if (((DEBUG) & 1000h) == 0)
                          M         bcf     PCLATH, 4
                          M           else
                          M         bsf     PCLATH, 4
                          M           endif
                          M         endif
                          M       else
                          M         if ((DEBUG) > $)
                          M           if (CODE_SIZE > 2)
                          M             if (((DEBUG) & 800h) == 0)
                          M         bcf     PCLATH, 3
                          M             else
                          M         bsf     PCLATH, 3
                          M             endif
                          M           endif
                          M           if (CODE_SIZE > 4)
                          M             if (((DEBUG) & 1000h) == 0)
                          M         bcf     PCLATH, 4
                          M             else
                          M         bsf     PCLATH, 4
                          M             endif
                          M           endif
                          M         else
                          M           if (CODE_SIZE > 2)
MPASM  5.36                      MB_STDIM.ASM   5-24-2019  13:22:05         PAGE 248


LOC  OBJECT CODE     LINE SOURCE TEXT
  VALUE

                          M             if (((DEBUG) & 1800h) == 0)
02C0   018A               M         clrf    PCLATH
                          M             else
                          M               if (((DEBUG) & 800h) == 0)
                          M         bcf     PCLATH, 3
                          M               else
                          M         bsf     PCLATH, 3
                          M               endif
                          M               if (CODE_SIZE > 4)
                          M                 if (((DEBUG) & 1000h) == 0)
                          M         bcf     PCLATH, 4
                          M                 else
                          M         bsf     PCLATH, 4
                          M                 endif   
                          M               endif
                          M             endif
                          M           endif
                          M         endif
                          M       endif
                          M     endif
                          M 
02C1   200D               M         call    DEBUG
                      00756         DEBUG?C 00Ah
02C2   300A               M         movlw   00Ah
                          M         L?CALL  DEBUG
                          M         RST?RP
                          M     if ((PREV_BANK & 1) != 0)
                          M         bcf     STATUS, RP0
                          M     endif
                          M     if ((PREV_BANK & 2) != 0)
                          M         bcf     STATUS, RP1
                          M     endif
  00000000                M PREV_BANK = 0
                          M 
                          M     ifdef USE_LINKER
                          M       if (CODE_SIZE > 2)
                          M         pagesel DEBUG
                          M       endif
                          M     else
                          M       if ((DEBUG) < 1)
                          M         if (CODE_SIZE > 2)
                          M           if (((DEBUG) & 800h) == 0)
                          M         bcf     PCLATH, 3
                          M         else
                          M         bsf     PCLATH, 3
                          M         endif
                          M         endif
                          M         if (CODE_SIZE > 4)
                          M           if (((DEBUG) & 1000h) == 0)
                          M         bcf     PCLATH, 4
                          M           else
                          M         bsf     PCLATH, 4
                          M           endif
MPASM  5.36                      MB_STDIM.ASM   5-24-2019  13:22:05         PAGE 249


LOC  OBJECT CODE     LINE SOURCE TEXT
  VALUE

                          M         endif
                          M       else
                          M         if ((DEBUG) > $)
                          M           if (CODE_SIZE > 2)
                          M             if (((DEBUG) & 800h) == 0)
                          M         bcf     PCLATH, 3
                          M             else
                          M         bsf     PCLATH, 3
                          M             endif
                          M           endif
                          M           if (CODE_SIZE > 4)
                          M             if (((DEBUG) & 1000h) == 0)
                          M         bcf     PCLATH, 4
                          M             else
                          M         bsf     PCLATH, 4
                          M             endif
                          M           endif
                          M         else
                          M           if (CODE_SIZE > 2)
                          M             if (((DEBUG) & 1800h) == 0)
02C3   018A               M         clrf    PCLATH
                          M             else
                          M               if (((DEBUG) & 800h) == 0)
                          M         bcf     PCLATH, 3
                          M               else
                          M         bsf     PCLATH, 3
                          M               endif
                          M               if (CODE_SIZE > 4)
                          M                 if (((DEBUG) & 1000h) == 0)
                          M         bcf     PCLATH, 4
                          M                 else
                          M         bsf     PCLATH, 4
                          M                 endif   
                          M               endif
                          M             endif
                          M           endif
                          M         endif
                          M       endif
                          M     endif
                          M 
02C4   200D               M         call    DEBUG
                      00757 
                      00758 ; C:\USERS\JESSADA\DESKTOP\LED DIMMER PROJECT\PIC16F886\MB_STDIM.BAS    00359   Z0006A          return
02C5                  00759 Z0006A
                      00760         RETURN? 
                          M     ifdef DEBUG_STACK
                          M         CHK?RP  DEBUG_STACK
                          M         decf    DEBUG_STACK, F
                          M     endif
                          M         RST?RP
                          M     if ((PREV_BANK & 1) != 0)
                          M         bcf     STATUS, RP0
                          M     endif
MPASM  5.36                      MB_STDIM.ASM   5-24-2019  13:22:05         PAGE 250


LOC  OBJECT CODE     LINE SOURCE TEXT
  VALUE

                          M     if ((PREV_BANK & 2) != 0)
                          M         bcf     STATUS, RP1
                          M     endif
  00000000                M PREV_BANK = 0
02C5   0008               M         return
                      00761 
                      00762 ; C:\USERS\JESSADA\DESKTOP\LED DIMMER PROJECT\PIC16F886\MB_STDIM.BAS    00363   Z0006B  init_EUSART:
02C6                  00763 Z0006B
                      00764 
                      00765         LABEL?L _init_EUSART    
                          M         RST?RP
                          M     if ((PREV_BANK & 1) != 0)
                          M         bcf     STATUS, RP0
                          M     endif
                          M     if ((PREV_BANK & 2) != 0)
                          M         bcf     STATUS, RP1
                          M     endif
  00000000                M PREV_BANK = 0
                          M     ifdef PM_USED
                          M         LALL
                          M _init_EUSART
                          M         XALL
                          M     else
02C6                      M _init_EUSART
                          M     endif
                      00766 
                      00767 ; C:\USERS\JESSADA\DESKTOP\LED DIMMER PROJECT\PIC16F886\MB_STDIM.BAS    00365   Z0006C          RCSTA = 
                            $90   ' Enable serial port & continuous receive
02C6                  00768 Z0006C
                      00769         MOVE?CB 090h, RCSTA
                          M         CHK?RP  RCSTA
                          M     if (((RCSTA) & 180h) == 0)
                          M       if (PREV_BANK == 1)
                          M         bcf     STATUS, RP0
                          M       endif
                          M       if (PREV_BANK == 2)
                          M         bcf     STATUS, RP1
                          M       endif
                          M       if (PREV_BANK == 3)
                          M         bcf     STATUS, RP0
                          M         bcf     STATUS, RP1
                          M       endif
  00000000                M PREV_BANK = 0
                          M     endif
                          M 
                          M     if (((RCSTA) & 180h) == 80h)
                          M       if (PREV_BANK == 0)
                          M         bsf     STATUS, RP0
                          M       endif
                          M       if (PREV_BANK == 2)
                          M         bsf     STATUS, RP0
                          M         bcf     STATUS, RP1
                          M       endif
MPASM  5.36                      MB_STDIM.ASM   5-24-2019  13:22:05         PAGE 251


LOC  OBJECT CODE     LINE SOURCE TEXT
  VALUE

                          M       if (PREV_BANK == 3)
                          M         bcf     STATUS, RP1
                          M       endif
                          M PREV_BANK = 1
                          M     endif
                          M 
                          M     if (((RCSTA) & 180h) == 100h)
                          M       if (PREV_BANK == 0)
                          M         bsf     STATUS, RP1
                          M       endif
                          M       if (PREV_BANK == 1)
                          M         bcf     STATUS, RP0
                          M         bsf     STATUS, RP1
                          M       endif
                          M       if (PREV_BANK == 3)
                          M         bcf     STATUS, RP0
                          M       endif
                          M PREV_BANK = 2
                          M     endif
                          M 
                          M     if (((RCSTA) & 180h) == 180h)
                          M       if (PREV_BANK == 0)
                          M         bsf     STATUS, RP0
                          M         bsf     STATUS, RP1
                          M       endif
                          M       if (PREV_BANK == 1)
                          M         bsf     STATUS, RP1
                          M       endif
                          M       if (PREV_BANK == 2)
                          M         bsf     STATUS, RP0
                          M       endif
                          M PREV_BANK = 3
                          M     endif
                          M     if (low (090h) == 0)
                          M         clrf    RCSTA
                          M     else
02C6   3090               M         movlw   low (090h)
02C7   0098               M         movwf   RCSTA
                          M     endif
                      00770 
                      00771 ; C:\USERS\JESSADA\DESKTOP\LED DIMMER PROJECT\PIC16F886\MB_STDIM.BAS    00366   Z0006D          TXSTA = 
                            $24   ' Enable transmit, BRGH = 1
02C8                  00772 Z0006D
                      00773         MOVE?CB 024h, TXSTA
                          M         CHK?RP  TXSTA
                          M     if (((TXSTA) & 180h) == 0)
                          M       if (PREV_BANK == 1)
                          M         bcf     STATUS, RP0
                          M       endif
                          M       if (PREV_BANK == 2)
                          M         bcf     STATUS, RP1
                          M       endif
                          M       if (PREV_BANK == 3)
MPASM  5.36                      MB_STDIM.ASM   5-24-2019  13:22:05         PAGE 252


LOC  OBJECT CODE     LINE SOURCE TEXT
  VALUE

                          M         bcf     STATUS, RP0
                          M         bcf     STATUS, RP1
                          M       endif
                          M PREV_BANK = 0
                          M     endif
                          M 
                          M     if (((TXSTA) & 180h) == 80h)
                          M       if (PREV_BANK == 0)
02C8   1683               M         bsf     STATUS, RP0
                          M       endif
                          M       if (PREV_BANK == 2)
                          M         bsf     STATUS, RP0
                          M         bcf     STATUS, RP1
                          M       endif
                          M       if (PREV_BANK == 3)
                          M         bcf     STATUS, RP1
                          M       endif
  00000001                M PREV_BANK = 1
                          M     endif
                          M 
                          M     if (((TXSTA) & 180h) == 100h)
                          M       if (PREV_BANK == 0)
                          M         bsf     STATUS, RP1
                          M       endif
                          M       if (PREV_BANK == 1)
                          M         bcf     STATUS, RP0
                          M         bsf     STATUS, RP1
                          M       endif
                          M       if (PREV_BANK == 3)
                          M         bcf     STATUS, RP0
                          M       endif
                          M PREV_BANK = 2
                          M     endif
                          M 
                          M     if (((TXSTA) & 180h) == 180h)
                          M       if (PREV_BANK == 0)
                          M         bsf     STATUS, RP0
                          M         bsf     STATUS, RP1
                          M       endif
                          M       if (PREV_BANK == 1)
                          M         bsf     STATUS, RP1
                          M       endif
                          M       if (PREV_BANK == 2)
                          M         bsf     STATUS, RP0
                          M       endif
                          M PREV_BANK = 3
                          M     endif
                          M     if (low (024h) == 0)
                          M         clrf    TXSTA
                          M     else
02C9   3024               M         movlw   low (024h)
02CA   0098               M         movwf   TXSTA
                          M     endif
MPASM  5.36                      MB_STDIM.ASM   5-24-2019  13:22:05         PAGE 253


LOC  OBJECT CODE     LINE SOURCE TEXT
  VALUE

                      00774 
                      00775 ; C:\USERS\JESSADA\DESKTOP\LED DIMMER PROJECT\PIC16F886\MB_STDIM.BAS    00367   Z0006E          SPBRG = 
                            8     ' 9600 Baud @ 20MHz, -0.03%
02CB                  00776 Z0006E
                      00777         MOVE?CB 008h, SPBRG
                          M         CHK?RP  SPBRG
                          M     if (((SPBRG) & 180h) == 0)
                          M       if (PREV_BANK == 1)
                          M         bcf     STATUS, RP0
                          M       endif
                          M       if (PREV_BANK == 2)
                          M         bcf     STATUS, RP1
                          M       endif
                          M       if (PREV_BANK == 3)
                          M         bcf     STATUS, RP0
                          M         bcf     STATUS, RP1
                          M       endif
                          M PREV_BANK = 0
                          M     endif
                          M 
                          M     if (((SPBRG) & 180h) == 80h)
                          M       if (PREV_BANK == 0)
                          M         bsf     STATUS, RP0
                          M       endif
                          M       if (PREV_BANK == 2)
                          M         bsf     STATUS, RP0
                          M         bcf     STATUS, RP1
                          M       endif
                          M       if (PREV_BANK == 3)
                          M         bcf     STATUS, RP1
                          M       endif
  00000001                M PREV_BANK = 1
                          M     endif
                          M 
                          M     if (((SPBRG) & 180h) == 100h)
                          M       if (PREV_BANK == 0)
                          M         bsf     STATUS, RP1
                          M       endif
                          M       if (PREV_BANK == 1)
                          M         bcf     STATUS, RP0
                          M         bsf     STATUS, RP1
                          M       endif
                          M       if (PREV_BANK == 3)
                          M         bcf     STATUS, RP0
                          M       endif
                          M PREV_BANK = 2
                          M     endif
                          M 
                          M     if (((SPBRG) & 180h) == 180h)
                          M       if (PREV_BANK == 0)
                          M         bsf     STATUS, RP0
                          M         bsf     STATUS, RP1
                          M       endif
MPASM  5.36                      MB_STDIM.ASM   5-24-2019  13:22:05         PAGE 254


LOC  OBJECT CODE     LINE SOURCE TEXT
  VALUE

                          M       if (PREV_BANK == 1)
                          M         bsf     STATUS, RP1
                          M       endif
                          M       if (PREV_BANK == 2)
                          M         bsf     STATUS, RP0
                          M       endif
                          M PREV_BANK = 3
                          M     endif
                          M     if (low (008h) == 0)
                          M         clrf    SPBRG
                          M     else
02CB   3008               M         movlw   low (008h)
02CC   0099               M         movwf   SPBRG
                          M     endif
                      00778 
                      00779 ; C:\USERS\JESSADA\DESKTOP\LED DIMMER PROJECT\PIC16F886\MB_STDIM.BAS    00368   Z0006F          SPBRGH =
                             2
02CD                  00780 Z0006F
                      00781         MOVE?CB 002h, SPBRGH
                          M         CHK?RP  SPBRGH
                          M     if (((SPBRGH) & 180h) == 0)
                          M       if (PREV_BANK == 1)
                          M         bcf     STATUS, RP0
                          M       endif
                          M       if (PREV_BANK == 2)
                          M         bcf     STATUS, RP1
                          M       endif
                          M       if (PREV_BANK == 3)
                          M         bcf     STATUS, RP0
                          M         bcf     STATUS, RP1
                          M       endif
                          M PREV_BANK = 0
                          M     endif
                          M 
                          M     if (((SPBRGH) & 180h) == 80h)
                          M       if (PREV_BANK == 0)
                          M         bsf     STATUS, RP0
                          M       endif
                          M       if (PREV_BANK == 2)
                          M         bsf     STATUS, RP0
                          M         bcf     STATUS, RP1
                          M       endif
                          M       if (PREV_BANK == 3)
                          M         bcf     STATUS, RP1
                          M       endif
  00000001                M PREV_BANK = 1
                          M     endif
                          M 
                          M     if (((SPBRGH) & 180h) == 100h)
                          M       if (PREV_BANK == 0)
                          M         bsf     STATUS, RP1
                          M       endif
                          M       if (PREV_BANK == 1)
MPASM  5.36                      MB_STDIM.ASM   5-24-2019  13:22:05         PAGE 255


LOC  OBJECT CODE     LINE SOURCE TEXT
  VALUE

                          M         bcf     STATUS, RP0
                          M         bsf     STATUS, RP1
                          M       endif
                          M       if (PREV_BANK == 3)
                          M         bcf     STATUS, RP0
                          M       endif
                          M PREV_BANK = 2
                          M     endif
                          M 
                          M     if (((SPBRGH) & 180h) == 180h)
                          M       if (PREV_BANK == 0)
                          M         bsf     STATUS, RP0
                          M         bsf     STATUS, RP1
                          M       endif
                          M       if (PREV_BANK == 1)
                          M         bsf     STATUS, RP1
                          M       endif
                          M       if (PREV_BANK == 2)
                          M         bsf     STATUS, RP0
                          M       endif
                          M PREV_BANK = 3
                          M     endif
                          M     if (low (002h) == 0)
                          M         clrf    SPBRGH
                          M     else
02CD   3002               M         movlw   low (002h)
02CE   009A               M         movwf   SPBRGH
                          M     endif
                      00782 
                      00783 ; C:\USERS\JESSADA\DESKTOP\LED DIMMER PROJECT\PIC16F886\MB_STDIM.BAS    00369   Z00070          BAUDCTL.
                            3 = 1 ' Enable 16 bit baudrate generator
02CF                  00784 Z00070
                      00785         MOVE?CT 001h, _BAUDCTL??3
                          M         CHK?RP  BAUDCTL
                          M     if (((BAUDCTL) & 180h) == 0)
                          M       if (PREV_BANK == 1)
                          M         bcf     STATUS, RP0
                          M       endif
                          M       if (PREV_BANK == 2)
                          M         bcf     STATUS, RP1
                          M       endif
                          M       if (PREV_BANK == 3)
                          M         bcf     STATUS, RP0
                          M         bcf     STATUS, RP1
                          M       endif
                          M PREV_BANK = 0
                          M     endif
                          M 
                          M     if (((BAUDCTL) & 180h) == 80h)
                          M       if (PREV_BANK == 0)
                          M         bsf     STATUS, RP0
                          M       endif
                          M       if (PREV_BANK == 2)
MPASM  5.36                      MB_STDIM.ASM   5-24-2019  13:22:05         PAGE 256


LOC  OBJECT CODE     LINE SOURCE TEXT
  VALUE

                          M         bsf     STATUS, RP0
                          M         bcf     STATUS, RP1
                          M       endif
                          M       if (PREV_BANK == 3)
                          M         bcf     STATUS, RP1
                          M       endif
                          M PREV_BANK = 1
                          M     endif
                          M 
                          M     if (((BAUDCTL) & 180h) == 100h)
                          M       if (PREV_BANK == 0)
                          M         bsf     STATUS, RP1
                          M       endif
                          M       if (PREV_BANK == 1)
                          M         bcf     STATUS, RP0
                          M         bsf     STATUS, RP1
                          M       endif
                          M       if (PREV_BANK == 3)
                          M         bcf     STATUS, RP0
                          M       endif
                          M PREV_BANK = 2
                          M     endif
                          M 
                          M     if (((BAUDCTL) & 180h) == 180h)
                          M       if (PREV_BANK == 0)
                          M         bsf     STATUS, RP0
                          M         bsf     STATUS, RP1
                          M       endif
                          M       if (PREV_BANK == 1)
02CF   1703               M         bsf     STATUS, RP1
                          M       endif
                          M       if (PREV_BANK == 2)
                          M         bsf     STATUS, RP0
                          M       endif
  00000003                M PREV_BANK = 3
                          M     endif
                          M     if (((001h) & 1) == 1)
02D0   1587               M         bsf     BAUDCTL, 003h
                          M     else
                          M         bcf     BAUDCTL, 003h
                          M     endif
                      00786 
                      00787 ; C:\USERS\JESSADA\DESKTOP\LED DIMMER PROJECT\PIC16F886\MB_STDIM.BAS    00372   Z00071          debug 13
                            ,10,"EUSART Initialized",13,10
02D1                  00788 Z00071
                      00789         DEBUG?C 00Dh
02D1   300D               M         movlw   00Dh
                          M         L?CALL  DEBUG
                          M         RST?RP
                          M     if ((PREV_BANK & 1) != 0)
02D2   1283               M         bcf     STATUS, RP0
                          M     endif
                          M     if ((PREV_BANK & 2) != 0)
MPASM  5.36                      MB_STDIM.ASM   5-24-2019  13:22:05         PAGE 257


LOC  OBJECT CODE     LINE SOURCE TEXT
  VALUE

02D3   1303               M         bcf     STATUS, RP1
                          M     endif
  00000000                M PREV_BANK = 0
                          M 
                          M     ifdef USE_LINKER
                          M       if (CODE_SIZE > 2)
                          M         pagesel DEBUG
                          M       endif
                          M     else
                          M       if ((DEBUG) < 1)
                          M         if (CODE_SIZE > 2)
                          M           if (((DEBUG) & 800h) == 0)
                          M         bcf     PCLATH, 3
                          M         else
                          M         bsf     PCLATH, 3
                          M         endif
                          M         endif
                          M         if (CODE_SIZE > 4)
                          M           if (((DEBUG) & 1000h) == 0)
                          M         bcf     PCLATH, 4
                          M           else
                          M         bsf     PCLATH, 4
                          M           endif
                          M         endif
                          M       else
                          M         if ((DEBUG) > $)
                          M           if (CODE_SIZE > 2)
                          M             if (((DEBUG) & 800h) == 0)
                          M         bcf     PCLATH, 3
                          M             else
                          M         bsf     PCLATH, 3
                          M             endif
                          M           endif
                          M           if (CODE_SIZE > 4)
                          M             if (((DEBUG) & 1000h) == 0)
                          M         bcf     PCLATH, 4
                          M             else
                          M         bsf     PCLATH, 4
                          M             endif
                          M           endif
                          M         else
                          M           if (CODE_SIZE > 2)
                          M             if (((DEBUG) & 1800h) == 0)
02D4   018A               M         clrf    PCLATH
                          M             else
                          M               if (((DEBUG) & 800h) == 0)
                          M         bcf     PCLATH, 3
                          M               else
                          M         bsf     PCLATH, 3
                          M               endif
                          M               if (CODE_SIZE > 4)
                          M                 if (((DEBUG) & 1000h) == 0)
                          M         bcf     PCLATH, 4
MPASM  5.36                      MB_STDIM.ASM   5-24-2019  13:22:05         PAGE 258


LOC  OBJECT CODE     LINE SOURCE TEXT
  VALUE

                          M                 else
                          M         bsf     PCLATH, 4
                          M                 endif   
                          M               endif
                          M             endif
                          M           endif
                          M         endif
                          M       endif
                          M     endif
                          M 
02D5   200D               M         call    DEBUG
                      00790         DEBUG?C 00Ah
02D6   300A               M         movlw   00Ah
                          M         L?CALL  DEBUG
                          M         RST?RP
                          M     if ((PREV_BANK & 1) != 0)
                          M         bcf     STATUS, RP0
                          M     endif
                          M     if ((PREV_BANK & 2) != 0)
                          M         bcf     STATUS, RP1
                          M     endif
  00000000                M PREV_BANK = 0
                          M 
                          M     ifdef USE_LINKER
                          M       if (CODE_SIZE > 2)
                          M         pagesel DEBUG
                          M       endif
                          M     else
                          M       if ((DEBUG) < 1)
                          M         if (CODE_SIZE > 2)
                          M           if (((DEBUG) & 800h) == 0)
                          M         bcf     PCLATH, 3
                          M         else
                          M         bsf     PCLATH, 3
                          M         endif
                          M         endif
                          M         if (CODE_SIZE > 4)
                          M           if (((DEBUG) & 1000h) == 0)
                          M         bcf     PCLATH, 4
                          M           else
                          M         bsf     PCLATH, 4
                          M           endif
                          M         endif
                          M       else
                          M         if ((DEBUG) > $)
                          M           if (CODE_SIZE > 2)
                          M             if (((DEBUG) & 800h) == 0)
                          M         bcf     PCLATH, 3
                          M             else
                          M         bsf     PCLATH, 3
                          M             endif
                          M           endif
                          M           if (CODE_SIZE > 4)
MPASM  5.36                      MB_STDIM.ASM   5-24-2019  13:22:05         PAGE 259


LOC  OBJECT CODE     LINE SOURCE TEXT
  VALUE

                          M             if (((DEBUG) & 1000h) == 0)
                          M         bcf     PCLATH, 4
                          M             else
                          M         bsf     PCLATH, 4
                          M             endif
                          M           endif
                          M         else
                          M           if (CODE_SIZE > 2)
                          M             if (((DEBUG) & 1800h) == 0)
02D7   018A               M         clrf    PCLATH
                          M             else
                          M               if (((DEBUG) & 800h) == 0)
                          M         bcf     PCLATH, 3
                          M               else
                          M         bsf     PCLATH, 3
                          M               endif
                          M               if (CODE_SIZE > 4)
                          M                 if (((DEBUG) & 1000h) == 0)
                          M         bcf     PCLATH, 4
                          M                 else
                          M         bsf     PCLATH, 4
                          M                 endif   
                          M               endif
                          M             endif
                          M           endif
                          M         endif
                          M       endif
                          M     endif
                          M 
02D8   200D               M         call    DEBUG
                      00791         DEBUG?C 045h
02D9   3045               M         movlw   045h
                          M         L?CALL  DEBUG
                          M         RST?RP
                          M     if ((PREV_BANK & 1) != 0)
                          M         bcf     STATUS, RP0
                          M     endif
                          M     if ((PREV_BANK & 2) != 0)
                          M         bcf     STATUS, RP1
                          M     endif
  00000000                M PREV_BANK = 0
                          M 
                          M     ifdef USE_LINKER
                          M       if (CODE_SIZE > 2)
                          M         pagesel DEBUG
                          M       endif
                          M     else
                          M       if ((DEBUG) < 1)
                          M         if (CODE_SIZE > 2)
                          M           if (((DEBUG) & 800h) == 0)
                          M         bcf     PCLATH, 3
                          M         else
                          M         bsf     PCLATH, 3
MPASM  5.36                      MB_STDIM.ASM   5-24-2019  13:22:05         PAGE 260


LOC  OBJECT CODE     LINE SOURCE TEXT
  VALUE

                          M         endif
                          M         endif
                          M         if (CODE_SIZE > 4)
                          M           if (((DEBUG) & 1000h) == 0)
                          M         bcf     PCLATH, 4
                          M           else
                          M         bsf     PCLATH, 4
                          M           endif
                          M         endif
                          M       else
                          M         if ((DEBUG) > $)
                          M           if (CODE_SIZE > 2)
                          M             if (((DEBUG) & 800h) == 0)
                          M         bcf     PCLATH, 3
                          M             else
                          M         bsf     PCLATH, 3
                          M             endif
                          M           endif
                          M           if (CODE_SIZE > 4)
                          M             if (((DEBUG) & 1000h) == 0)
                          M         bcf     PCLATH, 4
                          M             else
                          M         bsf     PCLATH, 4
                          M             endif
                          M           endif
                          M         else
                          M           if (CODE_SIZE > 2)
                          M             if (((DEBUG) & 1800h) == 0)
02DA   018A               M         clrf    PCLATH
                          M             else
                          M               if (((DEBUG) & 800h) == 0)
                          M         bcf     PCLATH, 3
                          M               else
                          M         bsf     PCLATH, 3
                          M               endif
                          M               if (CODE_SIZE > 4)
                          M                 if (((DEBUG) & 1000h) == 0)
                          M         bcf     PCLATH, 4
                          M                 else
                          M         bsf     PCLATH, 4
                          M                 endif   
                          M               endif
                          M             endif
                          M           endif
                          M         endif
                          M       endif
                          M     endif
                          M 
02DB   200D               M         call    DEBUG
                      00792         DEBUG?C 055h
02DC   3055               M         movlw   055h
                          M         L?CALL  DEBUG
                          M         RST?RP
MPASM  5.36                      MB_STDIM.ASM   5-24-2019  13:22:05         PAGE 261


LOC  OBJECT CODE     LINE SOURCE TEXT
  VALUE

                          M     if ((PREV_BANK & 1) != 0)
                          M         bcf     STATUS, RP0
                          M     endif
                          M     if ((PREV_BANK & 2) != 0)
                          M         bcf     STATUS, RP1
                          M     endif
  00000000                M PREV_BANK = 0
                          M 
                          M     ifdef USE_LINKER
                          M       if (CODE_SIZE > 2)
                          M         pagesel DEBUG
                          M       endif
                          M     else
                          M       if ((DEBUG) < 1)
                          M         if (CODE_SIZE > 2)
                          M           if (((DEBUG) & 800h) == 0)
                          M         bcf     PCLATH, 3
                          M         else
                          M         bsf     PCLATH, 3
                          M         endif
                          M         endif
                          M         if (CODE_SIZE > 4)
                          M           if (((DEBUG) & 1000h) == 0)
                          M         bcf     PCLATH, 4
                          M           else
                          M         bsf     PCLATH, 4
                          M           endif
                          M         endif
                          M       else
                          M         if ((DEBUG) > $)
                          M           if (CODE_SIZE > 2)
                          M             if (((DEBUG) & 800h) == 0)
                          M         bcf     PCLATH, 3
                          M             else
                          M         bsf     PCLATH, 3
                          M             endif
                          M           endif
                          M           if (CODE_SIZE > 4)
                          M             if (((DEBUG) & 1000h) == 0)
                          M         bcf     PCLATH, 4
                          M             else
                          M         bsf     PCLATH, 4
                          M             endif
                          M           endif
                          M         else
                          M           if (CODE_SIZE > 2)
                          M             if (((DEBUG) & 1800h) == 0)
02DD   018A               M         clrf    PCLATH
                          M             else
                          M               if (((DEBUG) & 800h) == 0)
                          M         bcf     PCLATH, 3
                          M               else
                          M         bsf     PCLATH, 3
MPASM  5.36                      MB_STDIM.ASM   5-24-2019  13:22:05         PAGE 262


LOC  OBJECT CODE     LINE SOURCE TEXT
  VALUE

                          M               endif
                          M               if (CODE_SIZE > 4)
                          M                 if (((DEBUG) & 1000h) == 0)
                          M         bcf     PCLATH, 4
                          M                 else
                          M         bsf     PCLATH, 4
                          M                 endif   
                          M               endif
                          M             endif
                          M           endif
                          M         endif
                          M       endif
                          M     endif
                          M 
02DE   200D               M         call    DEBUG
                      00793         DEBUG?C 053h
02DF   3053               M         movlw   053h
                          M         L?CALL  DEBUG
                          M         RST?RP
                          M     if ((PREV_BANK & 1) != 0)
                          M         bcf     STATUS, RP0
                          M     endif
                          M     if ((PREV_BANK & 2) != 0)
                          M         bcf     STATUS, RP1
                          M     endif
  00000000                M PREV_BANK = 0
                          M 
                          M     ifdef USE_LINKER
                          M       if (CODE_SIZE > 2)
                          M         pagesel DEBUG
                          M       endif
                          M     else
                          M       if ((DEBUG) < 1)
                          M         if (CODE_SIZE > 2)
                          M           if (((DEBUG) & 800h) == 0)
                          M         bcf     PCLATH, 3
                          M         else
                          M         bsf     PCLATH, 3
                          M         endif
                          M         endif
                          M         if (CODE_SIZE > 4)
                          M           if (((DEBUG) & 1000h) == 0)
                          M         bcf     PCLATH, 4
                          M           else
                          M         bsf     PCLATH, 4
                          M           endif
                          M         endif
                          M       else
                          M         if ((DEBUG) > $)
                          M           if (CODE_SIZE > 2)
                          M             if (((DEBUG) & 800h) == 0)
                          M         bcf     PCLATH, 3
                          M             else
MPASM  5.36                      MB_STDIM.ASM   5-24-2019  13:22:05         PAGE 263


LOC  OBJECT CODE     LINE SOURCE TEXT
  VALUE

                          M         bsf     PCLATH, 3
                          M             endif
                          M           endif
                          M           if (CODE_SIZE > 4)
                          M             if (((DEBUG) & 1000h) == 0)
                          M         bcf     PCLATH, 4
                          M             else
                          M         bsf     PCLATH, 4
                          M             endif
                          M           endif
                          M         else
                          M           if (CODE_SIZE > 2)
                          M             if (((DEBUG) & 1800h) == 0)
02E0   018A               M         clrf    PCLATH
                          M             else
                          M               if (((DEBUG) & 800h) == 0)
                          M         bcf     PCLATH, 3
                          M               else
                          M         bsf     PCLATH, 3
                          M               endif
                          M               if (CODE_SIZE > 4)
                          M                 if (((DEBUG) & 1000h) == 0)
                          M         bcf     PCLATH, 4
                          M                 else
                          M         bsf     PCLATH, 4
                          M                 endif   
                          M               endif
                          M             endif
                          M           endif
                          M         endif
                          M       endif
                          M     endif
                          M 
02E1   200D               M         call    DEBUG
                      00794         DEBUG?C 041h
02E2   3041               M         movlw   041h
                          M         L?CALL  DEBUG
                          M         RST?RP
                          M     if ((PREV_BANK & 1) != 0)
                          M         bcf     STATUS, RP0
                          M     endif
                          M     if ((PREV_BANK & 2) != 0)
                          M         bcf     STATUS, RP1
                          M     endif
  00000000                M PREV_BANK = 0
                          M 
                          M     ifdef USE_LINKER
                          M       if (CODE_SIZE > 2)
                          M         pagesel DEBUG
                          M       endif
                          M     else
                          M       if ((DEBUG) < 1)
                          M         if (CODE_SIZE > 2)
MPASM  5.36                      MB_STDIM.ASM   5-24-2019  13:22:05         PAGE 264


LOC  OBJECT CODE     LINE SOURCE TEXT
  VALUE

                          M           if (((DEBUG) & 800h) == 0)
                          M         bcf     PCLATH, 3
                          M         else
                          M         bsf     PCLATH, 3
                          M         endif
                          M         endif
                          M         if (CODE_SIZE > 4)
                          M           if (((DEBUG) & 1000h) == 0)
                          M         bcf     PCLATH, 4
                          M           else
                          M         bsf     PCLATH, 4
                          M           endif
                          M         endif
                          M       else
                          M         if ((DEBUG) > $)
                          M           if (CODE_SIZE > 2)
                          M             if (((DEBUG) & 800h) == 0)
                          M         bcf     PCLATH, 3
                          M             else
                          M         bsf     PCLATH, 3
                          M             endif
                          M           endif
                          M           if (CODE_SIZE > 4)
                          M             if (((DEBUG) & 1000h) == 0)
                          M         bcf     PCLATH, 4
                          M             else
                          M         bsf     PCLATH, 4
                          M             endif
                          M           endif
                          M         else
                          M           if (CODE_SIZE > 2)
                          M             if (((DEBUG) & 1800h) == 0)
02E3   018A               M         clrf    PCLATH
                          M             else
                          M               if (((DEBUG) & 800h) == 0)
                          M         bcf     PCLATH, 3
                          M               else
                          M         bsf     PCLATH, 3
                          M               endif
                          M               if (CODE_SIZE > 4)
                          M                 if (((DEBUG) & 1000h) == 0)
                          M         bcf     PCLATH, 4
                          M                 else
                          M         bsf     PCLATH, 4
                          M                 endif   
                          M               endif
                          M             endif
                          M           endif
                          M         endif
                          M       endif
                          M     endif
                          M 
02E4   200D               M         call    DEBUG
MPASM  5.36                      MB_STDIM.ASM   5-24-2019  13:22:05         PAGE 265


LOC  OBJECT CODE     LINE SOURCE TEXT
  VALUE

                      00795         DEBUG?C 052h
02E5   3052               M         movlw   052h
                          M         L?CALL  DEBUG
                          M         RST?RP
                          M     if ((PREV_BANK & 1) != 0)
                          M         bcf     STATUS, RP0
                          M     endif
                          M     if ((PREV_BANK & 2) != 0)
                          M         bcf     STATUS, RP1
                          M     endif
  00000000                M PREV_BANK = 0
                          M 
                          M     ifdef USE_LINKER
                          M       if (CODE_SIZE > 2)
                          M         pagesel DEBUG
                          M       endif
                          M     else
                          M       if ((DEBUG) < 1)
                          M         if (CODE_SIZE > 2)
                          M           if (((DEBUG) & 800h) == 0)
                          M         bcf     PCLATH, 3
                          M         else
                          M         bsf     PCLATH, 3
                          M         endif
                          M         endif
                          M         if (CODE_SIZE > 4)
                          M           if (((DEBUG) & 1000h) == 0)
                          M         bcf     PCLATH, 4
                          M           else
                          M         bsf     PCLATH, 4
                          M           endif
                          M         endif
                          M       else
                          M         if ((DEBUG) > $)
                          M           if (CODE_SIZE > 2)
                          M             if (((DEBUG) & 800h) == 0)
                          M         bcf     PCLATH, 3
                          M             else
                          M         bsf     PCLATH, 3
                          M             endif
                          M           endif
                          M           if (CODE_SIZE > 4)
                          M             if (((DEBUG) & 1000h) == 0)
                          M         bcf     PCLATH, 4
                          M             else
                          M         bsf     PCLATH, 4
                          M             endif
                          M           endif
                          M         else
                          M           if (CODE_SIZE > 2)
                          M             if (((DEBUG) & 1800h) == 0)
02E6   018A               M         clrf    PCLATH
                          M             else
MPASM  5.36                      MB_STDIM.ASM   5-24-2019  13:22:05         PAGE 266


LOC  OBJECT CODE     LINE SOURCE TEXT
  VALUE

                          M               if (((DEBUG) & 800h) == 0)
                          M         bcf     PCLATH, 3
                          M               else
                          M         bsf     PCLATH, 3
                          M               endif
                          M               if (CODE_SIZE > 4)
                          M                 if (((DEBUG) & 1000h) == 0)
                          M         bcf     PCLATH, 4
                          M                 else
                          M         bsf     PCLATH, 4
                          M                 endif   
                          M               endif
                          M             endif
                          M           endif
                          M         endif
                          M       endif
                          M     endif
                          M 
02E7   200D               M         call    DEBUG
                      00796         DEBUG?C 054h
02E8   3054               M         movlw   054h
                          M         L?CALL  DEBUG
                          M         RST?RP
                          M     if ((PREV_BANK & 1) != 0)
                          M         bcf     STATUS, RP0
                          M     endif
                          M     if ((PREV_BANK & 2) != 0)
                          M         bcf     STATUS, RP1
                          M     endif
  00000000                M PREV_BANK = 0
                          M 
                          M     ifdef USE_LINKER
                          M       if (CODE_SIZE > 2)
                          M         pagesel DEBUG
                          M       endif
                          M     else
                          M       if ((DEBUG) < 1)
                          M         if (CODE_SIZE > 2)
                          M           if (((DEBUG) & 800h) == 0)
                          M         bcf     PCLATH, 3
                          M         else
                          M         bsf     PCLATH, 3
                          M         endif
                          M         endif
                          M         if (CODE_SIZE > 4)
                          M           if (((DEBUG) & 1000h) == 0)
                          M         bcf     PCLATH, 4
                          M           else
                          M         bsf     PCLATH, 4
                          M           endif
                          M         endif
                          M       else
                          M         if ((DEBUG) > $)
MPASM  5.36                      MB_STDIM.ASM   5-24-2019  13:22:05         PAGE 267


LOC  OBJECT CODE     LINE SOURCE TEXT
  VALUE

                          M           if (CODE_SIZE > 2)
                          M             if (((DEBUG) & 800h) == 0)
                          M         bcf     PCLATH, 3
                          M             else
                          M         bsf     PCLATH, 3
                          M             endif
                          M           endif
                          M           if (CODE_SIZE > 4)
                          M             if (((DEBUG) & 1000h) == 0)
                          M         bcf     PCLATH, 4
                          M             else
                          M         bsf     PCLATH, 4
                          M             endif
                          M           endif
                          M         else
                          M           if (CODE_SIZE > 2)
                          M             if (((DEBUG) & 1800h) == 0)
02E9   018A               M         clrf    PCLATH
                          M             else
                          M               if (((DEBUG) & 800h) == 0)
                          M         bcf     PCLATH, 3
                          M               else
                          M         bsf     PCLATH, 3
                          M               endif
                          M               if (CODE_SIZE > 4)
                          M                 if (((DEBUG) & 1000h) == 0)
                          M         bcf     PCLATH, 4
                          M                 else
                          M         bsf     PCLATH, 4
                          M                 endif   
                          M               endif
                          M             endif
                          M           endif
                          M         endif
                          M       endif
                          M     endif
                          M 
02EA   200D               M         call    DEBUG
                      00797         DEBUG?C 020h
02EB   3020               M         movlw   020h
                          M         L?CALL  DEBUG
                          M         RST?RP
                          M     if ((PREV_BANK & 1) != 0)
                          M         bcf     STATUS, RP0
                          M     endif
                          M     if ((PREV_BANK & 2) != 0)
                          M         bcf     STATUS, RP1
                          M     endif
  00000000                M PREV_BANK = 0
                          M 
                          M     ifdef USE_LINKER
                          M       if (CODE_SIZE > 2)
                          M         pagesel DEBUG
MPASM  5.36                      MB_STDIM.ASM   5-24-2019  13:22:05         PAGE 268


LOC  OBJECT CODE     LINE SOURCE TEXT
  VALUE

                          M       endif
                          M     else
                          M       if ((DEBUG) < 1)
                          M         if (CODE_SIZE > 2)
                          M           if (((DEBUG) & 800h) == 0)
                          M         bcf     PCLATH, 3
                          M         else
                          M         bsf     PCLATH, 3
                          M         endif
                          M         endif
                          M         if (CODE_SIZE > 4)
                          M           if (((DEBUG) & 1000h) == 0)
                          M         bcf     PCLATH, 4
                          M           else
                          M         bsf     PCLATH, 4
                          M           endif
                          M         endif
                          M       else
                          M         if ((DEBUG) > $)
                          M           if (CODE_SIZE > 2)
                          M             if (((DEBUG) & 800h) == 0)
                          M         bcf     PCLATH, 3
                          M             else
                          M         bsf     PCLATH, 3
                          M             endif
                          M           endif
                          M           if (CODE_SIZE > 4)
                          M             if (((DEBUG) & 1000h) == 0)
                          M         bcf     PCLATH, 4
                          M             else
                          M         bsf     PCLATH, 4
                          M             endif
                          M           endif
                          M         else
                          M           if (CODE_SIZE > 2)
                          M             if (((DEBUG) & 1800h) == 0)
02EC   018A               M         clrf    PCLATH
                          M             else
                          M               if (((DEBUG) & 800h) == 0)
                          M         bcf     PCLATH, 3
                          M               else
                          M         bsf     PCLATH, 3
                          M               endif
                          M               if (CODE_SIZE > 4)
                          M                 if (((DEBUG) & 1000h) == 0)
                          M         bcf     PCLATH, 4
                          M                 else
                          M         bsf     PCLATH, 4
                          M                 endif   
                          M               endif
                          M             endif
                          M           endif
                          M         endif
MPASM  5.36                      MB_STDIM.ASM   5-24-2019  13:22:05         PAGE 269


LOC  OBJECT CODE     LINE SOURCE TEXT
  VALUE

                          M       endif
                          M     endif
                          M 
02ED   200D               M         call    DEBUG
                      00798         DEBUG?C 049h
02EE   3049               M         movlw   049h
                          M         L?CALL  DEBUG
                          M         RST?RP
                          M     if ((PREV_BANK & 1) != 0)
                          M         bcf     STATUS, RP0
                          M     endif
                          M     if ((PREV_BANK & 2) != 0)
                          M         bcf     STATUS, RP1
                          M     endif
  00000000                M PREV_BANK = 0
                          M 
                          M     ifdef USE_LINKER
                          M       if (CODE_SIZE > 2)
                          M         pagesel DEBUG
                          M       endif
                          M     else
                          M       if ((DEBUG) < 1)
                          M         if (CODE_SIZE > 2)
                          M           if (((DEBUG) & 800h) == 0)
                          M         bcf     PCLATH, 3
                          M         else
                          M         bsf     PCLATH, 3
                          M         endif
                          M         endif
                          M         if (CODE_SIZE > 4)
                          M           if (((DEBUG) & 1000h) == 0)
                          M         bcf     PCLATH, 4
                          M           else
                          M         bsf     PCLATH, 4
                          M           endif
                          M         endif
                          M       else
                          M         if ((DEBUG) > $)
                          M           if (CODE_SIZE > 2)
                          M             if (((DEBUG) & 800h) == 0)
                          M         bcf     PCLATH, 3
                          M             else
                          M         bsf     PCLATH, 3
                          M             endif
                          M           endif
                          M           if (CODE_SIZE > 4)
                          M             if (((DEBUG) & 1000h) == 0)
                          M         bcf     PCLATH, 4
                          M             else
                          M         bsf     PCLATH, 4
                          M             endif
                          M           endif
                          M         else
MPASM  5.36                      MB_STDIM.ASM   5-24-2019  13:22:05         PAGE 270


LOC  OBJECT CODE     LINE SOURCE TEXT
  VALUE

                          M           if (CODE_SIZE > 2)
                          M             if (((DEBUG) & 1800h) == 0)
02EF   018A               M         clrf    PCLATH
                          M             else
                          M               if (((DEBUG) & 800h) == 0)
                          M         bcf     PCLATH, 3
                          M               else
                          M         bsf     PCLATH, 3
                          M               endif
                          M               if (CODE_SIZE > 4)
                          M                 if (((DEBUG) & 1000h) == 0)
                          M         bcf     PCLATH, 4
                          M                 else
                          M         bsf     PCLATH, 4
                          M                 endif   
                          M               endif
                          M             endif
                          M           endif
                          M         endif
                          M       endif
                          M     endif
                          M 
02F0   200D               M         call    DEBUG
                      00799         DEBUG?C 06Eh
02F1   306E               M         movlw   06Eh
                          M         L?CALL  DEBUG
                          M         RST?RP
                          M     if ((PREV_BANK & 1) != 0)
                          M         bcf     STATUS, RP0
                          M     endif
                          M     if ((PREV_BANK & 2) != 0)
                          M         bcf     STATUS, RP1
                          M     endif
  00000000                M PREV_BANK = 0
                          M 
                          M     ifdef USE_LINKER
                          M       if (CODE_SIZE > 2)
                          M         pagesel DEBUG
                          M       endif
                          M     else
                          M       if ((DEBUG) < 1)
                          M         if (CODE_SIZE > 2)
                          M           if (((DEBUG) & 800h) == 0)
                          M         bcf     PCLATH, 3
                          M         else
                          M         bsf     PCLATH, 3
                          M         endif
                          M         endif
                          M         if (CODE_SIZE > 4)
                          M           if (((DEBUG) & 1000h) == 0)
                          M         bcf     PCLATH, 4
                          M           else
                          M         bsf     PCLATH, 4
MPASM  5.36                      MB_STDIM.ASM   5-24-2019  13:22:05         PAGE 271


LOC  OBJECT CODE     LINE SOURCE TEXT
  VALUE

                          M           endif
                          M         endif
                          M       else
                          M         if ((DEBUG) > $)
                          M           if (CODE_SIZE > 2)
                          M             if (((DEBUG) & 800h) == 0)
                          M         bcf     PCLATH, 3
                          M             else
                          M         bsf     PCLATH, 3
                          M             endif
                          M           endif
                          M           if (CODE_SIZE > 4)
                          M             if (((DEBUG) & 1000h) == 0)
                          M         bcf     PCLATH, 4
                          M             else
                          M         bsf     PCLATH, 4
                          M             endif
                          M           endif
                          M         else
                          M           if (CODE_SIZE > 2)
                          M             if (((DEBUG) & 1800h) == 0)
02F2   018A               M         clrf    PCLATH
                          M             else
                          M               if (((DEBUG) & 800h) == 0)
                          M         bcf     PCLATH, 3
                          M               else
                          M         bsf     PCLATH, 3
                          M               endif
                          M               if (CODE_SIZE > 4)
                          M                 if (((DEBUG) & 1000h) == 0)
                          M         bcf     PCLATH, 4
                          M                 else
                          M         bsf     PCLATH, 4
                          M                 endif   
                          M               endif
                          M             endif
                          M           endif
                          M         endif
                          M       endif
                          M     endif
                          M 
02F3   200D               M         call    DEBUG
                      00800         DEBUG?C 069h
02F4   3069               M         movlw   069h
                          M         L?CALL  DEBUG
                          M         RST?RP
                          M     if ((PREV_BANK & 1) != 0)
                          M         bcf     STATUS, RP0
                          M     endif
                          M     if ((PREV_BANK & 2) != 0)
                          M         bcf     STATUS, RP1
                          M     endif
  00000000                M PREV_BANK = 0
MPASM  5.36                      MB_STDIM.ASM   5-24-2019  13:22:05         PAGE 272


LOC  OBJECT CODE     LINE SOURCE TEXT
  VALUE

                          M 
                          M     ifdef USE_LINKER
                          M       if (CODE_SIZE > 2)
                          M         pagesel DEBUG
                          M       endif
                          M     else
                          M       if ((DEBUG) < 1)
                          M         if (CODE_SIZE > 2)
                          M           if (((DEBUG) & 800h) == 0)
                          M         bcf     PCLATH, 3
                          M         else
                          M         bsf     PCLATH, 3
                          M         endif
                          M         endif
                          M         if (CODE_SIZE > 4)
                          M           if (((DEBUG) & 1000h) == 0)
                          M         bcf     PCLATH, 4
                          M           else
                          M         bsf     PCLATH, 4
                          M           endif
                          M         endif
                          M       else
                          M         if ((DEBUG) > $)
                          M           if (CODE_SIZE > 2)
                          M             if (((DEBUG) & 800h) == 0)
                          M         bcf     PCLATH, 3
                          M             else
                          M         bsf     PCLATH, 3
                          M             endif
                          M           endif
                          M           if (CODE_SIZE > 4)
                          M             if (((DEBUG) & 1000h) == 0)
                          M         bcf     PCLATH, 4
                          M             else
                          M         bsf     PCLATH, 4
                          M             endif
                          M           endif
                          M         else
                          M           if (CODE_SIZE > 2)
                          M             if (((DEBUG) & 1800h) == 0)
02F5   018A               M         clrf    PCLATH
                          M             else
                          M               if (((DEBUG) & 800h) == 0)
                          M         bcf     PCLATH, 3
                          M               else
                          M         bsf     PCLATH, 3
                          M               endif
                          M               if (CODE_SIZE > 4)
                          M                 if (((DEBUG) & 1000h) == 0)
                          M         bcf     PCLATH, 4
                          M                 else
                          M         bsf     PCLATH, 4
                          M                 endif   
MPASM  5.36                      MB_STDIM.ASM   5-24-2019  13:22:05         PAGE 273


LOC  OBJECT CODE     LINE SOURCE TEXT
  VALUE

                          M               endif
                          M             endif
                          M           endif
                          M         endif
                          M       endif
                          M     endif
                          M 
02F6   200D               M         call    DEBUG
                      00801         DEBUG?C 074h
02F7   3074               M         movlw   074h
                          M         L?CALL  DEBUG
                          M         RST?RP
                          M     if ((PREV_BANK & 1) != 0)
                          M         bcf     STATUS, RP0
                          M     endif
                          M     if ((PREV_BANK & 2) != 0)
                          M         bcf     STATUS, RP1
                          M     endif
  00000000                M PREV_BANK = 0
                          M 
                          M     ifdef USE_LINKER
                          M       if (CODE_SIZE > 2)
                          M         pagesel DEBUG
                          M       endif
                          M     else
                          M       if ((DEBUG) < 1)
                          M         if (CODE_SIZE > 2)
                          M           if (((DEBUG) & 800h) == 0)
                          M         bcf     PCLATH, 3
                          M         else
                          M         bsf     PCLATH, 3
                          M         endif
                          M         endif
                          M         if (CODE_SIZE > 4)
                          M           if (((DEBUG) & 1000h) == 0)
                          M         bcf     PCLATH, 4
                          M           else
                          M         bsf     PCLATH, 4
                          M           endif
                          M         endif
                          M       else
                          M         if ((DEBUG) > $)
                          M           if (CODE_SIZE > 2)
                          M             if (((DEBUG) & 800h) == 0)
                          M         bcf     PCLATH, 3
                          M             else
                          M         bsf     PCLATH, 3
                          M             endif
                          M           endif
                          M           if (CODE_SIZE > 4)
                          M             if (((DEBUG) & 1000h) == 0)
                          M         bcf     PCLATH, 4
                          M             else
MPASM  5.36                      MB_STDIM.ASM   5-24-2019  13:22:05         PAGE 274


LOC  OBJECT CODE     LINE SOURCE TEXT
  VALUE

                          M         bsf     PCLATH, 4
                          M             endif
                          M           endif
                          M         else
                          M           if (CODE_SIZE > 2)
                          M             if (((DEBUG) & 1800h) == 0)
02F8   018A               M         clrf    PCLATH
                          M             else
                          M               if (((DEBUG) & 800h) == 0)
                          M         bcf     PCLATH, 3
                          M               else
                          M         bsf     PCLATH, 3
                          M               endif
                          M               if (CODE_SIZE > 4)
                          M                 if (((DEBUG) & 1000h) == 0)
                          M         bcf     PCLATH, 4
                          M                 else
                          M         bsf     PCLATH, 4
                          M                 endif   
                          M               endif
                          M             endif
                          M           endif
                          M         endif
                          M       endif
                          M     endif
                          M 
02F9   200D               M         call    DEBUG
                      00802         DEBUG?C 069h
02FA   3069               M         movlw   069h
                          M         L?CALL  DEBUG
                          M         RST?RP
                          M     if ((PREV_BANK & 1) != 0)
                          M         bcf     STATUS, RP0
                          M     endif
                          M     if ((PREV_BANK & 2) != 0)
                          M         bcf     STATUS, RP1
                          M     endif
  00000000                M PREV_BANK = 0
                          M 
                          M     ifdef USE_LINKER
                          M       if (CODE_SIZE > 2)
                          M         pagesel DEBUG
                          M       endif
                          M     else
                          M       if ((DEBUG) < 1)
                          M         if (CODE_SIZE > 2)
                          M           if (((DEBUG) & 800h) == 0)
                          M         bcf     PCLATH, 3
                          M         else
                          M         bsf     PCLATH, 3
                          M         endif
                          M         endif
                          M         if (CODE_SIZE > 4)
MPASM  5.36                      MB_STDIM.ASM   5-24-2019  13:22:05         PAGE 275


LOC  OBJECT CODE     LINE SOURCE TEXT
  VALUE

                          M           if (((DEBUG) & 1000h) == 0)
                          M         bcf     PCLATH, 4
                          M           else
                          M         bsf     PCLATH, 4
                          M           endif
                          M         endif
                          M       else
                          M         if ((DEBUG) > $)
                          M           if (CODE_SIZE > 2)
                          M             if (((DEBUG) & 800h) == 0)
                          M         bcf     PCLATH, 3
                          M             else
                          M         bsf     PCLATH, 3
                          M             endif
                          M           endif
                          M           if (CODE_SIZE > 4)
                          M             if (((DEBUG) & 1000h) == 0)
                          M         bcf     PCLATH, 4
                          M             else
                          M         bsf     PCLATH, 4
                          M             endif
                          M           endif
                          M         else
                          M           if (CODE_SIZE > 2)
                          M             if (((DEBUG) & 1800h) == 0)
02FB   018A               M         clrf    PCLATH
                          M             else
                          M               if (((DEBUG) & 800h) == 0)
                          M         bcf     PCLATH, 3
                          M               else
                          M         bsf     PCLATH, 3
                          M               endif
                          M               if (CODE_SIZE > 4)
                          M                 if (((DEBUG) & 1000h) == 0)
                          M         bcf     PCLATH, 4
                          M                 else
                          M         bsf     PCLATH, 4
                          M                 endif   
                          M               endif
                          M             endif
                          M           endif
                          M         endif
                          M       endif
                          M     endif
                          M 
02FC   200D               M         call    DEBUG
                      00803         DEBUG?C 061h
02FD   3061               M         movlw   061h
                          M         L?CALL  DEBUG
                          M         RST?RP
                          M     if ((PREV_BANK & 1) != 0)
                          M         bcf     STATUS, RP0
                          M     endif
MPASM  5.36                      MB_STDIM.ASM   5-24-2019  13:22:05         PAGE 276


LOC  OBJECT CODE     LINE SOURCE TEXT
  VALUE

                          M     if ((PREV_BANK & 2) != 0)
                          M         bcf     STATUS, RP1
                          M     endif
  00000000                M PREV_BANK = 0
                          M 
                          M     ifdef USE_LINKER
                          M       if (CODE_SIZE > 2)
                          M         pagesel DEBUG
                          M       endif
                          M     else
                          M       if ((DEBUG) < 1)
                          M         if (CODE_SIZE > 2)
                          M           if (((DEBUG) & 800h) == 0)
                          M         bcf     PCLATH, 3
                          M         else
                          M         bsf     PCLATH, 3
                          M         endif
                          M         endif
                          M         if (CODE_SIZE > 4)
                          M           if (((DEBUG) & 1000h) == 0)
                          M         bcf     PCLATH, 4
                          M           else
                          M         bsf     PCLATH, 4
                          M           endif
                          M         endif
                          M       else
                          M         if ((DEBUG) > $)
                          M           if (CODE_SIZE > 2)
                          M             if (((DEBUG) & 800h) == 0)
                          M         bcf     PCLATH, 3
                          M             else
                          M         bsf     PCLATH, 3
                          M             endif
                          M           endif
                          M           if (CODE_SIZE > 4)
                          M             if (((DEBUG) & 1000h) == 0)
                          M         bcf     PCLATH, 4
                          M             else
                          M         bsf     PCLATH, 4
                          M             endif
                          M           endif
                          M         else
                          M           if (CODE_SIZE > 2)
                          M             if (((DEBUG) & 1800h) == 0)
02FE   018A               M         clrf    PCLATH
                          M             else
                          M               if (((DEBUG) & 800h) == 0)
                          M         bcf     PCLATH, 3
                          M               else
                          M         bsf     PCLATH, 3
                          M               endif
                          M               if (CODE_SIZE > 4)
                          M                 if (((DEBUG) & 1000h) == 0)
MPASM  5.36                      MB_STDIM.ASM   5-24-2019  13:22:05         PAGE 277


LOC  OBJECT CODE     LINE SOURCE TEXT
  VALUE

                          M         bcf     PCLATH, 4
                          M                 else
                          M         bsf     PCLATH, 4
                          M                 endif   
                          M               endif
                          M             endif
                          M           endif
                          M         endif
                          M       endif
                          M     endif
                          M 
02FF   200D               M         call    DEBUG
                      00804         DEBUG?C 06Ch
0300   306C               M         movlw   06Ch
                          M         L?CALL  DEBUG
                          M         RST?RP
                          M     if ((PREV_BANK & 1) != 0)
                          M         bcf     STATUS, RP0
                          M     endif
                          M     if ((PREV_BANK & 2) != 0)
                          M         bcf     STATUS, RP1
                          M     endif
  00000000                M PREV_BANK = 0
                          M 
                          M     ifdef USE_LINKER
                          M       if (CODE_SIZE > 2)
                          M         pagesel DEBUG
                          M       endif
                          M     else
                          M       if ((DEBUG) < 1)
                          M         if (CODE_SIZE > 2)
                          M           if (((DEBUG) & 800h) == 0)
                          M         bcf     PCLATH, 3
                          M         else
                          M         bsf     PCLATH, 3
                          M         endif
                          M         endif
                          M         if (CODE_SIZE > 4)
                          M           if (((DEBUG) & 1000h) == 0)
                          M         bcf     PCLATH, 4
                          M           else
                          M         bsf     PCLATH, 4
                          M           endif
                          M         endif
                          M       else
                          M         if ((DEBUG) > $)
                          M           if (CODE_SIZE > 2)
                          M             if (((DEBUG) & 800h) == 0)
                          M         bcf     PCLATH, 3
                          M             else
                          M         bsf     PCLATH, 3
                          M             endif
                          M           endif
MPASM  5.36                      MB_STDIM.ASM   5-24-2019  13:22:05         PAGE 278


LOC  OBJECT CODE     LINE SOURCE TEXT
  VALUE

                          M           if (CODE_SIZE > 4)
                          M             if (((DEBUG) & 1000h) == 0)
                          M         bcf     PCLATH, 4
                          M             else
                          M         bsf     PCLATH, 4
                          M             endif
                          M           endif
                          M         else
                          M           if (CODE_SIZE > 2)
                          M             if (((DEBUG) & 1800h) == 0)
0301   018A               M         clrf    PCLATH
                          M             else
                          M               if (((DEBUG) & 800h) == 0)
                          M         bcf     PCLATH, 3
                          M               else
                          M         bsf     PCLATH, 3
                          M               endif
                          M               if (CODE_SIZE > 4)
                          M                 if (((DEBUG) & 1000h) == 0)
                          M         bcf     PCLATH, 4
                          M                 else
                          M         bsf     PCLATH, 4
                          M                 endif   
                          M               endif
                          M             endif
                          M           endif
                          M         endif
                          M       endif
                          M     endif
                          M 
0302   200D               M         call    DEBUG
                      00805         DEBUG?C 069h
0303   3069               M         movlw   069h
                          M         L?CALL  DEBUG
                          M         RST?RP
                          M     if ((PREV_BANK & 1) != 0)
                          M         bcf     STATUS, RP0
                          M     endif
                          M     if ((PREV_BANK & 2) != 0)
                          M         bcf     STATUS, RP1
                          M     endif
  00000000                M PREV_BANK = 0
                          M 
                          M     ifdef USE_LINKER
                          M       if (CODE_SIZE > 2)
                          M         pagesel DEBUG
                          M       endif
                          M     else
                          M       if ((DEBUG) < 1)
                          M         if (CODE_SIZE > 2)
                          M           if (((DEBUG) & 800h) == 0)
                          M         bcf     PCLATH, 3
                          M         else
MPASM  5.36                      MB_STDIM.ASM   5-24-2019  13:22:05         PAGE 279


LOC  OBJECT CODE     LINE SOURCE TEXT
  VALUE

                          M         bsf     PCLATH, 3
                          M         endif
                          M         endif
                          M         if (CODE_SIZE > 4)
                          M           if (((DEBUG) & 1000h) == 0)
                          M         bcf     PCLATH, 4
                          M           else
                          M         bsf     PCLATH, 4
                          M           endif
                          M         endif
                          M       else
                          M         if ((DEBUG) > $)
                          M           if (CODE_SIZE > 2)
                          M             if (((DEBUG) & 800h) == 0)
                          M         bcf     PCLATH, 3
                          M             else
                          M         bsf     PCLATH, 3
                          M             endif
                          M           endif
                          M           if (CODE_SIZE > 4)
                          M             if (((DEBUG) & 1000h) == 0)
                          M         bcf     PCLATH, 4
                          M             else
                          M         bsf     PCLATH, 4
                          M             endif
                          M           endif
                          M         else
                          M           if (CODE_SIZE > 2)
                          M             if (((DEBUG) & 1800h) == 0)
0304   018A               M         clrf    PCLATH
                          M             else
                          M               if (((DEBUG) & 800h) == 0)
                          M         bcf     PCLATH, 3
                          M               else
                          M         bsf     PCLATH, 3
                          M               endif
                          M               if (CODE_SIZE > 4)
                          M                 if (((DEBUG) & 1000h) == 0)
                          M         bcf     PCLATH, 4
                          M                 else
                          M         bsf     PCLATH, 4
                          M                 endif   
                          M               endif
                          M             endif
                          M           endif
                          M         endif
                          M       endif
                          M     endif
                          M 
0305   200D               M         call    DEBUG
                      00806         DEBUG?C 07Ah
0306   307A               M         movlw   07Ah
                          M         L?CALL  DEBUG
MPASM  5.36                      MB_STDIM.ASM   5-24-2019  13:22:05         PAGE 280


LOC  OBJECT CODE     LINE SOURCE TEXT
  VALUE

                          M         RST?RP
                          M     if ((PREV_BANK & 1) != 0)
                          M         bcf     STATUS, RP0
                          M     endif
                          M     if ((PREV_BANK & 2) != 0)
                          M         bcf     STATUS, RP1
                          M     endif
  00000000                M PREV_BANK = 0
                          M 
                          M     ifdef USE_LINKER
                          M       if (CODE_SIZE > 2)
                          M         pagesel DEBUG
                          M       endif
                          M     else
                          M       if ((DEBUG) < 1)
                          M         if (CODE_SIZE > 2)
                          M           if (((DEBUG) & 800h) == 0)
                          M         bcf     PCLATH, 3
                          M         else
                          M         bsf     PCLATH, 3
                          M         endif
                          M         endif
                          M         if (CODE_SIZE > 4)
                          M           if (((DEBUG) & 1000h) == 0)
                          M         bcf     PCLATH, 4
                          M           else
                          M         bsf     PCLATH, 4
                          M           endif
                          M         endif
                          M       else
                          M         if ((DEBUG) > $)
                          M           if (CODE_SIZE > 2)
                          M             if (((DEBUG) & 800h) == 0)
                          M         bcf     PCLATH, 3
                          M             else
                          M         bsf     PCLATH, 3
                          M             endif
                          M           endif
                          M           if (CODE_SIZE > 4)
                          M             if (((DEBUG) & 1000h) == 0)
                          M         bcf     PCLATH, 4
                          M             else
                          M         bsf     PCLATH, 4
                          M             endif
                          M           endif
                          M         else
                          M           if (CODE_SIZE > 2)
                          M             if (((DEBUG) & 1800h) == 0)
0307   018A               M         clrf    PCLATH
                          M             else
                          M               if (((DEBUG) & 800h) == 0)
                          M         bcf     PCLATH, 3
                          M               else
MPASM  5.36                      MB_STDIM.ASM   5-24-2019  13:22:05         PAGE 281


LOC  OBJECT CODE     LINE SOURCE TEXT
  VALUE

                          M         bsf     PCLATH, 3
                          M               endif
                          M               if (CODE_SIZE > 4)
                          M                 if (((DEBUG) & 1000h) == 0)
                          M         bcf     PCLATH, 4
                          M                 else
                          M         bsf     PCLATH, 4
                          M                 endif   
                          M               endif
                          M             endif
                          M           endif
                          M         endif
                          M       endif
                          M     endif
                          M 
0308   200D               M         call    DEBUG
                      00807         DEBUG?C 065h
0309   3065               M         movlw   065h
                          M         L?CALL  DEBUG
                          M         RST?RP
                          M     if ((PREV_BANK & 1) != 0)
                          M         bcf     STATUS, RP0
                          M     endif
                          M     if ((PREV_BANK & 2) != 0)
                          M         bcf     STATUS, RP1
                          M     endif
  00000000                M PREV_BANK = 0
                          M 
                          M     ifdef USE_LINKER
                          M       if (CODE_SIZE > 2)
                          M         pagesel DEBUG
                          M       endif
                          M     else
                          M       if ((DEBUG) < 1)
                          M         if (CODE_SIZE > 2)
                          M           if (((DEBUG) & 800h) == 0)
                          M         bcf     PCLATH, 3
                          M         else
                          M         bsf     PCLATH, 3
                          M         endif
                          M         endif
                          M         if (CODE_SIZE > 4)
                          M           if (((DEBUG) & 1000h) == 0)
                          M         bcf     PCLATH, 4
                          M           else
                          M         bsf     PCLATH, 4
                          M           endif
                          M         endif
                          M       else
                          M         if ((DEBUG) > $)
                          M           if (CODE_SIZE > 2)
                          M             if (((DEBUG) & 800h) == 0)
                          M         bcf     PCLATH, 3
MPASM  5.36                      MB_STDIM.ASM   5-24-2019  13:22:05         PAGE 282


LOC  OBJECT CODE     LINE SOURCE TEXT
  VALUE

                          M             else
                          M         bsf     PCLATH, 3
                          M             endif
                          M           endif
                          M           if (CODE_SIZE > 4)
                          M             if (((DEBUG) & 1000h) == 0)
                          M         bcf     PCLATH, 4
                          M             else
                          M         bsf     PCLATH, 4
                          M             endif
                          M           endif
                          M         else
                          M           if (CODE_SIZE > 2)
                          M             if (((DEBUG) & 1800h) == 0)
030A   018A               M         clrf    PCLATH
                          M             else
                          M               if (((DEBUG) & 800h) == 0)
                          M         bcf     PCLATH, 3
                          M               else
                          M         bsf     PCLATH, 3
                          M               endif
                          M               if (CODE_SIZE > 4)
                          M                 if (((DEBUG) & 1000h) == 0)
                          M         bcf     PCLATH, 4
                          M                 else
                          M         bsf     PCLATH, 4
                          M                 endif   
                          M               endif
                          M             endif
                          M           endif
                          M         endif
                          M       endif
                          M     endif
                          M 
030B   200D               M         call    DEBUG
                      00808         DEBUG?C 064h
030C   3064               M         movlw   064h
                          M         L?CALL  DEBUG
                          M         RST?RP
                          M     if ((PREV_BANK & 1) != 0)
                          M         bcf     STATUS, RP0
                          M     endif
                          M     if ((PREV_BANK & 2) != 0)
                          M         bcf     STATUS, RP1
                          M     endif
  00000000                M PREV_BANK = 0
                          M 
                          M     ifdef USE_LINKER
                          M       if (CODE_SIZE > 2)
                          M         pagesel DEBUG
                          M       endif
                          M     else
                          M       if ((DEBUG) < 1)
MPASM  5.36                      MB_STDIM.ASM   5-24-2019  13:22:05         PAGE 283


LOC  OBJECT CODE     LINE SOURCE TEXT
  VALUE

                          M         if (CODE_SIZE > 2)
                          M           if (((DEBUG) & 800h) == 0)
                          M         bcf     PCLATH, 3
                          M         else
                          M         bsf     PCLATH, 3
                          M         endif
                          M         endif
                          M         if (CODE_SIZE > 4)
                          M           if (((DEBUG) & 1000h) == 0)
                          M         bcf     PCLATH, 4
                          M           else
                          M         bsf     PCLATH, 4
                          M           endif
                          M         endif
                          M       else
                          M         if ((DEBUG) > $)
                          M           if (CODE_SIZE > 2)
                          M             if (((DEBUG) & 800h) == 0)
                          M         bcf     PCLATH, 3
                          M             else
                          M         bsf     PCLATH, 3
                          M             endif
                          M           endif
                          M           if (CODE_SIZE > 4)
                          M             if (((DEBUG) & 1000h) == 0)
                          M         bcf     PCLATH, 4
                          M             else
                          M         bsf     PCLATH, 4
                          M             endif
                          M           endif
                          M         else
                          M           if (CODE_SIZE > 2)
                          M             if (((DEBUG) & 1800h) == 0)
030D   018A               M         clrf    PCLATH
                          M             else
                          M               if (((DEBUG) & 800h) == 0)
                          M         bcf     PCLATH, 3
                          M               else
                          M         bsf     PCLATH, 3
                          M               endif
                          M               if (CODE_SIZE > 4)
                          M                 if (((DEBUG) & 1000h) == 0)
                          M         bcf     PCLATH, 4
                          M                 else
                          M         bsf     PCLATH, 4
                          M                 endif   
                          M               endif
                          M             endif
                          M           endif
                          M         endif
                          M       endif
                          M     endif
                          M 
MPASM  5.36                      MB_STDIM.ASM   5-24-2019  13:22:05         PAGE 284


LOC  OBJECT CODE     LINE SOURCE TEXT
  VALUE

030E   200D               M         call    DEBUG
                      00809         DEBUG?C 00Dh
030F   300D               M         movlw   00Dh
                          M         L?CALL  DEBUG
                          M         RST?RP
                          M     if ((PREV_BANK & 1) != 0)
                          M         bcf     STATUS, RP0
                          M     endif
                          M     if ((PREV_BANK & 2) != 0)
                          M         bcf     STATUS, RP1
                          M     endif
  00000000                M PREV_BANK = 0
                          M 
                          M     ifdef USE_LINKER
                          M       if (CODE_SIZE > 2)
                          M         pagesel DEBUG
                          M       endif
                          M     else
                          M       if ((DEBUG) < 1)
                          M         if (CODE_SIZE > 2)
                          M           if (((DEBUG) & 800h) == 0)
                          M         bcf     PCLATH, 3
                          M         else
                          M         bsf     PCLATH, 3
                          M         endif
                          M         endif
                          M         if (CODE_SIZE > 4)
                          M           if (((DEBUG) & 1000h) == 0)
                          M         bcf     PCLATH, 4
                          M           else
                          M         bsf     PCLATH, 4
                          M           endif
                          M         endif
                          M       else
                          M         if ((DEBUG) > $)
                          M           if (CODE_SIZE > 2)
                          M             if (((DEBUG) & 800h) == 0)
                          M         bcf     PCLATH, 3
                          M             else
                          M         bsf     PCLATH, 3
                          M             endif
                          M           endif
                          M           if (CODE_SIZE > 4)
                          M             if (((DEBUG) & 1000h) == 0)
                          M         bcf     PCLATH, 4
                          M             else
                          M         bsf     PCLATH, 4
                          M             endif
                          M           endif
                          M         else
                          M           if (CODE_SIZE > 2)
                          M             if (((DEBUG) & 1800h) == 0)
0310   018A               M         clrf    PCLATH
MPASM  5.36                      MB_STDIM.ASM   5-24-2019  13:22:05         PAGE 285


LOC  OBJECT CODE     LINE SOURCE TEXT
  VALUE

                          M             else
                          M               if (((DEBUG) & 800h) == 0)
                          M         bcf     PCLATH, 3
                          M               else
                          M         bsf     PCLATH, 3
                          M               endif
                          M               if (CODE_SIZE > 4)
                          M                 if (((DEBUG) & 1000h) == 0)
                          M         bcf     PCLATH, 4
                          M                 else
                          M         bsf     PCLATH, 4
                          M                 endif   
                          M               endif
                          M             endif
                          M           endif
                          M         endif
                          M       endif
                          M     endif
                          M 
0311   200D               M         call    DEBUG
                      00810         DEBUG?C 00Ah
0312   300A               M         movlw   00Ah
                          M         L?CALL  DEBUG
                          M         RST?RP
                          M     if ((PREV_BANK & 1) != 0)
                          M         bcf     STATUS, RP0
                          M     endif
                          M     if ((PREV_BANK & 2) != 0)
                          M         bcf     STATUS, RP1
                          M     endif
  00000000                M PREV_BANK = 0
                          M 
                          M     ifdef USE_LINKER
                          M       if (CODE_SIZE > 2)
                          M         pagesel DEBUG
                          M       endif
                          M     else
                          M       if ((DEBUG) < 1)
                          M         if (CODE_SIZE > 2)
                          M           if (((DEBUG) & 800h) == 0)
                          M         bcf     PCLATH, 3
                          M         else
                          M         bsf     PCLATH, 3
                          M         endif
                          M         endif
                          M         if (CODE_SIZE > 4)
                          M           if (((DEBUG) & 1000h) == 0)
                          M         bcf     PCLATH, 4
                          M           else
                          M         bsf     PCLATH, 4
                          M           endif
                          M         endif
                          M       else
MPASM  5.36                      MB_STDIM.ASM   5-24-2019  13:22:05         PAGE 286


LOC  OBJECT CODE     LINE SOURCE TEXT
  VALUE

                          M         if ((DEBUG) > $)
                          M           if (CODE_SIZE > 2)
                          M             if (((DEBUG) & 800h) == 0)
                          M         bcf     PCLATH, 3
                          M             else
                          M         bsf     PCLATH, 3
                          M             endif
                          M           endif
                          M           if (CODE_SIZE > 4)
                          M             if (((DEBUG) & 1000h) == 0)
                          M         bcf     PCLATH, 4
                          M             else
                          M         bsf     PCLATH, 4
                          M             endif
                          M           endif
                          M         else
                          M           if (CODE_SIZE > 2)
                          M             if (((DEBUG) & 1800h) == 0)
0313   018A               M         clrf    PCLATH
                          M             else
                          M               if (((DEBUG) & 800h) == 0)
                          M         bcf     PCLATH, 3
                          M               else
                          M         bsf     PCLATH, 3
                          M               endif
                          M               if (CODE_SIZE > 4)
                          M                 if (((DEBUG) & 1000h) == 0)
                          M         bcf     PCLATH, 4
                          M                 else
                          M         bsf     PCLATH, 4
                          M                 endif   
                          M               endif
                          M             endif
                          M           endif
                          M         endif
                          M       endif
                          M     endif
                          M 
0314   200D               M         call    DEBUG
                      00811 
                      00812 ; C:\USERS\JESSADA\DESKTOP\LED DIMMER PROJECT\PIC16F886\MB_STDIM.BAS    00373   Z00072          return
0315                  00813 Z00072
                      00814         RETURN? 
                          M     ifdef DEBUG_STACK
                          M         CHK?RP  DEBUG_STACK
                          M         decf    DEBUG_STACK, F
                          M     endif
                          M         RST?RP
                          M     if ((PREV_BANK & 1) != 0)
                          M         bcf     STATUS, RP0
                          M     endif
                          M     if ((PREV_BANK & 2) != 0)
                          M         bcf     STATUS, RP1
MPASM  5.36                      MB_STDIM.ASM   5-24-2019  13:22:05         PAGE 287


LOC  OBJECT CODE     LINE SOURCE TEXT
  VALUE

                          M     endif
  00000000                M PREV_BANK = 0
0315   0008               M         return
                      00815 
                      00816 ; C:\USERS\JESSADA\DESKTOP\LED DIMMER PROJECT\PIC16F886\MB_STDIM.BAS    00376   Z00073  OnTm1:          
                                            ; 20 mhz
0316                  00817 Z00073
                      00818 
                      00819         LABEL?L _OnTm1  
                          M         RST?RP
                          M     if ((PREV_BANK & 1) != 0)
                          M         bcf     STATUS, RP0
                          M     endif
                          M     if ((PREV_BANK & 2) != 0)
                          M         bcf     STATUS, RP1
                          M     endif
  00000000                M PREV_BANK = 0
                          M     ifdef PM_USED
                          M         LALL
                          M _OnTm1
                          M         XALL
                          M     else
0316                      M _OnTm1
                          M     endif
                      00820 
                      00821 ; C:\USERS\JESSADA\DESKTOP\LED DIMMER PROJECT\PIC16F886\MB_STDIM.BAS    00379   Z00074          T1CON=%0
                            0100101                 ;
0316                  00822 Z00074
                      00823         MOVE?CB 025h, T1CON
                          M         CHK?RP  T1CON
                          M     if (((T1CON) & 180h) == 0)
                          M       if (PREV_BANK == 1)
                          M         bcf     STATUS, RP0
                          M       endif
                          M       if (PREV_BANK == 2)
                          M         bcf     STATUS, RP1
                          M       endif
                          M       if (PREV_BANK == 3)
                          M         bcf     STATUS, RP0
                          M         bcf     STATUS, RP1
                          M       endif
  00000000                M PREV_BANK = 0
                          M     endif
                          M 
                          M     if (((T1CON) & 180h) == 80h)
                          M       if (PREV_BANK == 0)
                          M         bsf     STATUS, RP0
                          M       endif
                          M       if (PREV_BANK == 2)
                          M         bsf     STATUS, RP0
                          M         bcf     STATUS, RP1
                          M       endif
                          M       if (PREV_BANK == 3)
MPASM  5.36                      MB_STDIM.ASM   5-24-2019  13:22:05         PAGE 288


LOC  OBJECT CODE     LINE SOURCE TEXT
  VALUE

                          M         bcf     STATUS, RP1
                          M       endif
                          M PREV_BANK = 1
                          M     endif
                          M 
                          M     if (((T1CON) & 180h) == 100h)
                          M       if (PREV_BANK == 0)
                          M         bsf     STATUS, RP1
                          M       endif
                          M       if (PREV_BANK == 1)
                          M         bcf     STATUS, RP0
                          M         bsf     STATUS, RP1
                          M       endif
                          M       if (PREV_BANK == 3)
                          M         bcf     STATUS, RP0
                          M       endif
                          M PREV_BANK = 2
                          M     endif
                          M 
                          M     if (((T1CON) & 180h) == 180h)
                          M       if (PREV_BANK == 0)
                          M         bsf     STATUS, RP0
                          M         bsf     STATUS, RP1
                          M       endif
                          M       if (PREV_BANK == 1)
                          M         bsf     STATUS, RP1
                          M       endif
                          M       if (PREV_BANK == 2)
                          M         bsf     STATUS, RP0
                          M       endif
                          M PREV_BANK = 3
                          M     endif
                          M     if (low (025h) == 0)
                          M         clrf    T1CON
                          M     else
0316   3025               M         movlw   low (025h)
0317   0090               M         movwf   T1CON
                          M     endif
                      00824 
                      00825 ; C:\USERS\JESSADA\DESKTOP\LED DIMMER PROJECT\PIC16F886\MB_STDIM.BAS    00380   Z00075          TMR1H=$f
                            6 :TMR1L=$40    ; 1ms *** [preload=63040]       use Timer Helper select fosc=20 mhz, reload inst
0318                  00826 Z00075
                      00827         MOVE?CB 0F6h, TMR1H
                          M         CHK?RP  TMR1H
                          M     if (((TMR1H) & 180h) == 0)
                          M       if (PREV_BANK == 1)
                          M         bcf     STATUS, RP0
                          M       endif
                          M       if (PREV_BANK == 2)
                          M         bcf     STATUS, RP1
                          M       endif
                          M       if (PREV_BANK == 3)
                          M         bcf     STATUS, RP0
MPASM  5.36                      MB_STDIM.ASM   5-24-2019  13:22:05         PAGE 289


LOC  OBJECT CODE     LINE SOURCE TEXT
  VALUE

                          M         bcf     STATUS, RP1
                          M       endif
  00000000                M PREV_BANK = 0
                          M     endif
                          M 
                          M     if (((TMR1H) & 180h) == 80h)
                          M       if (PREV_BANK == 0)
                          M         bsf     STATUS, RP0
                          M       endif
                          M       if (PREV_BANK == 2)
                          M         bsf     STATUS, RP0
                          M         bcf     STATUS, RP1
                          M       endif
                          M       if (PREV_BANK == 3)
                          M         bcf     STATUS, RP1
                          M       endif
                          M PREV_BANK = 1
                          M     endif
                          M 
                          M     if (((TMR1H) & 180h) == 100h)
                          M       if (PREV_BANK == 0)
                          M         bsf     STATUS, RP1
                          M       endif
                          M       if (PREV_BANK == 1)
                          M         bcf     STATUS, RP0
                          M         bsf     STATUS, RP1
                          M       endif
                          M       if (PREV_BANK == 3)
                          M         bcf     STATUS, RP0
                          M       endif
                          M PREV_BANK = 2
                          M     endif
                          M 
                          M     if (((TMR1H) & 180h) == 180h)
                          M       if (PREV_BANK == 0)
                          M         bsf     STATUS, RP0
                          M         bsf     STATUS, RP1
                          M       endif
                          M       if (PREV_BANK == 1)
                          M         bsf     STATUS, RP1
                          M       endif
                          M       if (PREV_BANK == 2)
                          M         bsf     STATUS, RP0
                          M       endif
                          M PREV_BANK = 3
                          M     endif
                          M     if (low (0F6h) == 0)
                          M         clrf    TMR1H
                          M     else
0318   30F6               M         movlw   low (0F6h)
0319   008F               M         movwf   TMR1H
                          M     endif
                      00828 
MPASM  5.36                      MB_STDIM.ASM   5-24-2019  13:22:05         PAGE 290


LOC  OBJECT CODE     LINE SOURCE TEXT
  VALUE

                      00829 ; C:\USERS\JESSADA\DESKTOP\LED DIMMER PROJECT\PIC16F886\MB_STDIM.BAS    00380   Z00076          TMR1H=$f
                            6 :TMR1L=$40    ; 1ms *** [preload=63040]       use Timer Helper select fosc=20 mhz, reload inst
031A                  00830 Z00076
                      00831         MOVE?CB 040h, TMR1L
                          M         CHK?RP  TMR1L
                          M     if (((TMR1L) & 180h) == 0)
                          M       if (PREV_BANK == 1)
                          M         bcf     STATUS, RP0
                          M       endif
                          M       if (PREV_BANK == 2)
                          M         bcf     STATUS, RP1
                          M       endif
                          M       if (PREV_BANK == 3)
                          M         bcf     STATUS, RP0
                          M         bcf     STATUS, RP1
                          M       endif
  00000000                M PREV_BANK = 0
                          M     endif
                          M 
                          M     if (((TMR1L) & 180h) == 80h)
                          M       if (PREV_BANK == 0)
                          M         bsf     STATUS, RP0
                          M       endif
                          M       if (PREV_BANK == 2)
                          M         bsf     STATUS, RP0
                          M         bcf     STATUS, RP1
                          M       endif
                          M       if (PREV_BANK == 3)
                          M         bcf     STATUS, RP1
                          M       endif
                          M PREV_BANK = 1
                          M     endif
                          M 
                          M     if (((TMR1L) & 180h) == 100h)
                          M       if (PREV_BANK == 0)
                          M         bsf     STATUS, RP1
                          M       endif
                          M       if (PREV_BANK == 1)
                          M         bcf     STATUS, RP0
                          M         bsf     STATUS, RP1
                          M       endif
                          M       if (PREV_BANK == 3)
                          M         bcf     STATUS, RP0
                          M       endif
                          M PREV_BANK = 2
                          M     endif
                          M 
                          M     if (((TMR1L) & 180h) == 180h)
                          M       if (PREV_BANK == 0)
                          M         bsf     STATUS, RP0
                          M         bsf     STATUS, RP1
                          M       endif
                          M       if (PREV_BANK == 1)
MPASM  5.36                      MB_STDIM.ASM   5-24-2019  13:22:05         PAGE 291


LOC  OBJECT CODE     LINE SOURCE TEXT
  VALUE

                          M         bsf     STATUS, RP1
                          M       endif
                          M       if (PREV_BANK == 2)
                          M         bsf     STATUS, RP0
                          M       endif
                          M PREV_BANK = 3
                          M     endif
                          M     if (low (040h) == 0)
                          M         clrf    TMR1L
                          M     else
031A   3040               M         movlw   low (040h)
031B   008E               M         movwf   TMR1L
                          M     endif
                      00832 
                      00833 ; C:\USERS\JESSADA\DESKTOP\LED DIMMER PROJECT\PIC16F886\MB_STDIM.BAS    00382   Z00077          low TMR1
                            IF                              ; clr flag
031C                  00834 Z00077
                      00835         LOW?T   _TMR1IF
                          M         MOVE?CT 0, PIR1,  000h
                          M         CHK?RP  PIR1
                          M     if (((PIR1)  & 180h) == 0)
                          M       if (PREV_BANK == 1)
                          M         bcf     STATUS, RP0
                          M       endif
                          M       if (PREV_BANK == 2)
                          M         bcf     STATUS, RP1
                          M       endif
                          M       if (PREV_BANK == 3)
                          M         bcf     STATUS, RP0
                          M         bcf     STATUS, RP1
                          M       endif
  00000000                M PREV_BANK = 0
                          M     endif
                          M 
                          M     if (((PIR1)  & 180h) == 80h)
                          M       if (PREV_BANK == 0)
                          M         bsf     STATUS, RP0
                          M       endif
                          M       if (PREV_BANK == 2)
                          M         bsf     STATUS, RP0
                          M         bcf     STATUS, RP1
                          M       endif
                          M       if (PREV_BANK == 3)
                          M         bcf     STATUS, RP1
                          M       endif
                          M PREV_BANK = 1
                          M     endif
                          M 
                          M     if (((PIR1)  & 180h) == 100h)
                          M       if (PREV_BANK == 0)
                          M         bsf     STATUS, RP1
                          M       endif
                          M       if (PREV_BANK == 1)
MPASM  5.36                      MB_STDIM.ASM   5-24-2019  13:22:05         PAGE 292


LOC  OBJECT CODE     LINE SOURCE TEXT
  VALUE

                          M         bcf     STATUS, RP0
                          M         bsf     STATUS, RP1
                          M       endif
                          M       if (PREV_BANK == 3)
                          M         bcf     STATUS, RP0
                          M       endif
                          M PREV_BANK = 2
                          M     endif
                          M 
                          M     if (((PIR1)  & 180h) == 180h)
                          M       if (PREV_BANK == 0)
                          M         bsf     STATUS, RP0
                          M         bsf     STATUS, RP1
                          M       endif
                          M       if (PREV_BANK == 1)
                          M         bsf     STATUS, RP1
                          M       endif
                          M       if (PREV_BANK == 2)
                          M         bsf     STATUS, RP0
                          M       endif
                          M PREV_BANK = 3
                          M     endif
                          M     if (((0)   & 1) == 1)
                          M         bsf     PIR1,   000h
                          M     else
031C   100C               M         bcf     PIR1,   000h
                          M     endif
                          M         MOVE?CT 0, ((PIR1)  + 80h), 000h
                          M         CHK?RP  ((PIR1) + 80h)
                          M     if (((((PIR1) + 80h)) & 180h) == 0)
                          M       if (PREV_BANK == 1)
                          M         bcf     STATUS, RP0
                          M       endif
                          M       if (PREV_BANK == 2)
                          M         bcf     STATUS, RP1
                          M       endif
                          M       if (PREV_BANK == 3)
                          M         bcf     STATUS, RP0
                          M         bcf     STATUS, RP1
                          M       endif
                          M PREV_BANK = 0
                          M     endif
                          M 
                          M     if (((((PIR1) + 80h)) & 180h) == 80h)
                          M       if (PREV_BANK == 0)
031D   1683               M         bsf     STATUS, RP0
                          M       endif
                          M       if (PREV_BANK == 2)
                          M         bsf     STATUS, RP0
                          M         bcf     STATUS, RP1
                          M       endif
                          M       if (PREV_BANK == 3)
                          M         bcf     STATUS, RP1
MPASM  5.36                      MB_STDIM.ASM   5-24-2019  13:22:05         PAGE 293


LOC  OBJECT CODE     LINE SOURCE TEXT
  VALUE

                          M       endif
  00000001                M PREV_BANK = 1
                          M     endif
                          M 
                          M     if (((((PIR1) + 80h)) & 180h) == 100h)
                          M       if (PREV_BANK == 0)
                          M         bsf     STATUS, RP1
                          M       endif
                          M       if (PREV_BANK == 1)
                          M         bcf     STATUS, RP0
                          M         bsf     STATUS, RP1
                          M       endif
                          M       if (PREV_BANK == 3)
                          M         bcf     STATUS, RP0
                          M       endif
                          M PREV_BANK = 2
                          M     endif
                          M 
                          M     if (((((PIR1) + 80h)) & 180h) == 180h)
                          M       if (PREV_BANK == 0)
                          M         bsf     STATUS, RP0
                          M         bsf     STATUS, RP1
                          M       endif
                          M       if (PREV_BANK == 1)
                          M         bsf     STATUS, RP1
                          M       endif
                          M       if (PREV_BANK == 2)
                          M         bsf     STATUS, RP0
                          M       endif
                          M PREV_BANK = 3
                          M     endif
                          M     if (((0)   & 1) == 1)
                          M         bsf     ((PIR1) + 80h), 000h
                          M     else
031E   100C               M         bcf     ((PIR1) + 80h), 000h
                          M     endif
                      00836 
                      00837 ; C:\USERS\JESSADA\DESKTOP\LED DIMMER PROJECT\PIC16F886\MB_STDIM.BAS    00383   Z00078          high TMR
                            1ON                             ; timer1 on
031F                  00838 Z00078
                      00839         HIGH?T  _TMR1ON
                          M         MOVE?CT 1, T1CON, 000h
                          M         CHK?RP  T1CON
                          M     if (((T1CON) & 180h) == 0)
                          M       if (PREV_BANK == 1)
031F   1283               M         bcf     STATUS, RP0
                          M       endif
                          M       if (PREV_BANK == 2)
                          M         bcf     STATUS, RP1
                          M       endif
                          M       if (PREV_BANK == 3)
                          M         bcf     STATUS, RP0
                          M         bcf     STATUS, RP1
MPASM  5.36                      MB_STDIM.ASM   5-24-2019  13:22:05         PAGE 294


LOC  OBJECT CODE     LINE SOURCE TEXT
  VALUE

                          M       endif
  00000000                M PREV_BANK = 0
                          M     endif
                          M 
                          M     if (((T1CON) & 180h) == 80h)
                          M       if (PREV_BANK == 0)
                          M         bsf     STATUS, RP0
                          M       endif
                          M       if (PREV_BANK == 2)
                          M         bsf     STATUS, RP0
                          M         bcf     STATUS, RP1
                          M       endif
                          M       if (PREV_BANK == 3)
                          M         bcf     STATUS, RP1
                          M       endif
                          M PREV_BANK = 1
                          M     endif
                          M 
                          M     if (((T1CON) & 180h) == 100h)
                          M       if (PREV_BANK == 0)
                          M         bsf     STATUS, RP1
                          M       endif
                          M       if (PREV_BANK == 1)
                          M         bcf     STATUS, RP0
                          M         bsf     STATUS, RP1
                          M       endif
                          M       if (PREV_BANK == 3)
                          M         bcf     STATUS, RP0
                          M       endif
                          M PREV_BANK = 2
                          M     endif
                          M 
                          M     if (((T1CON) & 180h) == 180h)
                          M       if (PREV_BANK == 0)
                          M         bsf     STATUS, RP0
                          M         bsf     STATUS, RP1
                          M       endif
                          M       if (PREV_BANK == 1)
                          M         bsf     STATUS, RP1
                          M       endif
                          M       if (PREV_BANK == 2)
                          M         bsf     STATUS, RP0
                          M       endif
                          M PREV_BANK = 3
                          M     endif
                          M     if (((1)   & 1) == 1)
0320   1410               M         bsf     T1CON,  000h
                          M     else
                          M         bcf     T1CON,  000h
                          M     endif
                          M         MOVE?CT 0, ((T1CON) + 80h), 000h
                          M         CHK?RP  ((T1CON) + 80h)
                          M     if (((((T1CON) + 80h)) & 180h) == 0)
MPASM  5.36                      MB_STDIM.ASM   5-24-2019  13:22:05         PAGE 295


LOC  OBJECT CODE     LINE SOURCE TEXT
  VALUE

                          M       if (PREV_BANK == 1)
                          M         bcf     STATUS, RP0
                          M       endif
                          M       if (PREV_BANK == 2)
                          M         bcf     STATUS, RP1
                          M       endif
                          M       if (PREV_BANK == 3)
                          M         bcf     STATUS, RP0
                          M         bcf     STATUS, RP1
                          M       endif
                          M PREV_BANK = 0
                          M     endif
                          M 
                          M     if (((((T1CON) + 80h)) & 180h) == 80h)
                          M       if (PREV_BANK == 0)
0321   1683               M         bsf     STATUS, RP0
                          M       endif
                          M       if (PREV_BANK == 2)
                          M         bsf     STATUS, RP0
                          M         bcf     STATUS, RP1
                          M       endif
                          M       if (PREV_BANK == 3)
                          M         bcf     STATUS, RP1
                          M       endif
  00000001                M PREV_BANK = 1
                          M     endif
                          M 
                          M     if (((((T1CON) + 80h)) & 180h) == 100h)
                          M       if (PREV_BANK == 0)
                          M         bsf     STATUS, RP1
                          M       endif
                          M       if (PREV_BANK == 1)
                          M         bcf     STATUS, RP0
                          M         bsf     STATUS, RP1
                          M       endif
                          M       if (PREV_BANK == 3)
                          M         bcf     STATUS, RP0
                          M       endif
                          M PREV_BANK = 2
                          M     endif
                          M 
                          M     if (((((T1CON) + 80h)) & 180h) == 180h)
                          M       if (PREV_BANK == 0)
                          M         bsf     STATUS, RP0
                          M         bsf     STATUS, RP1
                          M       endif
                          M       if (PREV_BANK == 1)
                          M         bsf     STATUS, RP1
                          M       endif
                          M       if (PREV_BANK == 2)
                          M         bsf     STATUS, RP0
                          M       endif
                          M PREV_BANK = 3
MPASM  5.36                      MB_STDIM.ASM   5-24-2019  13:22:05         PAGE 296


LOC  OBJECT CODE     LINE SOURCE TEXT
  VALUE

                          M     endif
                          M     if (((0)   & 1) == 1)
                          M         bsf     ((T1CON) + 80h), 000h
                          M     else
0322   1010               M         bcf     ((T1CON) + 80h), 000h
                          M     endif
                      00840 
                      00841 ; C:\USERS\JESSADA\DESKTOP\LED DIMMER PROJECT\PIC16F886\MB_STDIM.BAS    00384   Z00079          return
0323                  00842 Z00079
                      00843         RETURN? 
                          M     ifdef DEBUG_STACK
                          M         CHK?RP  DEBUG_STACK
                          M         decf    DEBUG_STACK, F
                          M     endif
                          M         RST?RP
                          M     if ((PREV_BANK & 1) != 0)
0323   1283               M         bcf     STATUS, RP0
                          M     endif
                          M     if ((PREV_BANK & 2) != 0)
                          M         bcf     STATUS, RP1
                          M     endif
  00000000                M PREV_BANK = 0
0324   0008               M         return
                      00844 
                      00845 ; C:\USERS\JESSADA\DESKTOP\LED DIMMER PROJECT\PIC16F886\MB_STDIM.BAS    00392   Z0007A  @        __confi
                            g _CONFIG1, 239AH       
0325                  00846 Z0007A
                      00847 
                      00848         ASM?
                          M         RST?RP
                          M     if ((PREV_BANK & 1) != 0)
                          M         bcf     STATUS, RP0
                          M     endif
                          M     if ((PREV_BANK & 2) != 0)
                          M         bcf     STATUS, RP1
                          M     endif
  00000000                M PREV_BANK = 0
2007   239A           00849         __config _CONFIG1, 239AH        
                      00850 
                      00851         ENDASM?
                      00852 
                      00853 
                      00854 ; C:\USERS\JESSADA\DESKTOP\LED DIMMER PROJECT\PIC16F886\MB_STDIM.BAS    00393   Z0007B  @        __confi
                            g _CONFIG2, 3EFFH
0325                  00855 Z0007B
                      00856 
                      00857         ASM?
                          M         RST?RP
                          M     if ((PREV_BANK & 1) != 0)
                          M         bcf     STATUS, RP0
                          M     endif
                          M     if ((PREV_BANK & 2) != 0)
                          M         bcf     STATUS, RP1
MPASM  5.36                      MB_STDIM.ASM   5-24-2019  13:22:05         PAGE 297


LOC  OBJECT CODE     LINE SOURCE TEXT
  VALUE

                          M     endif
  00000000                M PREV_BANK = 0
2008   3EFF           00858         __config _CONFIG2, 3EFFH
                      00859 
                      00860         ENDASM?
                      00861 
                      00862 
                      00863 ; C:\USERS\JESSADA\DESKTOP\LED DIMMER PROJECT\PIC16F886\MB_STDIM.BAS    00397   Z0007C          END     
                                            ' End of program
0325                  00864 Z0007C
                      00865         END?    
  0000                    M     local loop
0325   0063               M loop    sleep
                          M         L?GOTO  loop
                          M     ifdef USE_LINKER
                          M         CLRWDT?
                          M     else
                          M       if ($ == (_606loop))
                          M         CLRWDT?
                          M       endif
                          M     endif
                          M 
                          M         RST?RP
                          M     if ((PREV_BANK & 1) != 0)
                          M         bcf     STATUS, RP0
                          M     endif
                          M     if ((PREV_BANK & 2) != 0)
                          M         bcf     STATUS, RP1
                          M     endif
  00000000                M PREV_BANK = 0
                          M 
                          M     ifdef USE_LINKER
                          M       if (CODE_SIZE > 2)
                          M         pagesel _606loop
                          M       endif
                          M     else
                          M       if ((_606loop) < 1)
                          M         if (CODE_SIZE > 2)
                          M           if (((_606loop) & 800h) == 0)
                          M         bcf     PCLATH, 3
                          M           else
                          M         bsf     PCLATH, 3
                          M           endif
                          M         endif
                          M         if (CODE_SIZE > 4)
                          M           if (((_606loop) & 1000h) == 0)
                          M         bcf     PCLATH, 4
                          M           else
                          M         bsf     PCLATH, 4
                          M           endif
                          M         endif
                          M       else
                          M         if ((_606loop) > $)
MPASM  5.36                      MB_STDIM.ASM   5-24-2019  13:22:05         PAGE 298


LOC  OBJECT CODE     LINE SOURCE TEXT
  VALUE

                          M           if (CODE_SIZE > 2)
                          M             if (((_606loop) & 800h) == 0)
                          M         bcf     PCLATH, 3
                          M             else
                          M         bsf     PCLATH, 3
                          M             endif
                          M           endif
                          M           if (CODE_SIZE > 4)
                          M             if (((_606loop) & 1000h) == 0)
                          M         bcf     PCLATH, 4
                          M             else
                          M         bsf     PCLATH, 4
                          M             endif
                          M           endif
                          M         else
                          M           if (CODE_SIZE > 2)
                          M             if (((_606loop) & 1800h) == 0)
0326   018A               M         clrf    PCLATH
                          M             else
                          M               if (((_606loop) & 800h) == 0)
                          M         bcf     PCLATH, 3
                          M               else
                          M         bsf     PCLATH, 3
                          M               endif
                          M               if (CODE_SIZE > 4)
                          M                 if (((_606loop) & 1000h) == 0)
                          M         bcf     PCLATH, 4
                          M                 else
                          M         bsf     PCLATH, 4
                          M                 endif
                          M               endif
                          M             endif
                          M           endif
                          M         endif
                          M       endif
                          M     endif
                          M 
0327   2B25               M         goto    _606loop
                      00866 
                      00867         END
MPASM  5.36                      MB_STDIM.ASM   5-24-2019  13:22:05         PAGE 299


SYMBOL TABLE
  LABEL                             VALUE 

ABDEN                             00000000
ABDOVF                            00000007
ACKDT                             00000005
ACKEN                             00000004
ACKSTAT                           00000006
ADCON0                            0000001F
ADCON1                            0000009F
ADCS0                             00000006
ADCS1                             00000007
ADC_BITS                          00000008
ADC_CLOCK                         00000003
ADC_SAMPLEUS                      00000032
ADDEN                             00000003
ADFM                              00000007
ADIE                              00000006
ADIF                              00000006
ADON                              00000000
ADRESH                            0000001E
ADRESL                            0000009E
ANS0                              00000000
ANS1                              00000001
ANS10                             00000002
ANS11                             00000003
ANS12                             00000004
ANS13                             00000005
ANS2                              00000002
ANS3                              00000003
ANS4                              00000004
ANS8                              00000000
ANS9                              00000001
ANSEL                             00000188
ANSELH                            00000189
AOUT?BBB                          
ASM?                              
BANK0_END                         0000007F
BANK0_START                       00000020
BANK1_END                         000000EF
BANK1_START                       000000A0
BANK2_END                         0000016F
BANK2_START                       00000110
BANK3_END                         000001EF
BANK3_START                       00000190
BAUDCTL                           00000187
BCLIE                             00000003
BCLIF                             00000003
BF                                00000000
BIT?FLIP                          
BIT?FW                            
BIT?GOTO                          
BIT?R1                            
BIT?R2                            
BIT?W                             
BRG0                              00000000
MPASM  5.36                      MB_STDIM.ASM   5-24-2019  13:22:05         PAGE 300


SYMBOL TABLE
  LABEL                             VALUE 

BRG1                              00000001
BRG10                             00000002
BRG11                             00000003
BRG12                             00000004
BRG13                             00000005
BRG14                             00000006
BRG15                             00000007
BRG16                             00000003
BRG2                              00000002
BRG3                              00000003
BRG4                              00000004
BRG5                              00000005
BRG6                              00000006
BRG7                              00000007
BRG8                              00000000
BRG9                              00000001
BRGH                              00000002
BUTTON_PAUSE                      0000000A
C                                 00000000
C1CH0                             00000000
C1CH1                             00000001
C1IE                              00000005
C1IF                              00000005
C1OE                              00000005
C1ON                              00000007
C1OUT                             00000006
C1POL                             00000004
C1R                               00000002
C1RSEL                            00000005
C1SEN                             00000005
C2CH0                             00000000
C2CH1                             00000001
C2IE                              00000006
C2IF                              00000006
C2OE                              00000005
C2ON                              00000007
C2OUT                             00000006
C2POL                             00000004
C2R                               00000002
C2REN                             00000004
C2RSEL                            00000004
C2SYNC                            00000000
CCP1CON                           00000017
CCP1IE                            00000002
CCP1IF                            00000002
CCP1M0                            00000000
CCP1M1                            00000001
CCP1M2                            00000002
CCP1M3                            00000003
CCP1X                             00000005
CCP1Y                             00000004
CCP1_BIT                          00000002
CCP1_REG                          00000007
MPASM  5.36                      MB_STDIM.ASM   5-24-2019  13:22:05         PAGE 301


SYMBOL TABLE
  LABEL                             VALUE 

CCP2CON                           0000001D
CCP2IE                            00000000
CCP2IF                            00000000
CCP2M0                            00000000
CCP2M1                            00000001
CCP2M2                            00000002
CCP2M3                            00000003
CCP2X                             00000005
CCP2Y                             00000004
CCP2_BIT                          00000001
CCP2_REG                          00000007
CCPR1H                            00000016
CCPR1L                            00000015
CCPR2H                            0000001C
CCPR2L                            0000001B
CHK?RP                            
CHS0                              00000002
CHS1                              00000003
CHS2                              00000004
CHS3                              00000005
CKE                               00000006
CKP                               00000004
CLRWDT?                           
CLRWDT?NOP                        
CM1CON0                           00000107
CM2CON0                           00000108
CM2CON1                           00000109
CMP                               000000B3
CMPF?TL                           
CMPGT                             000000AB
CMPGT?BWL                         
CMPGT_USED                        00000001
CMPLE                             000000AE
CMPLE?BCL                         
CMPLE?WCL                         
CMPLE_USED                        00000001
CMPNE                             000000B1
CMPNE?TCL                         
CMPNE?WCL                         
CMPNE_USED                        00000001
CMP_USED                          00000001
CODE_SIZE                         8
CREN                              00000004
CSRC                              00000007
D                                 00000005
DATA_ADDRESS                      00000005
DC                                00000001
DC1B0                             00000004
DC1B1                             00000005
DC2B0                             00000004
DC2B1                             00000005
DEBUG                             0000000D
DEBUG?C                           
MPASM  5.36                      MB_STDIM.ASM   5-24-2019  13:22:05         PAGE 302


SYMBOL TABLE
  LABEL                             VALUE 

DEBUG?T                           
DEBUGDELAY_USED                   00000001
DEBUGIN_BIT                       00000003
DEBUGIN_MODE                      00000000
DEBUGIN_REG                       00000006
DEBUG_BAUD                        57600
DEBUG_BIT                         3
DEBUG_DELAY                       0000000F
DEBUG_MODE                        0
DEBUG_REG                         PORTB
DEBUG_USED                        00000001
DIV                               000000C3
DIV32DIV                          000000C5
DIV_USED                          00000001
DONE                              000000DF
DONERET                           000000E3
DONE_USED                         00000001
D_A                               00000005
ECCPAS                            0000009C
ECCPAS0                           00000004
ECCPAS1                           00000005
ECCPAS2                           00000006
ECCPASE                           00000007
EEADR                             0000010D
EEADRH                            0000010F
EECON1                            0000018C
EECON2                            0000018D
EEDAT                             0000010C
EEDATA                            0000010C
EEDATH                            0000010E
EEIE                              00000004
EEIF                              00000004
EEPGD                             00000007
EEPROM_END                        000021FF
EEPROM_START                      00002100
END?                              
ENDASM?                           
F                                 00000001
FERR                              00000002
FLAGS                             00000032
FLAGS_USED                        00000001
FSR                               00000004
FVREN                             00000000
GCEN                              00000007
GIE                               00000007
GO                                00000001
GOP                               00000033
GOSUB?L                           
GOTO?L                            
GO_DONE                           00000001
HIGH?T                            
HSERINIT_USED                     00000001
HSEROUT                           00000027
MPASM  5.36                      MB_STDIM.ASM   5-24-2019  13:22:05         PAGE 303


SYMBOL TABLE
  LABEL                             VALUE 

HSEROUT?B                         
HSEROUT?C                         
HSEROUT_USED                      00000001
HSER_BAUD                         00000960
HSER_BITS                         00000008
HSER_RCSTA                        00000090
HSER_SPBRG                        00000081
HSER_TXSTA                        00000020
HTS                               00000002
I2CFIRSTFLAG                      FLAGS, 2
I2CREADFLAG                       FLAGS, 3
I2CSTOPFLAG                       FLAGS, 5
I2CSTOPSTRFLAG                    FLAGS, 6
I2CWRITEFLAG                      FLAGS, 4
I2C_DATA                          00000005
I2C_READ                          00000002
I2C_START                         00000003
I2C_STOP                          00000004
INDF                              00000000
INIT                              000000E4
INTCON                            0000000B
INTE                              00000004
INTEDG                            00000006
INTF                              00000001
INTHAND                           Int_prog
IOCB                              00000096
IOCB0                             00000000
IOCB1                             00000001
IOCB2                             00000002
IOCB3                             00000003
IOCB4                             00000004
IOCB5                             00000005
IOCB6                             00000006
IOCB7                             00000007
IRCF0                             00000004
IRCF1                             00000005
IRCF2                             00000006
IRP                               00000007
Int_ex                            00000135
Int_prog                          00000116
L00001                            000001AF
L00003                            000001B9
L00005                            000001C3
L00007                            00000210
L00009                            000001FD
L00011                            00000210
L00013                            0000024B
L00015                            0000024B
L00017                            00000229
L00018                            0000024B
L00019                            00000255
L?CALL                            
L?GOTO                            
MPASM  5.36                      MB_STDIM.ASM   5-24-2019  13:22:05         PAGE 304


SYMBOL TABLE
  LABEL                             VALUE 

LABEL?L                           
LCD                               
LCDCDFLAG                         FLAGS, 0
LCDINITFLAG                       FLAGS, 1
LCDOUT                            0000004C
LCDOUT?C                          
LCDOUTD?B                         
LCDOUTDEC                         0000002D
LCDOUTDECL                        0000002E
LCDOUTDECL_USED                   00000001
LCDOUTDEC_USED                    00000001
LCDOUT_USED                       00000001
LCD_BITS                          4
LCD_COMMANDUS                     2000
LCD_DATAUS                        50
LCD_DBIT                          4
LCD_DREG                          PORTB
LCD_EBIT                          0
LCD_EREG                          PORTC
LCD_LINES                         2
LCD_RSBIT                         1
LCD_RSREG                         PORTC
LCD_RWBIT                         00000001
LCD_RWREG                         00000007
LOW?T                             
LTS                               00000001
MC1OUT                            00000007
MC2OUT                            00000006
MOVE?AB                           
MOVE?AT                           
MOVE?AW                           
MOVE?AWW                          
MOVE?BA                           
MOVE?BB                           
MOVE?BT                           
MOVE?BW                           
MOVE?CA                           
MOVE?CB                           
MOVE?CT                           
MOVE?CW                           
MOVE?TA                           
MOVE?TB                           
MOVE?TT                           
MOVE?TW                           
MOVE?WA                           
MOVE?WB                           
MOVE?WT                           
MOVE?WW                           
MOVE?WWA                          
MPASMWIN_USED                     00000001
MSK                               00000093
NEXT?BCL                          
NOT_A                             00000005
MPASM  5.36                      MB_STDIM.ASM   5-24-2019  13:22:05         PAGE 305


SYMBOL TABLE
  LABEL                             VALUE 

NOT_ADDRESS                       00000005
NOT_BO                            00000000
NOT_BOR                           00000000
NOT_DONE                          00000001
NOT_PD                            00000003
NOT_POR                           00000001
NOT_RBPU                          00000007
NOT_RC8                           00000006
NOT_T1SYNC                        00000002
NOT_TO                            00000004
NOT_TX8                           00000006
NOT_W                             00000002
NOT_WRITE                         00000002
OERR                              00000001
OPTION_REG                        00000081
OSC                               20
OSCCON                            0000008F
OSCTUNE                           00000090
OSC_VALID                         00000001
OSFIE                             00000007
OSFIF                             00000007
OSTS                              00000003
P                                 00000004
P1M0                              00000006
P1M1                              00000007
PAUSEUS                           0000009B
PAUSEUSL                          0000009C
PAUSEUS_USED                      00000001
PCL                               00000002
PCLATH                            0000000A
PCON                              0000008E
PDC0                              00000000
PDC1                              00000001
PDC2                              00000002
PDC3                              00000003
PDC4                              00000004
PDC5                              00000005
PDC6                              00000006
PEIE                              00000006
PEN                               00000002
PIE1                              0000008C
PIE2                              0000008D
PIR1                              0000000C
PIR2                              0000000D
PORTA                             00000005
PORTB                             00000006
PORTC                             00000007
PORTE                             00000009
PR2                               00000092
PREV_BANK                         00000000
PRSEN                             00000007
PS0                               00000000
PS1                               00000001
MPASM  5.36                      MB_STDIM.ASM   5-24-2019  13:22:05         PAGE 306


SYMBOL TABLE
  LABEL                             VALUE 

PS2                               00000002
PSA                               00000003
PSSAC0                            00000002
PSSAC1                            00000003
PSSBD0                            00000000
PSSBD1                            00000001
PSTRCON                           0000009D
PULSR                             00000002
PULSS                             00000003
PWM1CON                           0000009B
R                                 00000002
R0                                00000020
R1                                00000022
R2                                00000024
R3                                00000026
R4                                00000028
R5                                0000002A
R6                                0000002C
R7                                0000002E
R8                                00000030
RAM_BANKS                         00000004
RAM_END                           000001EF
RAM_START                         00000020
RBIE                              00000003
RBIF                              00000000
RC8_9                             00000006
RC9                               00000006
RCD8                              00000000
RCEN                              00000003
RCIDL                             00000006
RCIE                              00000005
RCIF                              00000005
RCREG                             0000001A
RCSTA                             00000018
RD                                00000000
READ_WRITE                        00000002
RESET_ORG                         00000000
RETURN?                           
RM1                               00000034
RM2                               00000035
RP0                               00000005
RP1                               00000006
RR1                               00000036
RR2                               00000037
RSEN                              00000001
RST?RP                            
RX9                               00000006
RX9D                              00000000
R_W                               00000002
S                                 00000003
SBOREN                            00000004
SCKP                              00000004
SCS                               00000000
MPASM  5.36                      MB_STDIM.ASM   5-24-2019  13:22:05         PAGE 307


SYMBOL TABLE
  LABEL                             VALUE 

SEN                               00000000
SENDB                             00000003
SMP                               00000007
SPBRG                             00000099
SPBRGH                            0000009A
SPEN                              00000007
SR0                               00000006
SR1                               00000007
SRCON                             00000185
SREN                              00000005
SSPADD                            00000093
SSPBUF                            00000013
SSPCON                            00000014
SSPCON2                           00000091
SSPEN                             00000005
SSPIE                             00000003
SSPIF                             00000003
SSPM0                             00000000
SSPM1                             00000001
SSPM2                             00000002
SSPM3                             00000003
SSPMSK                            00000093
SSPOV                             00000006
SSPSTAT                           00000094
STATUS                            00000003
STRA                              00000000
STRB                              00000001
STRC                              00000002
STRD                              00000003
STRSYNC                           00000004
SUB?BCW                           
SUB?WCW                           
SWDTEN                            00000000
SYNC                              00000004
T0CS                              00000005
T0IE                              00000005
T0IF                              00000002
T0SE                              00000004
T1                                0000003C
T1CKPS0                           00000004
T1CKPS1                           00000005
T1CON                             00000010
T1GIV                             00000007
T1GSS                             00000001
T1INSYNC                          00000002
T1OSCEN                           00000003
T1SYNC                            00000002
T2CKPS0                           00000000
T2CKPS1                           00000001
T2CON                             00000012
TMR0                              00000001
TMR0IE                            00000005
TMR0IF                            00000002
MPASM  5.36                      MB_STDIM.ASM   5-24-2019  13:22:05         PAGE 308


SYMBOL TABLE
  LABEL                             VALUE 

TMR1CS                            00000001
TMR1GE                            00000006
TMR1H                             0000000F
TMR1IE                            00000000
TMR1IF                            00000000
TMR1L                             0000000E
TMR1ON                            00000000
TMR2                              00000011
TMR2IE                            00000001
TMR2IF                            00000001
TMR2ON                            00000002
TOGGLE?T                          
TOUTPS0                           00000003
TOUTPS1                           00000004
TOUTPS2                           00000005
TOUTPS3                           00000006
TRISA                             00000085
TRISB                             00000086
TRISC                             00000087
TRISE                             00000089
TRMT                              00000001
TUN0                              00000000
TUN1                              00000001
TUN2                              00000002
TUN3                              00000003
TUN4                              00000004
TX8_9                             00000006
TX9                               00000006
TX9D                              00000000
TXD8                              00000000
TXEN                              00000005
TXIE                              00000004
TXIF                              00000004
TXREG                             00000019
TXSTA                             00000098
UA                                00000001
ULPWUE                            00000005
ULPWUIE                           00000002
ULPWUIF                           00000002
VCFG0                             00000004
VCFG1                             00000005
VR0                               00000000
VR1                               00000001
VR2                               00000002
VR3                               00000003
VRCON                             00000097
VREN                              00000007
VROE                              00000006
VRR                               00000005
VRSS                              00000004
W                                 00000000
WCOL                              00000007
WDTCON                            00000105
MPASM  5.36                      MB_STDIM.ASM   5-24-2019  13:22:05         PAGE 309


SYMBOL TABLE
  LABEL                             VALUE 

WDTPS0                            00000001
WDTPS1                            00000002
WDTPS2                            00000003
WDTPS3                            00000004
WPUB                              00000095
WPUB0                             00000000
WPUB1                             00000001
WPUB2                             00000002
WPUB3                             00000003
WPUB4                             00000004
WPUB5                             00000005
WPUB6                             00000006
WPUB7                             00000007
WR                                00000001
WREN                              00000002
WRERR                             00000003
WUE                               00000001
Z                                 00000002
Z00002                            000000EC
Z00003                            000000EC
Z00004                            000000EC
Z00005                            000000EC
Z00006                            000000EC
Z00007                            000000EC
Z00008                            000000EC
Z00009                            000000EC
Z0000A                            000000EC
Z0000B                            000000EC
Z0000C                            000000EE
Z0000D                            000000EE
Z0000E                            000000EE
Z0000F                            000000EE
Z00010                            000000EE
Z00011                            000000EE
Z00012                            000000EE
Z00013                            000000EE
Z00014                            000000EE
Z00015                            000000EE
Z00016                            000000EE
Z00017                            000000EE
Z00018                            000000EE
Z00019                            000000EE
Z0001A                            000000EE
Z0001B                            000000EE
Z0001C                            000000EE
Z0001D                            000000EE
Z0001E                            000000EE
Z0001F                            000000EE
Z00020                            000000F1
Z00021                            000000F4
Z00022                            000000F7
Z00023                            000000FA
Z00024                            000000FE
MPASM  5.36                      MB_STDIM.ASM   5-24-2019  13:22:05         PAGE 310


SYMBOL TABLE
  LABEL                             VALUE 

Z00025                            00000102
Z00026                            00000105
Z00027                            0000010A
Z00028                            0000010D
Z00029                            00000110
Z0002A                            00000112
Z0002B                            00000113
Z0002C                            00000116
Z0002D                            0000013C
Z0002E                            0000013C
Z0002F                            00000142
Z00030                            00000151
Z00031                            00000157
Z00032                            0000016F
Z00033                            000001A5
Z00034                            000001AA
Z00035                            000001AC
Z00036                            000001AF
Z00037                            000001AF
Z00038                            000001B4
Z00039                            000001B6
Z0003A                            000001B9
Z0003B                            000001B9
Z0003C                            000001BE
Z0003D                            000001C0
Z0003E                            000001C3
Z0003F                            000001C3
Z00040                            000001C6
Z00041                            000001CD
Z00042                            000001E8
Z00043                            000001EB
Z00044                            000001FD
Z00045                            00000208
Z00046                            0000020B
Z00047                            0000020F
Z00048                            00000210
Z00049                            00000210
Z0004A                            00000215
Z0004B                            00000218
Z0004C                            0000021C
Z0004D                            00000220
Z0004E                            00000228
Z0004F                            0000023C
Z00050                            00000241
Z00051                            00000243
Z00052                            00000246
Z00053                            0000024B
Z00054                            0000024B
Z00055                            0000024B
Z00056                            0000024D
Z00057                            0000024D
Z00058                            0000024E
Z00059                            00000255
MPASM  5.36                      MB_STDIM.ASM   5-24-2019  13:22:05         PAGE 311


SYMBOL TABLE
  LABEL                             VALUE 

Z0005A                            0000028A
Z0005B                            0000028B
Z0005C                            0000028B
Z0005D                            0000028D
Z0005E                            0000028E
Z0005F                            00000290
Z00060                            00000293
Z00061                            00000295
Z00062                            00000295
Z00063                            00000298
Z00064                            0000029B
Z00065                            0000029C
Z00066                            0000029E
Z00067                            000002A1
Z00068                            000002A2
Z00069                            000002A3
Z0006A                            000002C5
Z0006B                            000002C6
Z0006C                            000002C6
Z0006D                            000002C8
Z0006E                            000002CB
Z0006F                            000002CD
Z00070                            000002CF
Z00071                            000002D1
Z00072                            00000315
Z00073                            00000316
Z00074                            00000316
Z00075                            00000318
Z00076                            0000031A
Z00077                            0000031C
Z00078                            0000031F
Z00079                            00000323
Z0007A                            00000325
Z0007B                            00000325
Z0007C                            00000325
_BAUDCTL??3                       BAUDCTL, 003h
_BOR21V                           00003EFF
_BOR40V                           00003FFF
_BOR_NSLEEP                       00003EFF
_BOR_OFF                          00003CFF
_BOR_ON                           00003FFF
_BOR_SBODEN                       00003DFF
_BRG16                            _BAUDCTL??3
_BRGH                             _TXSTA??2
_CONFIG1                          00002007
_CONFIG2                          00002008
_CPD_OFF                          00003FFF
_CPD_ON                           00003F7F
_CP_OFF                           00003FFF
_CP_ON                            00003FBF
_CREN                             _RCSTA??4
_DEBUG_OFF                        00003FFF
_DEBUG_ON                         00001FFF
MPASM  5.36                      MB_STDIM.ASM   5-24-2019  13:22:05         PAGE 312


SYMBOL TABLE
  LABEL                             VALUE 

_Dat                              0000007A
_DatRcv_Fg                        00000042
_DatRcv_Fg??7                     _DatRcv_Fg, 007h
_DataRdy                          _DatRcv_Fg??7
_EC_OSC                           00003FFB
_EXTRC                            00003FFF
_EXTRCIO                          00003FFE
_EXTRC_OSC_CLKOUT                 00003FFF
_EXTRC_OSC_NOCLKOUT               00003FFE
_FCMEN_OFF                        000037FF
_FCMEN_ON                         00003FFF
_GIE                              _INTCON??7
_HS_OSC                           00003FFA
_IESO_OFF                         00003BFF
_IESO_ON                          00003FFF
_INI_0                            000000EE
_INTCON??0                        INTCON, 000h
_INTCON??3                        INTCON, 003h
_INTCON??4                        INTCON, 004h
_INTCON??6                        INTCON, 006h
_INTCON??7                        INTCON, 007h
_INTE                             _INTCON??4
_INTOSC                           00003FFD
_INTOSCIO                         00003FFC
_INTRC_OSC_CLKOUT                 00003FFD
_INTRC_OSC_NOCLKOUT               00003FFC
_LP_OSC                           00003FF8
_LVP_OFF                          00002FFF
_LVP_ON                           00003FFF
_MCLRE_OFF                        00003FDF
_MCLRE_ON                         00003FFF
_OnTm1                            00000316
_PEIE                             _INTCON??6
_PIE1??4                          PIE1, 004h
_PIE1??5                          PIE1, 005h
_PIR1??0                          PIR1, 000h
_PIR1??4                          PIR1, 004h
_PIR1??5                          PIR1, 005h
_PORTA??0                         PORTA, 000h
_PORTA??1                         PORTA, 001h
_PORTA??2                         PORTA, 002h
_PORTA??3                         PORTA, 003h
_PORTB??0                         PORTB, 000h
_PORTB??1                         PORTB, 001h
_PORTB??2                         PORTB, 002h
_PORTB??3                         PORTB, 003h
_PORTB??4                         PORTB, 004h
_PORTB??5                         PORTB, 005h
_PORTC??4                         PORTC, 004h
_PORTH                            00000007
_PORTL                            00000006
_PWRTE_OFF                        00003FFF
_PWRTE_ON                         00003FEF
MPASM  5.36                      MB_STDIM.ASM   5-24-2019  13:22:05         PAGE 313


SYMBOL TABLE
  LABEL                             VALUE 

_P_CS                             _PORTB??1
_P_GD0                            _PORTB??2
_P_SCLK                           _PORTB??4
_P_SI                             _PORTB??5
_P_SO                             _PORTB??3
_RBIE                             _INTCON??3
_RBIF                             _INTCON??0
_RCIE                             _PIE1??5
_RCIF                             _PIR1??5
_RCSTA??4                         RCSTA, 004h
_RCSTA??7                         RCSTA, 007h
_Rpt                              0000004A
_SPEN                             _RCSTA??7
_SYNC                             _TXSTA??4
_T1CON??0                         T1CON, 000h
_TMR1IF                           _PIR1??0
_TMR1ON                           _T1CON??0
_TRISC??6                         TRISC, 006h
_TRISC??7                         TRISC, 007h
_TRISH                            00000087
_TRISL                            00000086
_TXEN                             _TXSTA??5
_TXIE                             _PIE1??4
_TXIF                             _PIR1??4
_TXSTA??2                         TXSTA, 002h
_TXSTA??4                         TXSTA, 004h
_TXSTA??5                         TXSTA, 005h
_TX_EN                            _PORTB??0
_WDT_OFF                          00003FF7
_WDT_ON                           00003FFF
_WRT_1FOURTH                      00003BFF
_WRT_256                          00003DFF
_WRT_HALF                         000039FF
_WRT_OFF                          00003FFF
_XT_OSC                           00003FF9
__16F886                          00000001
_charCnt                          00000078
_cktmOut                          0000024D
_cmd                              000000C2
_commBuf                          000000A0
_d                                0000003E
_d1                               0000003F
_d2                               00000040
_d3                               00000041
_dlyCnt                           00000079
_grp                              000000C1
_i                                00000043
_init_EUSART                      000002C6
_init_IO                          00000295
_init_PWM                         0000028B
_intBuffer                        000000C0
_ix                               00000038
_j                                00000044
MPASM  5.36                      MB_STDIM.ASM   5-24-2019  13:22:05         PAGE 314


SYMBOL TABLE
  LABEL                             VALUE 

_k                                00000045
_kcnt                             00000046
_l                                00000047
_led1                             _PORTA??3
_m                                00000048
_p                                00000049
_rst                              _PORTC??4
_rxB                              00000190
_rx_loc                           _PORTA??2
_scr_val                          000000C3
_secCnt                           0000003A
_start                            0000013C
_temp                             00000070
_temp1                            00000071
_temp2                            00000072
_temp3                            00000073
_temp4                            00000074
_temp5                            00000075
_temp6                            00000076
_temp7                            00000077
_txB                              00000120
_tx_loc                           _PORTA??0
_txen_loc                         _PORTA??1
_val                              000000C4
_w                                0000004B
_x                                0000004C
_y                                0000004D
cmpnoteq                          000000BA
debugbh                           00000021
debugbit                          0000001C
debugdelay                        00000023
debugloop                         00000014
divloop                           000000C7
divok                             000000D9
lcdchkcd                          00000086
lcdloop                           0000008C
lcdout1                           00000078
lcdouta                           0000004B
lcdoutcom                         00000077
lcdoutdig                         00000040
lcdsend                           0000008B
main                              000000EC
pauseush                          000000A7
pauseusloop                       000000A2
pauseusloop0                      000000A1
psave                             0000007F
same                              00000001
ssave                             0000007E
st_LocEx                          00000130
t0_ref                            00000118
t1_ref                            0000011D
t2_ref                            00000129
tm_lp                             00000120
MPASM  5.36                      MB_STDIM.ASM   5-24-2019  13:22:05         PAGE 315


SYMBOL TABLE
  LABEL                             VALUE 

w                                 00000000
wsave                             0000007D


MEMORY USAGE MAP ('X' = Used,  '-' = Unused)

0000 : XX--XXXXXXXXXXXX XXXXXXXXXXXXXXXX XXXXXXXXXXXXXXXX XXXXXXXXXXXXXXXX
0040 : XXXXXXXXXXXXXXXX XXXXXXXXXXXXXXXX XXXXXXXXXXXXXXXX XXXXXXXXXXXXXXXX
0080 : XXXXXXXXXXXXXXXX XXXXXXXXXXXXXXXX XXXXXXXXXXXXXXXX XXXXXXXXXXXXXXXX
00C0 : XXXXXXXXXXXXXXXX XXXXXXXXXXXXXXXX XXXXXXXXXXXXXXXX XXXXXXXXXXXXXXXX
0100 : XXXXXXXXXXXXXXXX XXXXXXXXXXXXXXXX XXXXXXXXXXXXXXXX XXXXXXXXXXXXXXXX
0140 : XXXXXXXXXXXXXXXX XXXXXXXXXXXXXXXX XXXXXXXXXXXXXXXX XXXXXXXXXXXXXXXX
0180 : XXXXXXXXXXXXXXXX XXXXXXXXXXXXXXXX XXXXXXXXXXXXXXXX XXXXXXXXXXXXXXXX
01C0 : XXXXXXXXXXXXXXXX XXXXXXXXXXXXXXXX XXXXXXXXXXXXXXXX XXXXXXXXXXXXXXXX
0200 : XXXXXXXXXXXXXXXX XXXXXXXXXXXXXXXX XXXXXXXXXXXXXXXX XXXXXXXXXXXXXXXX
0240 : XXXXXXXXXXXXXXXX XXXXXXXXXXXXXXXX XXXXXXXXXXXXXXXX XXXXXXXXXXXXXXXX
0280 : XXXXXXXXXXXXXXXX XXXXXXXXXXXXXXXX XXXXXXXXXXXXXXXX XXXXXXXXXXXXXXXX
02C0 : XXXXXXXXXXXXXXXX XXXXXXXXXXXXXXXX XXXXXXXXXXXXXXXX XXXXXXXXXXXXXXXX
0300 : XXXXXXXXXXXXXXXX XXXXXXXXXXXXXXXX XXXXXXXX-------- ----------------
2000 : -------XX------- ---------------- ---------------- ----------------

All other memory blocks unused.

Program Memory Words Used:   806
Program Memory Words Free:  7386


Errors   :     0
Warnings :     0 reported,     0 suppressed
Messages :     0 reported,    24 suppressed

